ARM GAS  /tmp/cchj3PFG.s 			page 1


   1              		.cpu cortex-m7
   2              		.eabi_attribute 28, 1
   3              		.eabi_attribute 20, 1
   4              		.eabi_attribute 21, 1
   5              		.eabi_attribute 23, 3
   6              		.eabi_attribute 24, 1
   7              		.eabi_attribute 25, 1
   8              		.eabi_attribute 26, 1
   9              		.eabi_attribute 30, 1
  10              		.eabi_attribute 34, 1
  11              		.eabi_attribute 18, 4
  12              		.file	"memp.c"
  13              		.text
  14              	.Ltext0:
  15              		.cfi_sections	.debug_frame
  16              		.section	.text.do_memp_malloc_pool,"ax",%progbits
  17              		.align	1
  18              		.syntax unified
  19              		.thumb
  20              		.thumb_func
  21              		.fpu fpv5-d16
  23              	do_memp_malloc_pool:
  24              	.LFB160:
  25              		.file 1 "Middlewares/Third_Party/LwIP/src/core/memp.c"
   1:Middlewares/Third_Party/LwIP/src/core/memp.c **** /**
   2:Middlewares/Third_Party/LwIP/src/core/memp.c ****  * @file
   3:Middlewares/Third_Party/LwIP/src/core/memp.c ****  * Dynamic pool memory manager
   4:Middlewares/Third_Party/LwIP/src/core/memp.c ****  *
   5:Middlewares/Third_Party/LwIP/src/core/memp.c ****  * lwIP has dedicated pools for many structures (netconn, protocol control blocks,
   6:Middlewares/Third_Party/LwIP/src/core/memp.c ****  * packet buffers, ...). All these pools are managed here.
   7:Middlewares/Third_Party/LwIP/src/core/memp.c ****  *
   8:Middlewares/Third_Party/LwIP/src/core/memp.c ****  * @defgroup mempool Memory pools
   9:Middlewares/Third_Party/LwIP/src/core/memp.c ****  * @ingroup infrastructure
  10:Middlewares/Third_Party/LwIP/src/core/memp.c ****  * Custom memory pools
  11:Middlewares/Third_Party/LwIP/src/core/memp.c **** 
  12:Middlewares/Third_Party/LwIP/src/core/memp.c ****  */
  13:Middlewares/Third_Party/LwIP/src/core/memp.c **** 
  14:Middlewares/Third_Party/LwIP/src/core/memp.c **** /*
  15:Middlewares/Third_Party/LwIP/src/core/memp.c ****  * Copyright (c) 2001-2004 Swedish Institute of Computer Science.
  16:Middlewares/Third_Party/LwIP/src/core/memp.c ****  * All rights reserved.
  17:Middlewares/Third_Party/LwIP/src/core/memp.c ****  *
  18:Middlewares/Third_Party/LwIP/src/core/memp.c ****  * Redistribution and use in source and binary forms, with or without modification,
  19:Middlewares/Third_Party/LwIP/src/core/memp.c ****  * are permitted provided that the following conditions are met:
  20:Middlewares/Third_Party/LwIP/src/core/memp.c ****  *
  21:Middlewares/Third_Party/LwIP/src/core/memp.c ****  * 1. Redistributions of source code must retain the above copyright notice,
  22:Middlewares/Third_Party/LwIP/src/core/memp.c ****  *    this list of conditions and the following disclaimer.
  23:Middlewares/Third_Party/LwIP/src/core/memp.c ****  * 2. Redistributions in binary form must reproduce the above copyright notice,
  24:Middlewares/Third_Party/LwIP/src/core/memp.c ****  *    this list of conditions and the following disclaimer in the documentation
  25:Middlewares/Third_Party/LwIP/src/core/memp.c ****  *    and/or other materials provided with the distribution.
  26:Middlewares/Third_Party/LwIP/src/core/memp.c ****  * 3. The name of the author may not be used to endorse or promote products
  27:Middlewares/Third_Party/LwIP/src/core/memp.c ****  *    derived from this software without specific prior written permission.
  28:Middlewares/Third_Party/LwIP/src/core/memp.c ****  *
  29:Middlewares/Third_Party/LwIP/src/core/memp.c ****  * THIS SOFTWARE IS PROVIDED BY THE AUTHOR ``AS IS'' AND ANY EXPRESS OR IMPLIED
  30:Middlewares/Third_Party/LwIP/src/core/memp.c ****  * WARRANTIES, INCLUDING, BUT NOT LIMITED TO, THE IMPLIED WARRANTIES OF
  31:Middlewares/Third_Party/LwIP/src/core/memp.c ****  * MERCHANTABILITY AND FITNESS FOR A PARTICULAR PURPOSE ARE DISCLAIMED. IN NO EVENT
  32:Middlewares/Third_Party/LwIP/src/core/memp.c ****  * SHALL THE AUTHOR BE LIABLE FOR ANY DIRECT, INDIRECT, INCIDENTAL, SPECIAL,
  33:Middlewares/Third_Party/LwIP/src/core/memp.c ****  * EXEMPLARY, OR CONSEQUENTIAL DAMAGES (INCLUDING, BUT NOT LIMITED TO, PROCUREMENT
ARM GAS  /tmp/cchj3PFG.s 			page 2


  34:Middlewares/Third_Party/LwIP/src/core/memp.c ****  * OF SUBSTITUTE GOODS OR SERVICES; LOSS OF USE, DATA, OR PROFITS; OR BUSINESS
  35:Middlewares/Third_Party/LwIP/src/core/memp.c ****  * INTERRUPTION) HOWEVER CAUSED AND ON ANY THEORY OF LIABILITY, WHETHER IN
  36:Middlewares/Third_Party/LwIP/src/core/memp.c ****  * CONTRACT, STRICT LIABILITY, OR TORT (INCLUDING NEGLIGENCE OR OTHERWISE) ARISING
  37:Middlewares/Third_Party/LwIP/src/core/memp.c ****  * IN ANY WAY OUT OF THE USE OF THIS SOFTWARE, EVEN IF ADVISED OF THE POSSIBILITY
  38:Middlewares/Third_Party/LwIP/src/core/memp.c ****  * OF SUCH DAMAGE.
  39:Middlewares/Third_Party/LwIP/src/core/memp.c ****  *
  40:Middlewares/Third_Party/LwIP/src/core/memp.c ****  * This file is part of the lwIP TCP/IP stack.
  41:Middlewares/Third_Party/LwIP/src/core/memp.c ****  *
  42:Middlewares/Third_Party/LwIP/src/core/memp.c ****  * Author: Adam Dunkels <adam@sics.se>
  43:Middlewares/Third_Party/LwIP/src/core/memp.c ****  *
  44:Middlewares/Third_Party/LwIP/src/core/memp.c ****  */
  45:Middlewares/Third_Party/LwIP/src/core/memp.c **** 
  46:Middlewares/Third_Party/LwIP/src/core/memp.c **** #include "lwip/opt.h"
  47:Middlewares/Third_Party/LwIP/src/core/memp.c **** 
  48:Middlewares/Third_Party/LwIP/src/core/memp.c **** #include "lwip/memp.h"
  49:Middlewares/Third_Party/LwIP/src/core/memp.c **** #include "lwip/sys.h"
  50:Middlewares/Third_Party/LwIP/src/core/memp.c **** #include "lwip/stats.h"
  51:Middlewares/Third_Party/LwIP/src/core/memp.c **** 
  52:Middlewares/Third_Party/LwIP/src/core/memp.c **** #include <string.h>
  53:Middlewares/Third_Party/LwIP/src/core/memp.c **** 
  54:Middlewares/Third_Party/LwIP/src/core/memp.c **** /* Make sure we include everything we need for size calculation required by memp_std.h */
  55:Middlewares/Third_Party/LwIP/src/core/memp.c **** #include "lwip/pbuf.h"
  56:Middlewares/Third_Party/LwIP/src/core/memp.c **** #include "lwip/raw.h"
  57:Middlewares/Third_Party/LwIP/src/core/memp.c **** #include "lwip/udp.h"
  58:Middlewares/Third_Party/LwIP/src/core/memp.c **** #include "lwip/tcp.h"
  59:Middlewares/Third_Party/LwIP/src/core/memp.c **** #include "lwip/priv/tcp_priv.h"
  60:Middlewares/Third_Party/LwIP/src/core/memp.c **** #include "lwip/altcp.h"
  61:Middlewares/Third_Party/LwIP/src/core/memp.c **** #include "lwip/ip4_frag.h"
  62:Middlewares/Third_Party/LwIP/src/core/memp.c **** #include "lwip/netbuf.h"
  63:Middlewares/Third_Party/LwIP/src/core/memp.c **** #include "lwip/api.h"
  64:Middlewares/Third_Party/LwIP/src/core/memp.c **** #include "lwip/priv/tcpip_priv.h"
  65:Middlewares/Third_Party/LwIP/src/core/memp.c **** #include "lwip/priv/api_msg.h"
  66:Middlewares/Third_Party/LwIP/src/core/memp.c **** #include "lwip/priv/sockets_priv.h"
  67:Middlewares/Third_Party/LwIP/src/core/memp.c **** #include "lwip/etharp.h"
  68:Middlewares/Third_Party/LwIP/src/core/memp.c **** #include "lwip/igmp.h"
  69:Middlewares/Third_Party/LwIP/src/core/memp.c **** #include "lwip/timeouts.h"
  70:Middlewares/Third_Party/LwIP/src/core/memp.c **** /* needed by default MEMP_NUM_SYS_TIMEOUT */
  71:Middlewares/Third_Party/LwIP/src/core/memp.c **** #include "netif/ppp/ppp_opts.h"
  72:Middlewares/Third_Party/LwIP/src/core/memp.c **** #include "lwip/netdb.h"
  73:Middlewares/Third_Party/LwIP/src/core/memp.c **** #include "lwip/dns.h"
  74:Middlewares/Third_Party/LwIP/src/core/memp.c **** #include "lwip/priv/nd6_priv.h"
  75:Middlewares/Third_Party/LwIP/src/core/memp.c **** #include "lwip/ip6_frag.h"
  76:Middlewares/Third_Party/LwIP/src/core/memp.c **** #include "lwip/mld6.h"
  77:Middlewares/Third_Party/LwIP/src/core/memp.c **** 
  78:Middlewares/Third_Party/LwIP/src/core/memp.c **** #define LWIP_MEMPOOL(name,num,size,desc) LWIP_MEMPOOL_DECLARE(name,num,size,desc)
  79:Middlewares/Third_Party/LwIP/src/core/memp.c **** #include "lwip/priv/memp_std.h"
  80:Middlewares/Third_Party/LwIP/src/core/memp.c **** 
  81:Middlewares/Third_Party/LwIP/src/core/memp.c **** const struct memp_desc *const memp_pools[MEMP_MAX] = {
  82:Middlewares/Third_Party/LwIP/src/core/memp.c **** #define LWIP_MEMPOOL(name,num,size,desc) &memp_ ## name,
  83:Middlewares/Third_Party/LwIP/src/core/memp.c **** #include "lwip/priv/memp_std.h"
  84:Middlewares/Third_Party/LwIP/src/core/memp.c **** };
  85:Middlewares/Third_Party/LwIP/src/core/memp.c **** 
  86:Middlewares/Third_Party/LwIP/src/core/memp.c **** #ifdef LWIP_HOOK_FILENAME
  87:Middlewares/Third_Party/LwIP/src/core/memp.c **** #include LWIP_HOOK_FILENAME
  88:Middlewares/Third_Party/LwIP/src/core/memp.c **** #endif
  89:Middlewares/Third_Party/LwIP/src/core/memp.c **** 
  90:Middlewares/Third_Party/LwIP/src/core/memp.c **** #if MEMP_MEM_MALLOC && MEMP_OVERFLOW_CHECK >= 2
ARM GAS  /tmp/cchj3PFG.s 			page 3


  91:Middlewares/Third_Party/LwIP/src/core/memp.c **** #undef MEMP_OVERFLOW_CHECK
  92:Middlewares/Third_Party/LwIP/src/core/memp.c **** /* MEMP_OVERFLOW_CHECK >= 2 does not work with MEMP_MEM_MALLOC, use 1 instead */
  93:Middlewares/Third_Party/LwIP/src/core/memp.c **** #define MEMP_OVERFLOW_CHECK 1
  94:Middlewares/Third_Party/LwIP/src/core/memp.c **** #endif
  95:Middlewares/Third_Party/LwIP/src/core/memp.c **** 
  96:Middlewares/Third_Party/LwIP/src/core/memp.c **** #if MEMP_SANITY_CHECK && !MEMP_MEM_MALLOC
  97:Middlewares/Third_Party/LwIP/src/core/memp.c **** /**
  98:Middlewares/Third_Party/LwIP/src/core/memp.c ****  * Check that memp-lists don't form a circle, using "Floyd's cycle-finding algorithm".
  99:Middlewares/Third_Party/LwIP/src/core/memp.c ****  */
 100:Middlewares/Third_Party/LwIP/src/core/memp.c **** static int
 101:Middlewares/Third_Party/LwIP/src/core/memp.c **** memp_sanity(const struct memp_desc *desc)
 102:Middlewares/Third_Party/LwIP/src/core/memp.c **** {
 103:Middlewares/Third_Party/LwIP/src/core/memp.c ****   struct memp *t, *h;
 104:Middlewares/Third_Party/LwIP/src/core/memp.c **** 
 105:Middlewares/Third_Party/LwIP/src/core/memp.c ****   t = *desc->tab;
 106:Middlewares/Third_Party/LwIP/src/core/memp.c ****   if (t != NULL) {
 107:Middlewares/Third_Party/LwIP/src/core/memp.c ****     for (h = t->next; (t != NULL) && (h != NULL); t = t->next,
 108:Middlewares/Third_Party/LwIP/src/core/memp.c ****          h = ((h->next != NULL) ? h->next->next : NULL)) {
 109:Middlewares/Third_Party/LwIP/src/core/memp.c ****       if (t == h) {
 110:Middlewares/Third_Party/LwIP/src/core/memp.c ****         return 0;
 111:Middlewares/Third_Party/LwIP/src/core/memp.c ****       }
 112:Middlewares/Third_Party/LwIP/src/core/memp.c ****     }
 113:Middlewares/Third_Party/LwIP/src/core/memp.c ****   }
 114:Middlewares/Third_Party/LwIP/src/core/memp.c **** 
 115:Middlewares/Third_Party/LwIP/src/core/memp.c ****   return 1;
 116:Middlewares/Third_Party/LwIP/src/core/memp.c **** }
 117:Middlewares/Third_Party/LwIP/src/core/memp.c **** #endif /* MEMP_SANITY_CHECK && !MEMP_MEM_MALLOC */
 118:Middlewares/Third_Party/LwIP/src/core/memp.c **** 
 119:Middlewares/Third_Party/LwIP/src/core/memp.c **** #if MEMP_OVERFLOW_CHECK
 120:Middlewares/Third_Party/LwIP/src/core/memp.c **** /**
 121:Middlewares/Third_Party/LwIP/src/core/memp.c ****  * Check if a memp element was victim of an overflow or underflow
 122:Middlewares/Third_Party/LwIP/src/core/memp.c ****  * (e.g. the restricted area after/before it has been altered)
 123:Middlewares/Third_Party/LwIP/src/core/memp.c ****  *
 124:Middlewares/Third_Party/LwIP/src/core/memp.c ****  * @param p the memp element to check
 125:Middlewares/Third_Party/LwIP/src/core/memp.c ****  * @param desc the pool p comes from
 126:Middlewares/Third_Party/LwIP/src/core/memp.c ****  */
 127:Middlewares/Third_Party/LwIP/src/core/memp.c **** static void
 128:Middlewares/Third_Party/LwIP/src/core/memp.c **** memp_overflow_check_element(struct memp *p, const struct memp_desc *desc)
 129:Middlewares/Third_Party/LwIP/src/core/memp.c **** {
 130:Middlewares/Third_Party/LwIP/src/core/memp.c ****   mem_overflow_check_raw((u8_t *)p + MEMP_SIZE, desc->size, "pool ", desc->desc);
 131:Middlewares/Third_Party/LwIP/src/core/memp.c **** }
 132:Middlewares/Third_Party/LwIP/src/core/memp.c **** 
 133:Middlewares/Third_Party/LwIP/src/core/memp.c **** /**
 134:Middlewares/Third_Party/LwIP/src/core/memp.c ****  * Initialize the restricted area of on memp element.
 135:Middlewares/Third_Party/LwIP/src/core/memp.c ****  */
 136:Middlewares/Third_Party/LwIP/src/core/memp.c **** static void
 137:Middlewares/Third_Party/LwIP/src/core/memp.c **** memp_overflow_init_element(struct memp *p, const struct memp_desc *desc)
 138:Middlewares/Third_Party/LwIP/src/core/memp.c **** {
 139:Middlewares/Third_Party/LwIP/src/core/memp.c ****   mem_overflow_init_raw((u8_t *)p + MEMP_SIZE, desc->size);
 140:Middlewares/Third_Party/LwIP/src/core/memp.c **** }
 141:Middlewares/Third_Party/LwIP/src/core/memp.c **** 
 142:Middlewares/Third_Party/LwIP/src/core/memp.c **** #if MEMP_OVERFLOW_CHECK >= 2
 143:Middlewares/Third_Party/LwIP/src/core/memp.c **** /**
 144:Middlewares/Third_Party/LwIP/src/core/memp.c ****  * Do an overflow check for all elements in every pool.
 145:Middlewares/Third_Party/LwIP/src/core/memp.c ****  *
 146:Middlewares/Third_Party/LwIP/src/core/memp.c ****  * @see memp_overflow_check_element for a description of the check
 147:Middlewares/Third_Party/LwIP/src/core/memp.c ****  */
ARM GAS  /tmp/cchj3PFG.s 			page 4


 148:Middlewares/Third_Party/LwIP/src/core/memp.c **** static void
 149:Middlewares/Third_Party/LwIP/src/core/memp.c **** memp_overflow_check_all(void)
 150:Middlewares/Third_Party/LwIP/src/core/memp.c **** {
 151:Middlewares/Third_Party/LwIP/src/core/memp.c ****   u16_t i, j;
 152:Middlewares/Third_Party/LwIP/src/core/memp.c ****   struct memp *p;
 153:Middlewares/Third_Party/LwIP/src/core/memp.c ****   SYS_ARCH_DECL_PROTECT(old_level);
 154:Middlewares/Third_Party/LwIP/src/core/memp.c ****   SYS_ARCH_PROTECT(old_level);
 155:Middlewares/Third_Party/LwIP/src/core/memp.c **** 
 156:Middlewares/Third_Party/LwIP/src/core/memp.c ****   for (i = 0; i < MEMP_MAX; ++i) {
 157:Middlewares/Third_Party/LwIP/src/core/memp.c ****     p = (struct memp *)LWIP_MEM_ALIGN(memp_pools[i]->base);
 158:Middlewares/Third_Party/LwIP/src/core/memp.c ****     for (j = 0; j < memp_pools[i]->num; ++j) {
 159:Middlewares/Third_Party/LwIP/src/core/memp.c ****       memp_overflow_check_element(p, memp_pools[i]);
 160:Middlewares/Third_Party/LwIP/src/core/memp.c ****       p = LWIP_ALIGNMENT_CAST(struct memp *, ((u8_t *)p + MEMP_SIZE + memp_pools[i]->size + MEM_SAN
 161:Middlewares/Third_Party/LwIP/src/core/memp.c ****     }
 162:Middlewares/Third_Party/LwIP/src/core/memp.c ****   }
 163:Middlewares/Third_Party/LwIP/src/core/memp.c ****   SYS_ARCH_UNPROTECT(old_level);
 164:Middlewares/Third_Party/LwIP/src/core/memp.c **** }
 165:Middlewares/Third_Party/LwIP/src/core/memp.c **** #endif /* MEMP_OVERFLOW_CHECK >= 2 */
 166:Middlewares/Third_Party/LwIP/src/core/memp.c **** #endif /* MEMP_OVERFLOW_CHECK */
 167:Middlewares/Third_Party/LwIP/src/core/memp.c **** 
 168:Middlewares/Third_Party/LwIP/src/core/memp.c **** /**
 169:Middlewares/Third_Party/LwIP/src/core/memp.c ****  * Initialize custom memory pool.
 170:Middlewares/Third_Party/LwIP/src/core/memp.c ****  * Related functions: memp_malloc_pool, memp_free_pool
 171:Middlewares/Third_Party/LwIP/src/core/memp.c ****  *
 172:Middlewares/Third_Party/LwIP/src/core/memp.c ****  * @param desc pool to initialize
 173:Middlewares/Third_Party/LwIP/src/core/memp.c ****  */
 174:Middlewares/Third_Party/LwIP/src/core/memp.c **** void
 175:Middlewares/Third_Party/LwIP/src/core/memp.c **** memp_init_pool(const struct memp_desc *desc)
 176:Middlewares/Third_Party/LwIP/src/core/memp.c **** {
 177:Middlewares/Third_Party/LwIP/src/core/memp.c **** #if MEMP_MEM_MALLOC
 178:Middlewares/Third_Party/LwIP/src/core/memp.c ****   LWIP_UNUSED_ARG(desc);
 179:Middlewares/Third_Party/LwIP/src/core/memp.c **** #else
 180:Middlewares/Third_Party/LwIP/src/core/memp.c ****   int i;
 181:Middlewares/Third_Party/LwIP/src/core/memp.c ****   struct memp *memp;
 182:Middlewares/Third_Party/LwIP/src/core/memp.c **** 
 183:Middlewares/Third_Party/LwIP/src/core/memp.c ****   *desc->tab = NULL;
 184:Middlewares/Third_Party/LwIP/src/core/memp.c ****   memp = (struct memp *)LWIP_MEM_ALIGN(desc->base);
 185:Middlewares/Third_Party/LwIP/src/core/memp.c **** #if MEMP_MEM_INIT
 186:Middlewares/Third_Party/LwIP/src/core/memp.c ****   /* force memset on pool memory */
 187:Middlewares/Third_Party/LwIP/src/core/memp.c ****   memset(memp, 0, (size_t)desc->num * (MEMP_SIZE + desc->size
 188:Middlewares/Third_Party/LwIP/src/core/memp.c **** #if MEMP_OVERFLOW_CHECK
 189:Middlewares/Third_Party/LwIP/src/core/memp.c ****                                        + MEM_SANITY_REGION_AFTER_ALIGNED
 190:Middlewares/Third_Party/LwIP/src/core/memp.c **** #endif
 191:Middlewares/Third_Party/LwIP/src/core/memp.c ****                                       ));
 192:Middlewares/Third_Party/LwIP/src/core/memp.c **** #endif
 193:Middlewares/Third_Party/LwIP/src/core/memp.c ****   /* create a linked list of memp elements */
 194:Middlewares/Third_Party/LwIP/src/core/memp.c ****   for (i = 0; i < desc->num; ++i) {
 195:Middlewares/Third_Party/LwIP/src/core/memp.c ****     memp->next = *desc->tab;
 196:Middlewares/Third_Party/LwIP/src/core/memp.c ****     *desc->tab = memp;
 197:Middlewares/Third_Party/LwIP/src/core/memp.c **** #if MEMP_OVERFLOW_CHECK
 198:Middlewares/Third_Party/LwIP/src/core/memp.c ****     memp_overflow_init_element(memp, desc);
 199:Middlewares/Third_Party/LwIP/src/core/memp.c **** #endif /* MEMP_OVERFLOW_CHECK */
 200:Middlewares/Third_Party/LwIP/src/core/memp.c ****     /* cast through void* to get rid of alignment warnings */
 201:Middlewares/Third_Party/LwIP/src/core/memp.c ****     memp = (struct memp *)(void *)((u8_t *)memp + MEMP_SIZE + desc->size
 202:Middlewares/Third_Party/LwIP/src/core/memp.c **** #if MEMP_OVERFLOW_CHECK
 203:Middlewares/Third_Party/LwIP/src/core/memp.c ****                                    + MEM_SANITY_REGION_AFTER_ALIGNED
 204:Middlewares/Third_Party/LwIP/src/core/memp.c **** #endif
ARM GAS  /tmp/cchj3PFG.s 			page 5


 205:Middlewares/Third_Party/LwIP/src/core/memp.c ****                                   );
 206:Middlewares/Third_Party/LwIP/src/core/memp.c ****   }
 207:Middlewares/Third_Party/LwIP/src/core/memp.c **** #if MEMP_STATS
 208:Middlewares/Third_Party/LwIP/src/core/memp.c ****   desc->stats->avail = desc->num;
 209:Middlewares/Third_Party/LwIP/src/core/memp.c **** #endif /* MEMP_STATS */
 210:Middlewares/Third_Party/LwIP/src/core/memp.c **** #endif /* !MEMP_MEM_MALLOC */
 211:Middlewares/Third_Party/LwIP/src/core/memp.c **** 
 212:Middlewares/Third_Party/LwIP/src/core/memp.c **** #if MEMP_STATS && (defined(LWIP_DEBUG) || LWIP_STATS_DISPLAY)
 213:Middlewares/Third_Party/LwIP/src/core/memp.c ****   desc->stats->name  = desc->desc;
 214:Middlewares/Third_Party/LwIP/src/core/memp.c **** #endif /* MEMP_STATS && (defined(LWIP_DEBUG) || LWIP_STATS_DISPLAY) */
 215:Middlewares/Third_Party/LwIP/src/core/memp.c **** }
 216:Middlewares/Third_Party/LwIP/src/core/memp.c **** 
 217:Middlewares/Third_Party/LwIP/src/core/memp.c **** /**
 218:Middlewares/Third_Party/LwIP/src/core/memp.c ****  * Initializes lwIP built-in pools.
 219:Middlewares/Third_Party/LwIP/src/core/memp.c ****  * Related functions: memp_malloc, memp_free
 220:Middlewares/Third_Party/LwIP/src/core/memp.c ****  *
 221:Middlewares/Third_Party/LwIP/src/core/memp.c ****  * Carves out memp_memory into linked lists for each pool-type.
 222:Middlewares/Third_Party/LwIP/src/core/memp.c ****  */
 223:Middlewares/Third_Party/LwIP/src/core/memp.c **** void
 224:Middlewares/Third_Party/LwIP/src/core/memp.c **** memp_init(void)
 225:Middlewares/Third_Party/LwIP/src/core/memp.c **** {
 226:Middlewares/Third_Party/LwIP/src/core/memp.c ****   u16_t i;
 227:Middlewares/Third_Party/LwIP/src/core/memp.c **** 
 228:Middlewares/Third_Party/LwIP/src/core/memp.c ****   /* for every pool: */
 229:Middlewares/Third_Party/LwIP/src/core/memp.c ****   for (i = 0; i < LWIP_ARRAYSIZE(memp_pools); i++) {
 230:Middlewares/Third_Party/LwIP/src/core/memp.c ****     memp_init_pool(memp_pools[i]);
 231:Middlewares/Third_Party/LwIP/src/core/memp.c **** 
 232:Middlewares/Third_Party/LwIP/src/core/memp.c **** #if LWIP_STATS && MEMP_STATS
 233:Middlewares/Third_Party/LwIP/src/core/memp.c ****     lwip_stats.memp[i] = memp_pools[i]->stats;
 234:Middlewares/Third_Party/LwIP/src/core/memp.c **** #endif
 235:Middlewares/Third_Party/LwIP/src/core/memp.c ****   }
 236:Middlewares/Third_Party/LwIP/src/core/memp.c **** 
 237:Middlewares/Third_Party/LwIP/src/core/memp.c **** #if MEMP_OVERFLOW_CHECK >= 2
 238:Middlewares/Third_Party/LwIP/src/core/memp.c ****   /* check everything a first time to see if it worked */
 239:Middlewares/Third_Party/LwIP/src/core/memp.c ****   memp_overflow_check_all();
 240:Middlewares/Third_Party/LwIP/src/core/memp.c **** #endif /* MEMP_OVERFLOW_CHECK >= 2 */
 241:Middlewares/Third_Party/LwIP/src/core/memp.c **** }
 242:Middlewares/Third_Party/LwIP/src/core/memp.c **** 
 243:Middlewares/Third_Party/LwIP/src/core/memp.c **** static void *
 244:Middlewares/Third_Party/LwIP/src/core/memp.c **** #if !MEMP_OVERFLOW_CHECK
 245:Middlewares/Third_Party/LwIP/src/core/memp.c **** do_memp_malloc_pool(const struct memp_desc *desc)
 246:Middlewares/Third_Party/LwIP/src/core/memp.c **** #else
 247:Middlewares/Third_Party/LwIP/src/core/memp.c **** do_memp_malloc_pool_fn(const struct memp_desc *desc, const char *file, const int line)
 248:Middlewares/Third_Party/LwIP/src/core/memp.c **** #endif
 249:Middlewares/Third_Party/LwIP/src/core/memp.c **** {
  26              		.loc 1 249 0
  27              		.cfi_startproc
  28              		@ args = 0, pretend = 0, frame = 0
  29              		@ frame_needed = 0, uses_anonymous_args = 0
  30              	.LVL0:
  31 0000 10B5     		push	{r4, lr}
  32              	.LCFI0:
  33              		.cfi_def_cfa_offset 8
  34              		.cfi_offset 4, -8
  35              		.cfi_offset 14, -4
 250:Middlewares/Third_Party/LwIP/src/core/memp.c ****   struct memp *memp;
 251:Middlewares/Third_Party/LwIP/src/core/memp.c ****   SYS_ARCH_DECL_PROTECT(old_level);
ARM GAS  /tmp/cchj3PFG.s 			page 6


 252:Middlewares/Third_Party/LwIP/src/core/memp.c **** 
 253:Middlewares/Third_Party/LwIP/src/core/memp.c **** #if MEMP_MEM_MALLOC
 254:Middlewares/Third_Party/LwIP/src/core/memp.c ****   memp = (struct memp *)mem_malloc(MEMP_SIZE + MEMP_ALIGN_SIZE(desc->size));
 255:Middlewares/Third_Party/LwIP/src/core/memp.c ****   SYS_ARCH_PROTECT(old_level);
 256:Middlewares/Third_Party/LwIP/src/core/memp.c **** #else /* MEMP_MEM_MALLOC */
 257:Middlewares/Third_Party/LwIP/src/core/memp.c ****   SYS_ARCH_PROTECT(old_level);
 258:Middlewares/Third_Party/LwIP/src/core/memp.c **** 
 259:Middlewares/Third_Party/LwIP/src/core/memp.c ****   memp = *desc->tab;
  36              		.loc 1 259 0
  37 0002 8368     		ldr	r3, [r0, #8]
  38 0004 1C68     		ldr	r4, [r3]
  39              	.LVL1:
 260:Middlewares/Third_Party/LwIP/src/core/memp.c **** #endif /* MEMP_MEM_MALLOC */
 261:Middlewares/Third_Party/LwIP/src/core/memp.c **** 
 262:Middlewares/Third_Party/LwIP/src/core/memp.c ****   if (memp != NULL) {
  40              		.loc 1 262 0
  41 0006 7CB1     		cbz	r4, .L3
 263:Middlewares/Third_Party/LwIP/src/core/memp.c **** #if !MEMP_MEM_MALLOC
 264:Middlewares/Third_Party/LwIP/src/core/memp.c **** #if MEMP_OVERFLOW_CHECK == 1
 265:Middlewares/Third_Party/LwIP/src/core/memp.c ****     memp_overflow_check_element(memp, desc);
 266:Middlewares/Third_Party/LwIP/src/core/memp.c **** #endif /* MEMP_OVERFLOW_CHECK */
 267:Middlewares/Third_Party/LwIP/src/core/memp.c **** 
 268:Middlewares/Third_Party/LwIP/src/core/memp.c ****     *desc->tab = memp->next;
  42              		.loc 1 268 0
  43 0008 2268     		ldr	r2, [r4]
  44 000a 1A60     		str	r2, [r3]
 269:Middlewares/Third_Party/LwIP/src/core/memp.c **** #if MEMP_OVERFLOW_CHECK
 270:Middlewares/Third_Party/LwIP/src/core/memp.c ****     memp->next = NULL;
 271:Middlewares/Third_Party/LwIP/src/core/memp.c **** #endif /* MEMP_OVERFLOW_CHECK */
 272:Middlewares/Third_Party/LwIP/src/core/memp.c **** #endif /* !MEMP_MEM_MALLOC */
 273:Middlewares/Third_Party/LwIP/src/core/memp.c **** #if MEMP_OVERFLOW_CHECK
 274:Middlewares/Third_Party/LwIP/src/core/memp.c ****     memp->file = file;
 275:Middlewares/Third_Party/LwIP/src/core/memp.c ****     memp->line = line;
 276:Middlewares/Third_Party/LwIP/src/core/memp.c **** #if MEMP_MEM_MALLOC
 277:Middlewares/Third_Party/LwIP/src/core/memp.c ****     memp_overflow_init_element(memp, desc);
 278:Middlewares/Third_Party/LwIP/src/core/memp.c **** #endif /* MEMP_MEM_MALLOC */
 279:Middlewares/Third_Party/LwIP/src/core/memp.c **** #endif /* MEMP_OVERFLOW_CHECK */
 280:Middlewares/Third_Party/LwIP/src/core/memp.c ****     LWIP_ASSERT("memp_malloc: memp properly aligned",
  45              		.loc 1 280 0
  46 000c 14F0030F 		tst	r4, #3
  47 0010 01D1     		bne	.L6
 281:Middlewares/Third_Party/LwIP/src/core/memp.c ****                 ((mem_ptr_t)memp % MEM_ALIGNMENT) == 0);
 282:Middlewares/Third_Party/LwIP/src/core/memp.c **** #if MEMP_STATS
 283:Middlewares/Third_Party/LwIP/src/core/memp.c ****     desc->stats->used++;
 284:Middlewares/Third_Party/LwIP/src/core/memp.c ****     if (desc->stats->used > desc->stats->max) {
 285:Middlewares/Third_Party/LwIP/src/core/memp.c ****       desc->stats->max = desc->stats->used;
 286:Middlewares/Third_Party/LwIP/src/core/memp.c ****     }
 287:Middlewares/Third_Party/LwIP/src/core/memp.c **** #endif
 288:Middlewares/Third_Party/LwIP/src/core/memp.c ****     SYS_ARCH_UNPROTECT(old_level);
 289:Middlewares/Third_Party/LwIP/src/core/memp.c ****     /* cast through u8_t* to get rid of alignment warnings */
 290:Middlewares/Third_Party/LwIP/src/core/memp.c ****     return ((u8_t *)memp + MEMP_SIZE);
  48              		.loc 1 290 0
  49 0012 2046     		mov	r0, r4
  50              	.LVL2:
 291:Middlewares/Third_Party/LwIP/src/core/memp.c ****   } else {
 292:Middlewares/Third_Party/LwIP/src/core/memp.c **** #if MEMP_STATS
 293:Middlewares/Third_Party/LwIP/src/core/memp.c ****     desc->stats->err++;
ARM GAS  /tmp/cchj3PFG.s 			page 7


 294:Middlewares/Third_Party/LwIP/src/core/memp.c **** #endif
 295:Middlewares/Third_Party/LwIP/src/core/memp.c ****     SYS_ARCH_UNPROTECT(old_level);
 296:Middlewares/Third_Party/LwIP/src/core/memp.c ****     LWIP_DEBUGF(MEMP_DEBUG | LWIP_DBG_LEVEL_SERIOUS, ("memp_malloc: out of memory in pool %s\n", de
 297:Middlewares/Third_Party/LwIP/src/core/memp.c ****   }
 298:Middlewares/Third_Party/LwIP/src/core/memp.c **** 
 299:Middlewares/Third_Party/LwIP/src/core/memp.c ****   return NULL;
 300:Middlewares/Third_Party/LwIP/src/core/memp.c **** }
  51              		.loc 1 300 0
  52 0014 10BD     		pop	{r4, pc}
  53              	.LVL3:
  54              	.L6:
 280:Middlewares/Third_Party/LwIP/src/core/memp.c ****                 ((mem_ptr_t)memp % MEM_ALIGNMENT) == 0);
  55              		.loc 1 280 0 discriminator 1
  56 0016 054B     		ldr	r3, .L7
  57 0018 40F21912 		movw	r2, #281
  58 001c 0449     		ldr	r1, .L7+4
  59 001e 0548     		ldr	r0, .L7+8
  60              	.LVL4:
  61 0020 FFF7FEFF 		bl	printf
  62              	.LVL5:
 290:Middlewares/Third_Party/LwIP/src/core/memp.c ****   } else {
  63              		.loc 1 290 0 discriminator 1
  64 0024 2046     		mov	r0, r4
  65 0026 10BD     		pop	{r4, pc}
  66              	.LVL6:
  67              	.L3:
 299:Middlewares/Third_Party/LwIP/src/core/memp.c **** }
  68              		.loc 1 299 0
  69 0028 0020     		movs	r0, #0
  70              	.LVL7:
  71 002a 10BD     		pop	{r4, pc}
  72              	.LVL8:
  73              	.L8:
  74              		.align	2
  75              	.L7:
  76 002c 00000000 		.word	.LC0
  77 0030 30000000 		.word	.LC1
  78 0034 54000000 		.word	.LC2
  79              		.cfi_endproc
  80              	.LFE160:
  82              		.section	.text.do_memp_free_pool,"ax",%progbits
  83              		.align	1
  84              		.syntax unified
  85              		.thumb
  86              		.thumb_func
  87              		.fpu fpv5-d16
  89              	do_memp_free_pool:
  90              	.LFB163:
 301:Middlewares/Third_Party/LwIP/src/core/memp.c **** 
 302:Middlewares/Third_Party/LwIP/src/core/memp.c **** /**
 303:Middlewares/Third_Party/LwIP/src/core/memp.c ****  * Get an element from a custom pool.
 304:Middlewares/Third_Party/LwIP/src/core/memp.c ****  *
 305:Middlewares/Third_Party/LwIP/src/core/memp.c ****  * @param desc the pool to get an element from
 306:Middlewares/Third_Party/LwIP/src/core/memp.c ****  *
 307:Middlewares/Third_Party/LwIP/src/core/memp.c ****  * @return a pointer to the allocated memory or a NULL pointer on error
 308:Middlewares/Third_Party/LwIP/src/core/memp.c ****  */
 309:Middlewares/Third_Party/LwIP/src/core/memp.c **** void *
ARM GAS  /tmp/cchj3PFG.s 			page 8


 310:Middlewares/Third_Party/LwIP/src/core/memp.c **** #if !MEMP_OVERFLOW_CHECK
 311:Middlewares/Third_Party/LwIP/src/core/memp.c **** memp_malloc_pool(const struct memp_desc *desc)
 312:Middlewares/Third_Party/LwIP/src/core/memp.c **** #else
 313:Middlewares/Third_Party/LwIP/src/core/memp.c **** memp_malloc_pool_fn(const struct memp_desc *desc, const char *file, const int line)
 314:Middlewares/Third_Party/LwIP/src/core/memp.c **** #endif
 315:Middlewares/Third_Party/LwIP/src/core/memp.c **** {
 316:Middlewares/Third_Party/LwIP/src/core/memp.c ****   LWIP_ASSERT("invalid pool desc", desc != NULL);
 317:Middlewares/Third_Party/LwIP/src/core/memp.c ****   if (desc == NULL) {
 318:Middlewares/Third_Party/LwIP/src/core/memp.c ****     return NULL;
 319:Middlewares/Third_Party/LwIP/src/core/memp.c ****   }
 320:Middlewares/Third_Party/LwIP/src/core/memp.c **** 
 321:Middlewares/Third_Party/LwIP/src/core/memp.c **** #if !MEMP_OVERFLOW_CHECK
 322:Middlewares/Third_Party/LwIP/src/core/memp.c ****   return do_memp_malloc_pool(desc);
 323:Middlewares/Third_Party/LwIP/src/core/memp.c **** #else
 324:Middlewares/Third_Party/LwIP/src/core/memp.c ****   return do_memp_malloc_pool_fn(desc, file, line);
 325:Middlewares/Third_Party/LwIP/src/core/memp.c **** #endif
 326:Middlewares/Third_Party/LwIP/src/core/memp.c **** }
 327:Middlewares/Third_Party/LwIP/src/core/memp.c **** 
 328:Middlewares/Third_Party/LwIP/src/core/memp.c **** /**
 329:Middlewares/Third_Party/LwIP/src/core/memp.c ****  * Get an element from a specific pool.
 330:Middlewares/Third_Party/LwIP/src/core/memp.c ****  *
 331:Middlewares/Third_Party/LwIP/src/core/memp.c ****  * @param type the pool to get an element from
 332:Middlewares/Third_Party/LwIP/src/core/memp.c ****  *
 333:Middlewares/Third_Party/LwIP/src/core/memp.c ****  * @return a pointer to the allocated memory or a NULL pointer on error
 334:Middlewares/Third_Party/LwIP/src/core/memp.c ****  */
 335:Middlewares/Third_Party/LwIP/src/core/memp.c **** void *
 336:Middlewares/Third_Party/LwIP/src/core/memp.c **** #if !MEMP_OVERFLOW_CHECK
 337:Middlewares/Third_Party/LwIP/src/core/memp.c **** memp_malloc(memp_t type)
 338:Middlewares/Third_Party/LwIP/src/core/memp.c **** #else
 339:Middlewares/Third_Party/LwIP/src/core/memp.c **** memp_malloc_fn(memp_t type, const char *file, const int line)
 340:Middlewares/Third_Party/LwIP/src/core/memp.c **** #endif
 341:Middlewares/Third_Party/LwIP/src/core/memp.c **** {
 342:Middlewares/Third_Party/LwIP/src/core/memp.c ****   void *memp;
 343:Middlewares/Third_Party/LwIP/src/core/memp.c ****   LWIP_ERROR("memp_malloc: type < MEMP_MAX", (type < MEMP_MAX), return NULL;);
 344:Middlewares/Third_Party/LwIP/src/core/memp.c **** 
 345:Middlewares/Third_Party/LwIP/src/core/memp.c **** #if MEMP_OVERFLOW_CHECK >= 2
 346:Middlewares/Third_Party/LwIP/src/core/memp.c ****   memp_overflow_check_all();
 347:Middlewares/Third_Party/LwIP/src/core/memp.c **** #endif /* MEMP_OVERFLOW_CHECK >= 2 */
 348:Middlewares/Third_Party/LwIP/src/core/memp.c **** 
 349:Middlewares/Third_Party/LwIP/src/core/memp.c **** #if !MEMP_OVERFLOW_CHECK
 350:Middlewares/Third_Party/LwIP/src/core/memp.c ****   memp = do_memp_malloc_pool(memp_pools[type]);
 351:Middlewares/Third_Party/LwIP/src/core/memp.c **** #else
 352:Middlewares/Third_Party/LwIP/src/core/memp.c ****   memp = do_memp_malloc_pool_fn(memp_pools[type], file, line);
 353:Middlewares/Third_Party/LwIP/src/core/memp.c **** #endif
 354:Middlewares/Third_Party/LwIP/src/core/memp.c **** 
 355:Middlewares/Third_Party/LwIP/src/core/memp.c ****   return memp;
 356:Middlewares/Third_Party/LwIP/src/core/memp.c **** }
 357:Middlewares/Third_Party/LwIP/src/core/memp.c **** 
 358:Middlewares/Third_Party/LwIP/src/core/memp.c **** static void
 359:Middlewares/Third_Party/LwIP/src/core/memp.c **** do_memp_free_pool(const struct memp_desc *desc, void *mem)
 360:Middlewares/Third_Party/LwIP/src/core/memp.c **** {
  91              		.loc 1 360 0
  92              		.cfi_startproc
  93              		@ args = 0, pretend = 0, frame = 0
  94              		@ frame_needed = 0, uses_anonymous_args = 0
  95              	.LVL9:
  96 0000 38B5     		push	{r3, r4, r5, lr}
ARM GAS  /tmp/cchj3PFG.s 			page 9


  97              	.LCFI1:
  98              		.cfi_def_cfa_offset 16
  99              		.cfi_offset 3, -16
 100              		.cfi_offset 4, -12
 101              		.cfi_offset 5, -8
 102              		.cfi_offset 14, -4
 103 0002 0546     		mov	r5, r0
 104 0004 0C46     		mov	r4, r1
 361:Middlewares/Third_Party/LwIP/src/core/memp.c ****   struct memp *memp;
 362:Middlewares/Third_Party/LwIP/src/core/memp.c ****   SYS_ARCH_DECL_PROTECT(old_level);
 363:Middlewares/Third_Party/LwIP/src/core/memp.c **** 
 364:Middlewares/Third_Party/LwIP/src/core/memp.c ****   LWIP_ASSERT("memp_free: mem properly aligned",
 105              		.loc 1 364 0
 106 0006 11F0030F 		tst	r1, #3
 107 000a 05D1     		bne	.L12
 108              	.LVL10:
 109              	.L10:
 365:Middlewares/Third_Party/LwIP/src/core/memp.c ****               ((mem_ptr_t)mem % MEM_ALIGNMENT) == 0);
 366:Middlewares/Third_Party/LwIP/src/core/memp.c **** 
 367:Middlewares/Third_Party/LwIP/src/core/memp.c ****   /* cast through void* to get rid of alignment warnings */
 368:Middlewares/Third_Party/LwIP/src/core/memp.c ****   memp = (struct memp *)(void *)((u8_t *)mem - MEMP_SIZE);
 369:Middlewares/Third_Party/LwIP/src/core/memp.c **** 
 370:Middlewares/Third_Party/LwIP/src/core/memp.c ****   SYS_ARCH_PROTECT(old_level);
 371:Middlewares/Third_Party/LwIP/src/core/memp.c **** 
 372:Middlewares/Third_Party/LwIP/src/core/memp.c **** #if MEMP_OVERFLOW_CHECK == 1
 373:Middlewares/Third_Party/LwIP/src/core/memp.c ****   memp_overflow_check_element(memp, desc);
 374:Middlewares/Third_Party/LwIP/src/core/memp.c **** #endif /* MEMP_OVERFLOW_CHECK */
 375:Middlewares/Third_Party/LwIP/src/core/memp.c **** 
 376:Middlewares/Third_Party/LwIP/src/core/memp.c **** #if MEMP_STATS
 377:Middlewares/Third_Party/LwIP/src/core/memp.c ****   desc->stats->used--;
 378:Middlewares/Third_Party/LwIP/src/core/memp.c **** #endif
 379:Middlewares/Third_Party/LwIP/src/core/memp.c **** 
 380:Middlewares/Third_Party/LwIP/src/core/memp.c **** #if MEMP_MEM_MALLOC
 381:Middlewares/Third_Party/LwIP/src/core/memp.c ****   LWIP_UNUSED_ARG(desc);
 382:Middlewares/Third_Party/LwIP/src/core/memp.c ****   SYS_ARCH_UNPROTECT(old_level);
 383:Middlewares/Third_Party/LwIP/src/core/memp.c ****   mem_free(memp);
 384:Middlewares/Third_Party/LwIP/src/core/memp.c **** #else /* MEMP_MEM_MALLOC */
 385:Middlewares/Third_Party/LwIP/src/core/memp.c ****   memp->next = *desc->tab;
 110              		.loc 1 385 0
 111 000c AB68     		ldr	r3, [r5, #8]
 112 000e 1B68     		ldr	r3, [r3]
 113 0010 2360     		str	r3, [r4]
 386:Middlewares/Third_Party/LwIP/src/core/memp.c ****   *desc->tab = memp;
 114              		.loc 1 386 0
 115 0012 AB68     		ldr	r3, [r5, #8]
 116 0014 1C60     		str	r4, [r3]
 117 0016 38BD     		pop	{r3, r4, r5, pc}
 118              	.LVL11:
 119              	.L12:
 364:Middlewares/Third_Party/LwIP/src/core/memp.c ****               ((mem_ptr_t)mem % MEM_ALIGNMENT) == 0);
 120              		.loc 1 364 0 discriminator 1
 121 0018 034B     		ldr	r3, .L13
 122 001a 40F26D12 		movw	r2, #365
 123 001e 0349     		ldr	r1, .L13+4
 124              	.LVL12:
 125 0020 0348     		ldr	r0, .L13+8
 126              	.LVL13:
ARM GAS  /tmp/cchj3PFG.s 			page 10


 127 0022 FFF7FEFF 		bl	printf
 128              	.LVL14:
 129 0026 F1E7     		b	.L10
 130              	.L14:
 131              		.align	2
 132              	.L13:
 133 0028 00000000 		.word	.LC0
 134 002c 00000000 		.word	.LC3
 135 0030 54000000 		.word	.LC2
 136              		.cfi_endproc
 137              	.LFE163:
 139              		.section	.text.memp_init_pool,"ax",%progbits
 140              		.align	1
 141              		.global	memp_init_pool
 142              		.syntax unified
 143              		.thumb
 144              		.thumb_func
 145              		.fpu fpv5-d16
 147              	memp_init_pool:
 148              	.LFB158:
 176:Middlewares/Third_Party/LwIP/src/core/memp.c **** #if MEMP_MEM_MALLOC
 149              		.loc 1 176 0
 150              		.cfi_startproc
 151              		@ args = 0, pretend = 0, frame = 0
 152              		@ frame_needed = 0, uses_anonymous_args = 0
 153              		@ link register save eliminated.
 154              	.LVL15:
 183:Middlewares/Third_Party/LwIP/src/core/memp.c ****   memp = (struct memp *)LWIP_MEM_ALIGN(desc->base);
 155              		.loc 1 183 0
 156 0000 8368     		ldr	r3, [r0, #8]
 157 0002 0022     		movs	r2, #0
 158 0004 1A60     		str	r2, [r3]
 184:Middlewares/Third_Party/LwIP/src/core/memp.c **** #if MEMP_MEM_INIT
 159              		.loc 1 184 0
 160 0006 4368     		ldr	r3, [r0, #4]
 161 0008 0333     		adds	r3, r3, #3
 162 000a 23F00303 		bic	r3, r3, #3
 163              	.LVL16:
 194:Middlewares/Third_Party/LwIP/src/core/memp.c ****     memp->next = *desc->tab;
 164              		.loc 1 194 0
 165 000e 07E0     		b	.L16
 166              	.LVL17:
 167              	.L17:
 195:Middlewares/Third_Party/LwIP/src/core/memp.c ****     *desc->tab = memp;
 168              		.loc 1 195 0 discriminator 3
 169 0010 8168     		ldr	r1, [r0, #8]
 170 0012 0968     		ldr	r1, [r1]
 171 0014 1960     		str	r1, [r3]
 196:Middlewares/Third_Party/LwIP/src/core/memp.c **** #if MEMP_OVERFLOW_CHECK
 172              		.loc 1 196 0 discriminator 3
 173 0016 8168     		ldr	r1, [r0, #8]
 174 0018 0B60     		str	r3, [r1]
 201:Middlewares/Third_Party/LwIP/src/core/memp.c **** #if MEMP_OVERFLOW_CHECK
 175              		.loc 1 201 0 discriminator 3
 176 001a 0188     		ldrh	r1, [r0]
 177 001c 0B44     		add	r3, r3, r1
 178              	.LVL18:
ARM GAS  /tmp/cchj3PFG.s 			page 11


 194:Middlewares/Third_Party/LwIP/src/core/memp.c ****     memp->next = *desc->tab;
 179              		.loc 1 194 0 discriminator 3
 180 001e 0132     		adds	r2, r2, #1
 181              	.LVL19:
 182              	.L16:
 194:Middlewares/Third_Party/LwIP/src/core/memp.c ****     memp->next = *desc->tab;
 183              		.loc 1 194 0 is_stmt 0 discriminator 1
 184 0020 4188     		ldrh	r1, [r0, #2]
 185 0022 8A42     		cmp	r2, r1
 186 0024 F4DB     		blt	.L17
 215:Middlewares/Third_Party/LwIP/src/core/memp.c **** 
 187              		.loc 1 215 0 is_stmt 1
 188 0026 7047     		bx	lr
 189              		.cfi_endproc
 190              	.LFE158:
 192              		.section	.text.memp_init,"ax",%progbits
 193              		.align	1
 194              		.global	memp_init
 195              		.syntax unified
 196              		.thumb
 197              		.thumb_func
 198              		.fpu fpv5-d16
 200              	memp_init:
 201              	.LFB159:
 225:Middlewares/Third_Party/LwIP/src/core/memp.c ****   u16_t i;
 202              		.loc 1 225 0
 203              		.cfi_startproc
 204              		@ args = 0, pretend = 0, frame = 0
 205              		@ frame_needed = 0, uses_anonymous_args = 0
 206 0000 10B5     		push	{r4, lr}
 207              	.LCFI2:
 208              		.cfi_def_cfa_offset 8
 209              		.cfi_offset 4, -8
 210              		.cfi_offset 14, -4
 211              	.LVL20:
 229:Middlewares/Third_Party/LwIP/src/core/memp.c ****     memp_init_pool(memp_pools[i]);
 212              		.loc 1 229 0
 213 0002 0024     		movs	r4, #0
 214 0004 06E0     		b	.L19
 215              	.LVL21:
 216              	.L20:
 230:Middlewares/Third_Party/LwIP/src/core/memp.c **** 
 217              		.loc 1 230 0 discriminator 3
 218 0006 054B     		ldr	r3, .L22
 219 0008 53F82400 		ldr	r0, [r3, r4, lsl #2]
 220 000c FFF7FEFF 		bl	memp_init_pool
 221              	.LVL22:
 229:Middlewares/Third_Party/LwIP/src/core/memp.c ****     memp_init_pool(memp_pools[i]);
 222              		.loc 1 229 0 discriminator 3
 223 0010 0134     		adds	r4, r4, #1
 224              	.LVL23:
 225 0012 A4B2     		uxth	r4, r4
 226              	.LVL24:
 227              	.L19:
 229:Middlewares/Third_Party/LwIP/src/core/memp.c ****     memp_init_pool(memp_pools[i]);
 228              		.loc 1 229 0 is_stmt 0 discriminator 1
 229 0014 082C     		cmp	r4, #8
ARM GAS  /tmp/cchj3PFG.s 			page 12


 230 0016 F6D9     		bls	.L20
 241:Middlewares/Third_Party/LwIP/src/core/memp.c **** 
 231              		.loc 1 241 0 is_stmt 1
 232 0018 10BD     		pop	{r4, pc}
 233              	.LVL25:
 234              	.L23:
 235 001a 00BF     		.align	2
 236              	.L22:
 237 001c 00000000 		.word	.LANCHOR0
 238              		.cfi_endproc
 239              	.LFE159:
 241              		.section	.text.memp_malloc_pool,"ax",%progbits
 242              		.align	1
 243              		.global	memp_malloc_pool
 244              		.syntax unified
 245              		.thumb
 246              		.thumb_func
 247              		.fpu fpv5-d16
 249              	memp_malloc_pool:
 250              	.LFB161:
 315:Middlewares/Third_Party/LwIP/src/core/memp.c ****   LWIP_ASSERT("invalid pool desc", desc != NULL);
 251              		.loc 1 315 0
 252              		.cfi_startproc
 253              		@ args = 0, pretend = 0, frame = 0
 254              		@ frame_needed = 0, uses_anonymous_args = 0
 255              	.LVL26:
 256 0000 10B5     		push	{r4, lr}
 257              	.LCFI3:
 258              		.cfi_def_cfa_offset 8
 259              		.cfi_offset 4, -8
 260              		.cfi_offset 14, -4
 316:Middlewares/Third_Party/LwIP/src/core/memp.c ****   if (desc == NULL) {
 261              		.loc 1 316 0
 262 0002 0446     		mov	r4, r0
 263 0004 20B1     		cbz	r0, .L29
 264              	.LVL27:
 265              	.L25:
 317:Middlewares/Third_Party/LwIP/src/core/memp.c ****     return NULL;
 266              		.loc 1 317 0
 267 0006 5CB1     		cbz	r4, .L27
 322:Middlewares/Third_Party/LwIP/src/core/memp.c **** #else
 268              		.loc 1 322 0
 269 0008 2046     		mov	r0, r4
 270 000a FFF7FEFF 		bl	do_memp_malloc_pool
 271              	.LVL28:
 272 000e 10BD     		pop	{r4, pc}
 273              	.LVL29:
 274              	.L29:
 316:Middlewares/Third_Party/LwIP/src/core/memp.c ****   if (desc == NULL) {
 275              		.loc 1 316 0 discriminator 1
 276 0010 044B     		ldr	r3, .L30
 277 0012 4FF49E72 		mov	r2, #316
 278 0016 0449     		ldr	r1, .L30+4
 279 0018 0448     		ldr	r0, .L30+8
 280              	.LVL30:
 281 001a FFF7FEFF 		bl	printf
 282              	.LVL31:
ARM GAS  /tmp/cchj3PFG.s 			page 13


 283 001e F2E7     		b	.L25
 284              	.L27:
 318:Middlewares/Third_Party/LwIP/src/core/memp.c ****   }
 285              		.loc 1 318 0
 286 0020 0020     		movs	r0, #0
 326:Middlewares/Third_Party/LwIP/src/core/memp.c **** 
 287              		.loc 1 326 0
 288 0022 10BD     		pop	{r4, pc}
 289              	.LVL32:
 290              	.L31:
 291              		.align	2
 292              	.L30:
 293 0024 00000000 		.word	.LC0
 294 0028 00000000 		.word	.LC4
 295 002c 54000000 		.word	.LC2
 296              		.cfi_endproc
 297              	.LFE161:
 299              		.section	.text.memp_malloc,"ax",%progbits
 300              		.align	1
 301              		.global	memp_malloc
 302              		.syntax unified
 303              		.thumb
 304              		.thumb_func
 305              		.fpu fpv5-d16
 307              	memp_malloc:
 308              	.LFB162:
 341:Middlewares/Third_Party/LwIP/src/core/memp.c ****   void *memp;
 309              		.loc 1 341 0
 310              		.cfi_startproc
 311              		@ args = 0, pretend = 0, frame = 0
 312              		@ frame_needed = 0, uses_anonymous_args = 0
 313              	.LVL33:
 314 0000 08B5     		push	{r3, lr}
 315              	.LCFI4:
 316              		.cfi_def_cfa_offset 8
 317              		.cfi_offset 3, -8
 318              		.cfi_offset 14, -4
 343:Middlewares/Third_Party/LwIP/src/core/memp.c **** 
 319              		.loc 1 343 0
 320 0002 0828     		cmp	r0, #8
 321 0004 05D8     		bhi	.L36
 350:Middlewares/Third_Party/LwIP/src/core/memp.c **** #else
 322              		.loc 1 350 0
 323 0006 074B     		ldr	r3, .L37
 324 0008 53F82000 		ldr	r0, [r3, r0, lsl #2]
 325              	.LVL34:
 326 000c FFF7FEFF 		bl	do_memp_malloc_pool
 327              	.LVL35:
 356:Middlewares/Third_Party/LwIP/src/core/memp.c **** 
 328              		.loc 1 356 0
 329 0010 08BD     		pop	{r3, pc}
 330              	.LVL36:
 331              	.L36:
 343:Middlewares/Third_Party/LwIP/src/core/memp.c **** 
 332              		.loc 1 343 0 discriminator 1
 333 0012 054B     		ldr	r3, .L37+4
 334 0014 40F25712 		movw	r2, #343
ARM GAS  /tmp/cchj3PFG.s 			page 14


 335 0018 0449     		ldr	r1, .L37+8
 336 001a 0548     		ldr	r0, .L37+12
 337              	.LVL37:
 338 001c FFF7FEFF 		bl	printf
 339              	.LVL38:
 340 0020 0020     		movs	r0, #0
 341 0022 08BD     		pop	{r3, pc}
 342              	.L38:
 343              		.align	2
 344              	.L37:
 345 0024 00000000 		.word	.LANCHOR0
 346 0028 00000000 		.word	.LC0
 347 002c 00000000 		.word	.LC5
 348 0030 54000000 		.word	.LC2
 349              		.cfi_endproc
 350              	.LFE162:
 352              		.section	.text.memp_free_pool,"ax",%progbits
 353              		.align	1
 354              		.global	memp_free_pool
 355              		.syntax unified
 356              		.thumb
 357              		.thumb_func
 358              		.fpu fpv5-d16
 360              	memp_free_pool:
 361              	.LFB164:
 387:Middlewares/Third_Party/LwIP/src/core/memp.c **** 
 388:Middlewares/Third_Party/LwIP/src/core/memp.c **** #if MEMP_SANITY_CHECK
 389:Middlewares/Third_Party/LwIP/src/core/memp.c ****   LWIP_ASSERT("memp sanity", memp_sanity(desc));
 390:Middlewares/Third_Party/LwIP/src/core/memp.c **** #endif /* MEMP_SANITY_CHECK */
 391:Middlewares/Third_Party/LwIP/src/core/memp.c **** 
 392:Middlewares/Third_Party/LwIP/src/core/memp.c ****   SYS_ARCH_UNPROTECT(old_level);
 393:Middlewares/Third_Party/LwIP/src/core/memp.c **** #endif /* !MEMP_MEM_MALLOC */
 394:Middlewares/Third_Party/LwIP/src/core/memp.c **** }
 395:Middlewares/Third_Party/LwIP/src/core/memp.c **** 
 396:Middlewares/Third_Party/LwIP/src/core/memp.c **** /**
 397:Middlewares/Third_Party/LwIP/src/core/memp.c ****  * Put a custom pool element back into its pool.
 398:Middlewares/Third_Party/LwIP/src/core/memp.c ****  *
 399:Middlewares/Third_Party/LwIP/src/core/memp.c ****  * @param desc the pool where to put mem
 400:Middlewares/Third_Party/LwIP/src/core/memp.c ****  * @param mem the memp element to free
 401:Middlewares/Third_Party/LwIP/src/core/memp.c ****  */
 402:Middlewares/Third_Party/LwIP/src/core/memp.c **** void
 403:Middlewares/Third_Party/LwIP/src/core/memp.c **** memp_free_pool(const struct memp_desc *desc, void *mem)
 404:Middlewares/Third_Party/LwIP/src/core/memp.c **** {
 362              		.loc 1 404 0
 363              		.cfi_startproc
 364              		@ args = 0, pretend = 0, frame = 0
 365              		@ frame_needed = 0, uses_anonymous_args = 0
 366              	.LVL39:
 367 0000 38B5     		push	{r3, r4, r5, lr}
 368              	.LCFI5:
 369              		.cfi_def_cfa_offset 16
 370              		.cfi_offset 3, -16
 371              		.cfi_offset 4, -12
 372              		.cfi_offset 5, -8
 373              		.cfi_offset 14, -4
 374 0002 0D46     		mov	r5, r1
 405:Middlewares/Third_Party/LwIP/src/core/memp.c ****   LWIP_ASSERT("invalid pool desc", desc != NULL);
ARM GAS  /tmp/cchj3PFG.s 			page 15


 375              		.loc 1 405 0
 376 0004 0446     		mov	r4, r0
 377 0006 20B1     		cbz	r0, .L43
 378              	.LVL40:
 379              	.L40:
 406:Middlewares/Third_Party/LwIP/src/core/memp.c ****   if ((desc == NULL) || (mem == NULL)) {
 380              		.loc 1 406 0
 381 0008 002D     		cmp	r5, #0
 382 000a 18BF     		it	ne
 383 000c 002C     		cmpne	r4, #0
 384 000e 08D1     		bne	.L44
 385              	.L39:
 386 0010 38BD     		pop	{r3, r4, r5, pc}
 387              	.LVL41:
 388              	.L43:
 405:Middlewares/Third_Party/LwIP/src/core/memp.c ****   LWIP_ASSERT("invalid pool desc", desc != NULL);
 389              		.loc 1 405 0 discriminator 1
 390 0012 064B     		ldr	r3, .L45
 391 0014 40F29512 		movw	r2, #405
 392 0018 0549     		ldr	r1, .L45+4
 393              	.LVL42:
 394 001a 0648     		ldr	r0, .L45+8
 395              	.LVL43:
 396 001c FFF7FEFF 		bl	printf
 397              	.LVL44:
 398 0020 F2E7     		b	.L40
 399              	.L44:
 407:Middlewares/Third_Party/LwIP/src/core/memp.c ****     return;
 408:Middlewares/Third_Party/LwIP/src/core/memp.c ****   }
 409:Middlewares/Third_Party/LwIP/src/core/memp.c **** 
 410:Middlewares/Third_Party/LwIP/src/core/memp.c ****   do_memp_free_pool(desc, mem);
 400              		.loc 1 410 0
 401 0022 2946     		mov	r1, r5
 402 0024 2046     		mov	r0, r4
 403 0026 FFF7FEFF 		bl	do_memp_free_pool
 404              	.LVL45:
 405 002a F1E7     		b	.L39
 406              	.L46:
 407              		.align	2
 408              	.L45:
 409 002c 00000000 		.word	.LC0
 410 0030 00000000 		.word	.LC4
 411 0034 54000000 		.word	.LC2
 412              		.cfi_endproc
 413              	.LFE164:
 415              		.section	.text.memp_free,"ax",%progbits
 416              		.align	1
 417              		.global	memp_free
 418              		.syntax unified
 419              		.thumb
 420              		.thumb_func
 421              		.fpu fpv5-d16
 423              	memp_free:
 424              	.LFB165:
 411:Middlewares/Third_Party/LwIP/src/core/memp.c **** }
 412:Middlewares/Third_Party/LwIP/src/core/memp.c **** 
 413:Middlewares/Third_Party/LwIP/src/core/memp.c **** /**
ARM GAS  /tmp/cchj3PFG.s 			page 16


 414:Middlewares/Third_Party/LwIP/src/core/memp.c ****  * Put an element back into its pool.
 415:Middlewares/Third_Party/LwIP/src/core/memp.c ****  *
 416:Middlewares/Third_Party/LwIP/src/core/memp.c ****  * @param type the pool where to put mem
 417:Middlewares/Third_Party/LwIP/src/core/memp.c ****  * @param mem the memp element to free
 418:Middlewares/Third_Party/LwIP/src/core/memp.c ****  */
 419:Middlewares/Third_Party/LwIP/src/core/memp.c **** void
 420:Middlewares/Third_Party/LwIP/src/core/memp.c **** memp_free(memp_t type, void *mem)
 421:Middlewares/Third_Party/LwIP/src/core/memp.c **** {
 425              		.loc 1 421 0
 426              		.cfi_startproc
 427              		@ args = 0, pretend = 0, frame = 0
 428              		@ frame_needed = 0, uses_anonymous_args = 0
 429              	.LVL46:
 430 0000 08B5     		push	{r3, lr}
 431              	.LCFI6:
 432              		.cfi_def_cfa_offset 8
 433              		.cfi_offset 3, -8
 434              		.cfi_offset 14, -4
 422:Middlewares/Third_Party/LwIP/src/core/memp.c **** #ifdef LWIP_HOOK_MEMP_AVAILABLE
 423:Middlewares/Third_Party/LwIP/src/core/memp.c ****   struct memp *old_first;
 424:Middlewares/Third_Party/LwIP/src/core/memp.c **** #endif
 425:Middlewares/Third_Party/LwIP/src/core/memp.c **** 
 426:Middlewares/Third_Party/LwIP/src/core/memp.c ****   LWIP_ERROR("memp_free: type < MEMP_MAX", (type < MEMP_MAX), return;);
 435              		.loc 1 426 0
 436 0002 0828     		cmp	r0, #8
 437 0004 06D8     		bhi	.L51
 427:Middlewares/Third_Party/LwIP/src/core/memp.c **** 
 428:Middlewares/Third_Party/LwIP/src/core/memp.c ****   if (mem == NULL) {
 438              		.loc 1 428 0
 439 0006 21B1     		cbz	r1, .L47
 429:Middlewares/Third_Party/LwIP/src/core/memp.c ****     return;
 430:Middlewares/Third_Party/LwIP/src/core/memp.c ****   }
 431:Middlewares/Third_Party/LwIP/src/core/memp.c **** 
 432:Middlewares/Third_Party/LwIP/src/core/memp.c **** #if MEMP_OVERFLOW_CHECK >= 2
 433:Middlewares/Third_Party/LwIP/src/core/memp.c ****   memp_overflow_check_all();
 434:Middlewares/Third_Party/LwIP/src/core/memp.c **** #endif /* MEMP_OVERFLOW_CHECK >= 2 */
 435:Middlewares/Third_Party/LwIP/src/core/memp.c **** 
 436:Middlewares/Third_Party/LwIP/src/core/memp.c **** #ifdef LWIP_HOOK_MEMP_AVAILABLE
 437:Middlewares/Third_Party/LwIP/src/core/memp.c ****   old_first = *memp_pools[type]->tab;
 438:Middlewares/Third_Party/LwIP/src/core/memp.c **** #endif
 439:Middlewares/Third_Party/LwIP/src/core/memp.c **** 
 440:Middlewares/Third_Party/LwIP/src/core/memp.c ****   do_memp_free_pool(memp_pools[type], mem);
 440              		.loc 1 440 0
 441 0008 064B     		ldr	r3, .L52
 442 000a 53F82000 		ldr	r0, [r3, r0, lsl #2]
 443              	.LVL47:
 444 000e FFF7FEFF 		bl	do_memp_free_pool
 445              	.LVL48:
 446              	.L47:
 447 0012 08BD     		pop	{r3, pc}
 448              	.LVL49:
 449              	.L51:
 426:Middlewares/Third_Party/LwIP/src/core/memp.c **** 
 450              		.loc 1 426 0 discriminator 1
 451 0014 044B     		ldr	r3, .L52+4
 452 0016 4FF4D572 		mov	r2, #426
 453 001a 0449     		ldr	r1, .L52+8
ARM GAS  /tmp/cchj3PFG.s 			page 17


 454              	.LVL50:
 455 001c 0448     		ldr	r0, .L52+12
 456              	.LVL51:
 457 001e FFF7FEFF 		bl	printf
 458              	.LVL52:
 459 0022 08BD     		pop	{r3, pc}
 460              	.L53:
 461              		.align	2
 462              	.L52:
 463 0024 00000000 		.word	.LANCHOR0
 464 0028 00000000 		.word	.LC0
 465 002c 00000000 		.word	.LC6
 466 0030 54000000 		.word	.LC2
 467              		.cfi_endproc
 468              	.LFE165:
 470              		.global	memp_pools
 471              		.global	memp_PBUF_POOL
 472              		.comm	memp_memory_PBUF_POOL_base,9731,4
 473              		.global	memp_PBUF
 474              		.comm	memp_memory_PBUF_base,259,4
 475              		.global	memp_SYS_TIMEOUT
 476              		.comm	memp_memory_SYS_TIMEOUT_base,83,4
 477              		.global	memp_FRAG_PBUF
 478              		.comm	memp_memory_FRAG_PBUF_base,363,4
 479              		.global	memp_REASSDATA
 480              		.comm	memp_memory_REASSDATA_base,163,4
 481              		.global	memp_TCP_SEG
 482              		.comm	memp_memory_TCP_SEG_base,259,4
 483              		.global	memp_TCP_PCB_LISTEN
 484              		.comm	memp_memory_TCP_PCB_LISTEN_base,227,4
 485              		.global	memp_TCP_PCB
 486              		.comm	memp_memory_TCP_PCB_base,783,4
 487              		.global	memp_UDP_PCB
 488              		.comm	memp_memory_UDP_PCB_base,131,4
 489              		.section	.bss.memp_tab_FRAG_PBUF,"aw",%nobits
 490              		.align	2
 493              	memp_tab_FRAG_PBUF:
 494 0000 00000000 		.space	4
 495              		.section	.bss.memp_tab_PBUF,"aw",%nobits
 496              		.align	2
 499              	memp_tab_PBUF:
 500 0000 00000000 		.space	4
 501              		.section	.bss.memp_tab_PBUF_POOL,"aw",%nobits
 502              		.align	2
 505              	memp_tab_PBUF_POOL:
 506 0000 00000000 		.space	4
 507              		.section	.bss.memp_tab_REASSDATA,"aw",%nobits
 508              		.align	2
 511              	memp_tab_REASSDATA:
 512 0000 00000000 		.space	4
 513              		.section	.bss.memp_tab_SYS_TIMEOUT,"aw",%nobits
 514              		.align	2
 517              	memp_tab_SYS_TIMEOUT:
 518 0000 00000000 		.space	4
 519              		.section	.bss.memp_tab_TCP_PCB,"aw",%nobits
 520              		.align	2
 523              	memp_tab_TCP_PCB:
ARM GAS  /tmp/cchj3PFG.s 			page 18


 524 0000 00000000 		.space	4
 525              		.section	.bss.memp_tab_TCP_PCB_LISTEN,"aw",%nobits
 526              		.align	2
 529              	memp_tab_TCP_PCB_LISTEN:
 530 0000 00000000 		.space	4
 531              		.section	.bss.memp_tab_TCP_SEG,"aw",%nobits
 532              		.align	2
 535              	memp_tab_TCP_SEG:
 536 0000 00000000 		.space	4
 537              		.section	.bss.memp_tab_UDP_PCB,"aw",%nobits
 538              		.align	2
 541              	memp_tab_UDP_PCB:
 542 0000 00000000 		.space	4
 543              		.section	.rodata.do_memp_free_pool.str1.4,"aMS",%progbits,1
 544              		.align	2
 545              	.LC3:
 546 0000 6D656D70 		.ascii	"memp_free: mem properly aligned\000"
 546      5F667265 
 546      653A206D 
 546      656D2070 
 546      726F7065 
 547              		.section	.rodata.do_memp_malloc_pool.str1.4,"aMS",%progbits,1
 548              		.align	2
 549              	.LC0:
 550 0000 4D696464 		.ascii	"Middlewares/Third_Party/LwIP/src/core/memp.c\000"
 550      6C657761 
 550      7265732F 
 550      54686972 
 550      645F5061 
 551 002d 000000   		.space	3
 552              	.LC1:
 553 0030 6D656D70 		.ascii	"memp_malloc: memp properly aligned\000"
 553      5F6D616C 
 553      6C6F633A 
 553      206D656D 
 553      70207072 
 554 0053 00       		.space	1
 555              	.LC2:
 556 0054 41737365 		.ascii	"Assertion \"%s\" failed at line %d in %s\012\000"
 556      7274696F 
 556      6E202225 
 556      73222066 
 556      61696C65 
 557              		.section	.rodata.memp_FRAG_PBUF,"a",%progbits
 558              		.align	2
 561              	memp_FRAG_PBUF:
 562 0000 1800     		.short	24
 563 0002 0F00     		.short	15
 564 0004 00000000 		.word	memp_memory_FRAG_PBUF_base
 565 0008 00000000 		.word	memp_tab_FRAG_PBUF
 566              		.section	.rodata.memp_PBUF,"a",%progbits
 567              		.align	2
 570              	memp_PBUF:
 571 0000 1000     		.short	16
 572 0002 1000     		.short	16
 573 0004 00000000 		.word	memp_memory_PBUF_base
 574 0008 00000000 		.word	memp_tab_PBUF
ARM GAS  /tmp/cchj3PFG.s 			page 19


 575              		.section	.rodata.memp_PBUF_POOL,"a",%progbits
 576              		.align	2
 579              	memp_PBUF_POOL:
 580 0000 6002     		.short	608
 581 0002 1000     		.short	16
 582 0004 00000000 		.word	memp_memory_PBUF_POOL_base
 583 0008 00000000 		.word	memp_tab_PBUF_POOL
 584              		.section	.rodata.memp_REASSDATA,"a",%progbits
 585              		.align	2
 588              	memp_REASSDATA:
 589 0000 2000     		.short	32
 590 0002 0500     		.short	5
 591 0004 00000000 		.word	memp_memory_REASSDATA_base
 592 0008 00000000 		.word	memp_tab_REASSDATA
 593              		.section	.rodata.memp_SYS_TIMEOUT,"a",%progbits
 594              		.align	2
 597              	memp_SYS_TIMEOUT:
 598 0000 1000     		.short	16
 599 0002 0500     		.short	5
 600 0004 00000000 		.word	memp_memory_SYS_TIMEOUT_base
 601 0008 00000000 		.word	memp_tab_SYS_TIMEOUT
 602              		.section	.rodata.memp_TCP_PCB,"a",%progbits
 603              		.align	2
 606              	memp_TCP_PCB:
 607 0000 9C00     		.short	156
 608 0002 0500     		.short	5
 609 0004 00000000 		.word	memp_memory_TCP_PCB_base
 610 0008 00000000 		.word	memp_tab_TCP_PCB
 611              		.section	.rodata.memp_TCP_PCB_LISTEN,"a",%progbits
 612              		.align	2
 615              	memp_TCP_PCB_LISTEN:
 616 0000 1C00     		.short	28
 617 0002 0800     		.short	8
 618 0004 00000000 		.word	memp_memory_TCP_PCB_LISTEN_base
 619 0008 00000000 		.word	memp_tab_TCP_PCB_LISTEN
 620              		.section	.rodata.memp_TCP_SEG,"a",%progbits
 621              		.align	2
 624              	memp_TCP_SEG:
 625 0000 1000     		.short	16
 626 0002 1000     		.short	16
 627 0004 00000000 		.word	memp_memory_TCP_SEG_base
 628 0008 00000000 		.word	memp_tab_TCP_SEG
 629              		.section	.rodata.memp_UDP_PCB,"a",%progbits
 630              		.align	2
 633              	memp_UDP_PCB:
 634 0000 2000     		.short	32
 635 0002 0400     		.short	4
 636 0004 00000000 		.word	memp_memory_UDP_PCB_base
 637 0008 00000000 		.word	memp_tab_UDP_PCB
 638              		.section	.rodata.memp_free.str1.4,"aMS",%progbits,1
 639              		.align	2
 640              	.LC6:
 641 0000 6D656D70 		.ascii	"memp_free: type < MEMP_MAX\000"
 641      5F667265 
 641      653A2074 
 641      79706520 
 641      3C204D45 
ARM GAS  /tmp/cchj3PFG.s 			page 20


 642              		.section	.rodata.memp_malloc.str1.4,"aMS",%progbits,1
 643              		.align	2
 644              	.LC5:
 645 0000 6D656D70 		.ascii	"memp_malloc: type < MEMP_MAX\000"
 645      5F6D616C 
 645      6C6F633A 
 645      20747970 
 645      65203C20 
 646              		.section	.rodata.memp_malloc_pool.str1.4,"aMS",%progbits,1
 647              		.align	2
 648              	.LC4:
 649 0000 696E7661 		.ascii	"invalid pool desc\000"
 649      6C696420 
 649      706F6F6C 
 649      20646573 
 649      6300
 650              		.section	.rodata.memp_pools,"a",%progbits
 651              		.align	2
 652              		.set	.LANCHOR0,. + 0
 655              	memp_pools:
 656 0000 00000000 		.word	memp_UDP_PCB
 657 0004 00000000 		.word	memp_TCP_PCB
 658 0008 00000000 		.word	memp_TCP_PCB_LISTEN
 659 000c 00000000 		.word	memp_TCP_SEG
 660 0010 00000000 		.word	memp_REASSDATA
 661 0014 00000000 		.word	memp_FRAG_PBUF
 662 0018 00000000 		.word	memp_SYS_TIMEOUT
 663 001c 00000000 		.word	memp_PBUF
 664 0020 00000000 		.word	memp_PBUF_POOL
 665              		.text
 666              	.Letext0:
 667              		.file 2 "/usr/include/newlib/machine/_default_types.h"
 668              		.file 3 "/usr/include/newlib/sys/_stdint.h"
 669              		.file 4 "Drivers/CMSIS/Include/core_cm7.h"
 670              		.file 5 "Drivers/CMSIS/Device/ST/STM32F7xx/Include/system_stm32f7xx.h"
 671              		.file 6 "Drivers/STM32F7xx_HAL_Driver/Inc/stm32f7xx_hal.h"
 672              		.file 7 "/usr/include/newlib/sys/lock.h"
 673              		.file 8 "/usr/include/newlib/sys/_types.h"
 674              		.file 9 "/usr/lib/gcc/arm-none-eabi/6.3.1/include/stddef.h"
 675              		.file 10 "/usr/include/newlib/sys/reent.h"
 676              		.file 11 "/usr/include/newlib/stdlib.h"
 677              		.file 12 "/usr/include/newlib/time.h"
 678              		.file 13 "Middlewares/Third_Party/LwIP/src/include/lwip/arch.h"
 679              		.file 14 "/usr/include/newlib/ctype.h"
 680              		.file 15 "Middlewares/Third_Party/LwIP/src/include/lwip/memp.h"
 681              		.file 16 "Middlewares/Third_Party/LwIP/src/include/lwip/priv/memp_priv.h"
 682              		.file 17 "Middlewares/Third_Party/LwIP/src/include/lwip/err.h"
 683              		.file 18 "Middlewares/Third_Party/LwIP/src/include/lwip/pbuf.h"
 684              		.file 19 "Middlewares/Third_Party/LwIP/src/include/lwip/ip4_addr.h"
 685              		.file 20 "Middlewares/Third_Party/LwIP/src/include/lwip/ip_addr.h"
 686              		.file 21 "Middlewares/Third_Party/LwIP/src/include/lwip/netif.h"
 687              		.file 22 "Middlewares/Third_Party/LwIP/src/include/lwip/prot/ip4.h"
 688              		.file 23 "Middlewares/Third_Party/LwIP/src/include/lwip/ip.h"
 689              		.file 24 "Middlewares/Third_Party/LwIP/src/include/lwip/udp.h"
 690              		.file 25 "Middlewares/Third_Party/LwIP/src/include/lwip/tcpbase.h"
 691              		.file 26 "Middlewares/Third_Party/LwIP/src/include/lwip/tcp.h"
 692              		.file 27 "Middlewares/Third_Party/LwIP/src/include/lwip/priv/tcp_priv.h"
ARM GAS  /tmp/cchj3PFG.s 			page 21


 693              		.file 28 "Middlewares/Third_Party/LwIP/src/include/lwip/prot/tcp.h"
 694              		.file 29 "Middlewares/Third_Party/LwIP/src/include/lwip/timeouts.h"
 695              		.file 30 "Middlewares/Third_Party/LwIP/src/include/lwip/priv/memp_std.h"
 696              		.file 31 "/usr/include/newlib/stdio.h"
ARM GAS  /tmp/cchj3PFG.s 			page 22

