ARM GAS  /tmp/cc4OTmQk.s 			page 1


   1              		.cpu cortex-m7
   2              		.eabi_attribute 28, 1
   3              		.eabi_attribute 20, 1
   4              		.eabi_attribute 21, 1
   5              		.eabi_attribute 23, 3
   6              		.eabi_attribute 24, 1
   7              		.eabi_attribute 25, 1
   8              		.eabi_attribute 26, 1
   9              		.eabi_attribute 30, 1
  10              		.eabi_attribute 34, 1
  11              		.eabi_attribute 18, 4
  12              		.file	"stm32f7xx_hal_rcc.c"
  13              		.text
  14              	.Ltext0:
  15              		.cfi_sections	.debug_frame
  16              		.section	.text.HAL_RCC_DeInit,"ax",%progbits
  17              		.align	1
  18              		.global	HAL_RCC_DeInit
  19              		.syntax unified
  20              		.thumb
  21              		.thumb_func
  22              		.fpu fpv5-d16
  24              	HAL_RCC_DeInit:
  25              	.LFB141:
  26              		.file 1 "Drivers/STM32F7xx_HAL_Driver/Src/stm32f7xx_hal_rcc.c"
   1:Drivers/STM32F7xx_HAL_Driver/Src/stm32f7xx_hal_rcc.c **** /**
   2:Drivers/STM32F7xx_HAL_Driver/Src/stm32f7xx_hal_rcc.c ****   ******************************************************************************
   3:Drivers/STM32F7xx_HAL_Driver/Src/stm32f7xx_hal_rcc.c ****   * @file    stm32f7xx_hal_rcc.c
   4:Drivers/STM32F7xx_HAL_Driver/Src/stm32f7xx_hal_rcc.c ****   * @author  MCD Application Team
   5:Drivers/STM32F7xx_HAL_Driver/Src/stm32f7xx_hal_rcc.c ****   * @brief   RCC HAL module driver.
   6:Drivers/STM32F7xx_HAL_Driver/Src/stm32f7xx_hal_rcc.c ****   *          This file provides firmware functions to manage the following
   7:Drivers/STM32F7xx_HAL_Driver/Src/stm32f7xx_hal_rcc.c ****   *          functionalities of the Reset and Clock Control (RCC) peripheral:
   8:Drivers/STM32F7xx_HAL_Driver/Src/stm32f7xx_hal_rcc.c ****   *           + Initialization and de-initialization functions
   9:Drivers/STM32F7xx_HAL_Driver/Src/stm32f7xx_hal_rcc.c ****   *           + Peripheral Control functions
  10:Drivers/STM32F7xx_HAL_Driver/Src/stm32f7xx_hal_rcc.c ****   *
  11:Drivers/STM32F7xx_HAL_Driver/Src/stm32f7xx_hal_rcc.c ****   @verbatim
  12:Drivers/STM32F7xx_HAL_Driver/Src/stm32f7xx_hal_rcc.c ****   ==============================================================================
  13:Drivers/STM32F7xx_HAL_Driver/Src/stm32f7xx_hal_rcc.c ****                       ##### RCC specific features #####
  14:Drivers/STM32F7xx_HAL_Driver/Src/stm32f7xx_hal_rcc.c ****   ==============================================================================
  15:Drivers/STM32F7xx_HAL_Driver/Src/stm32f7xx_hal_rcc.c ****     [..]
  16:Drivers/STM32F7xx_HAL_Driver/Src/stm32f7xx_hal_rcc.c ****       After reset the device is running from Internal High Speed oscillator
  17:Drivers/STM32F7xx_HAL_Driver/Src/stm32f7xx_hal_rcc.c ****       (HSI 16MHz) with Flash 0 wait state, Flash prefetch buffer, D-Cache
  18:Drivers/STM32F7xx_HAL_Driver/Src/stm32f7xx_hal_rcc.c ****       and I-Cache are disabled, and all peripherals are off except internal
  19:Drivers/STM32F7xx_HAL_Driver/Src/stm32f7xx_hal_rcc.c ****       SRAM, Flash and JTAG.
  20:Drivers/STM32F7xx_HAL_Driver/Src/stm32f7xx_hal_rcc.c ****       (+) There is no prescaler on High speed (AHB) and Low speed (APB) buses;
  21:Drivers/STM32F7xx_HAL_Driver/Src/stm32f7xx_hal_rcc.c ****           all peripherals mapped on these buses are running at HSI speed.
  22:Drivers/STM32F7xx_HAL_Driver/Src/stm32f7xx_hal_rcc.c ****       (+) The clock for all peripherals is switched off, except the SRAM and FLASH.
  23:Drivers/STM32F7xx_HAL_Driver/Src/stm32f7xx_hal_rcc.c ****       (+) All GPIOs are in input floating state, except the JTAG pins which
  24:Drivers/STM32F7xx_HAL_Driver/Src/stm32f7xx_hal_rcc.c ****           are assigned to be used for debug purpose.
  25:Drivers/STM32F7xx_HAL_Driver/Src/stm32f7xx_hal_rcc.c **** 
  26:Drivers/STM32F7xx_HAL_Driver/Src/stm32f7xx_hal_rcc.c ****     [..]
  27:Drivers/STM32F7xx_HAL_Driver/Src/stm32f7xx_hal_rcc.c ****       Once the device started from reset, the user application has to:
  28:Drivers/STM32F7xx_HAL_Driver/Src/stm32f7xx_hal_rcc.c ****       (+) Configure the clock source to be used to drive the System clock
  29:Drivers/STM32F7xx_HAL_Driver/Src/stm32f7xx_hal_rcc.c ****           (if the application needs higher frequency/performance)
  30:Drivers/STM32F7xx_HAL_Driver/Src/stm32f7xx_hal_rcc.c ****       (+) Configure the System clock frequency and Flash settings
  31:Drivers/STM32F7xx_HAL_Driver/Src/stm32f7xx_hal_rcc.c ****       (+) Configure the AHB and APB buses prescalers
  32:Drivers/STM32F7xx_HAL_Driver/Src/stm32f7xx_hal_rcc.c ****       (+) Enable the clock for the peripheral(s) to be used
ARM GAS  /tmp/cc4OTmQk.s 			page 2


  33:Drivers/STM32F7xx_HAL_Driver/Src/stm32f7xx_hal_rcc.c ****       (+) Configure the clock source(s) for peripherals which clocks are not
  34:Drivers/STM32F7xx_HAL_Driver/Src/stm32f7xx_hal_rcc.c ****           derived from the System clock (I2S, RTC, ADC, USB OTG FS/SDIO/RNG)
  35:Drivers/STM32F7xx_HAL_Driver/Src/stm32f7xx_hal_rcc.c **** 
  36:Drivers/STM32F7xx_HAL_Driver/Src/stm32f7xx_hal_rcc.c ****                       ##### RCC Limitations #####
  37:Drivers/STM32F7xx_HAL_Driver/Src/stm32f7xx_hal_rcc.c ****   ==============================================================================
  38:Drivers/STM32F7xx_HAL_Driver/Src/stm32f7xx_hal_rcc.c ****     [..]
  39:Drivers/STM32F7xx_HAL_Driver/Src/stm32f7xx_hal_rcc.c ****       A delay between an RCC peripheral clock enable and the effective peripheral
  40:Drivers/STM32F7xx_HAL_Driver/Src/stm32f7xx_hal_rcc.c ****       enabling should be taken into account in order to manage the peripheral read/write
  41:Drivers/STM32F7xx_HAL_Driver/Src/stm32f7xx_hal_rcc.c ****       from/to registers.
  42:Drivers/STM32F7xx_HAL_Driver/Src/stm32f7xx_hal_rcc.c ****       (+) This delay depends on the peripheral mapping.
  43:Drivers/STM32F7xx_HAL_Driver/Src/stm32f7xx_hal_rcc.c ****       (+) If peripheral is mapped on AHB: the delay is 2 AHB clock cycle
  44:Drivers/STM32F7xx_HAL_Driver/Src/stm32f7xx_hal_rcc.c ****           after the clock enable bit is set on the hardware register
  45:Drivers/STM32F7xx_HAL_Driver/Src/stm32f7xx_hal_rcc.c ****       (+) If peripheral is mapped on APB: the delay is 2 APB clock cycle
  46:Drivers/STM32F7xx_HAL_Driver/Src/stm32f7xx_hal_rcc.c ****           after the clock enable bit is set on the hardware register
  47:Drivers/STM32F7xx_HAL_Driver/Src/stm32f7xx_hal_rcc.c **** 
  48:Drivers/STM32F7xx_HAL_Driver/Src/stm32f7xx_hal_rcc.c ****     [..]
  49:Drivers/STM32F7xx_HAL_Driver/Src/stm32f7xx_hal_rcc.c ****       Implemented Workaround:
  50:Drivers/STM32F7xx_HAL_Driver/Src/stm32f7xx_hal_rcc.c ****       (+) For AHB & APB peripherals, a dummy read to the peripheral register has been
  51:Drivers/STM32F7xx_HAL_Driver/Src/stm32f7xx_hal_rcc.c ****           inserted in each __HAL_RCC_PPP_CLK_ENABLE() macro.
  52:Drivers/STM32F7xx_HAL_Driver/Src/stm32f7xx_hal_rcc.c **** 
  53:Drivers/STM32F7xx_HAL_Driver/Src/stm32f7xx_hal_rcc.c ****   @endverbatim
  54:Drivers/STM32F7xx_HAL_Driver/Src/stm32f7xx_hal_rcc.c ****   ******************************************************************************
  55:Drivers/STM32F7xx_HAL_Driver/Src/stm32f7xx_hal_rcc.c ****   * @attention
  56:Drivers/STM32F7xx_HAL_Driver/Src/stm32f7xx_hal_rcc.c ****   *
  57:Drivers/STM32F7xx_HAL_Driver/Src/stm32f7xx_hal_rcc.c ****   * <h2><center>&copy; Copyright (c) 2017 STMicroelectronics.
  58:Drivers/STM32F7xx_HAL_Driver/Src/stm32f7xx_hal_rcc.c ****   * All rights reserved.</center></h2>
  59:Drivers/STM32F7xx_HAL_Driver/Src/stm32f7xx_hal_rcc.c ****   *
  60:Drivers/STM32F7xx_HAL_Driver/Src/stm32f7xx_hal_rcc.c ****   * This software component is licensed by ST under BSD 3-Clause license,
  61:Drivers/STM32F7xx_HAL_Driver/Src/stm32f7xx_hal_rcc.c ****   * the "License"; You may not use this file except in compliance with the
  62:Drivers/STM32F7xx_HAL_Driver/Src/stm32f7xx_hal_rcc.c ****   * License. You may obtain a copy of the License at:
  63:Drivers/STM32F7xx_HAL_Driver/Src/stm32f7xx_hal_rcc.c ****   *                        opensource.org/licenses/BSD-3-Clause
  64:Drivers/STM32F7xx_HAL_Driver/Src/stm32f7xx_hal_rcc.c ****   *
  65:Drivers/STM32F7xx_HAL_Driver/Src/stm32f7xx_hal_rcc.c ****   ******************************************************************************
  66:Drivers/STM32F7xx_HAL_Driver/Src/stm32f7xx_hal_rcc.c ****   */
  67:Drivers/STM32F7xx_HAL_Driver/Src/stm32f7xx_hal_rcc.c **** 
  68:Drivers/STM32F7xx_HAL_Driver/Src/stm32f7xx_hal_rcc.c **** /* Includes ------------------------------------------------------------------*/
  69:Drivers/STM32F7xx_HAL_Driver/Src/stm32f7xx_hal_rcc.c **** #include "stm32f7xx_hal.h"
  70:Drivers/STM32F7xx_HAL_Driver/Src/stm32f7xx_hal_rcc.c **** 
  71:Drivers/STM32F7xx_HAL_Driver/Src/stm32f7xx_hal_rcc.c **** /** @addtogroup STM32F7xx_HAL_Driver
  72:Drivers/STM32F7xx_HAL_Driver/Src/stm32f7xx_hal_rcc.c ****   * @{
  73:Drivers/STM32F7xx_HAL_Driver/Src/stm32f7xx_hal_rcc.c ****   */
  74:Drivers/STM32F7xx_HAL_Driver/Src/stm32f7xx_hal_rcc.c **** 
  75:Drivers/STM32F7xx_HAL_Driver/Src/stm32f7xx_hal_rcc.c **** /** @defgroup RCC RCC
  76:Drivers/STM32F7xx_HAL_Driver/Src/stm32f7xx_hal_rcc.c ****   * @brief RCC HAL module driver
  77:Drivers/STM32F7xx_HAL_Driver/Src/stm32f7xx_hal_rcc.c ****   * @{
  78:Drivers/STM32F7xx_HAL_Driver/Src/stm32f7xx_hal_rcc.c ****   */
  79:Drivers/STM32F7xx_HAL_Driver/Src/stm32f7xx_hal_rcc.c **** 
  80:Drivers/STM32F7xx_HAL_Driver/Src/stm32f7xx_hal_rcc.c **** #ifdef HAL_RCC_MODULE_ENABLED
  81:Drivers/STM32F7xx_HAL_Driver/Src/stm32f7xx_hal_rcc.c **** 
  82:Drivers/STM32F7xx_HAL_Driver/Src/stm32f7xx_hal_rcc.c **** /* Private typedef -----------------------------------------------------------*/
  83:Drivers/STM32F7xx_HAL_Driver/Src/stm32f7xx_hal_rcc.c **** /* Private define ------------------------------------------------------------*/
  84:Drivers/STM32F7xx_HAL_Driver/Src/stm32f7xx_hal_rcc.c **** /* Private macro -------------------------------------------------------------*/
  85:Drivers/STM32F7xx_HAL_Driver/Src/stm32f7xx_hal_rcc.c **** /** @defgroup RCC_Private_Macros RCC Private Macros
  86:Drivers/STM32F7xx_HAL_Driver/Src/stm32f7xx_hal_rcc.c ****   * @{
  87:Drivers/STM32F7xx_HAL_Driver/Src/stm32f7xx_hal_rcc.c ****   */
  88:Drivers/STM32F7xx_HAL_Driver/Src/stm32f7xx_hal_rcc.c **** 
  89:Drivers/STM32F7xx_HAL_Driver/Src/stm32f7xx_hal_rcc.c **** #define MCO1_CLK_ENABLE()   __HAL_RCC_GPIOA_CLK_ENABLE()
ARM GAS  /tmp/cc4OTmQk.s 			page 3


  90:Drivers/STM32F7xx_HAL_Driver/Src/stm32f7xx_hal_rcc.c **** #define MCO1_GPIO_PORT        GPIOA
  91:Drivers/STM32F7xx_HAL_Driver/Src/stm32f7xx_hal_rcc.c **** #define MCO1_PIN              GPIO_PIN_8
  92:Drivers/STM32F7xx_HAL_Driver/Src/stm32f7xx_hal_rcc.c **** 
  93:Drivers/STM32F7xx_HAL_Driver/Src/stm32f7xx_hal_rcc.c **** #define MCO2_CLK_ENABLE()   __HAL_RCC_GPIOC_CLK_ENABLE()
  94:Drivers/STM32F7xx_HAL_Driver/Src/stm32f7xx_hal_rcc.c **** #define MCO2_GPIO_PORT         GPIOC
  95:Drivers/STM32F7xx_HAL_Driver/Src/stm32f7xx_hal_rcc.c **** #define MCO2_PIN               GPIO_PIN_9
  96:Drivers/STM32F7xx_HAL_Driver/Src/stm32f7xx_hal_rcc.c **** 
  97:Drivers/STM32F7xx_HAL_Driver/Src/stm32f7xx_hal_rcc.c **** /**
  98:Drivers/STM32F7xx_HAL_Driver/Src/stm32f7xx_hal_rcc.c ****   * @}
  99:Drivers/STM32F7xx_HAL_Driver/Src/stm32f7xx_hal_rcc.c ****   */
 100:Drivers/STM32F7xx_HAL_Driver/Src/stm32f7xx_hal_rcc.c **** /* Private variables ---------------------------------------------------------*/
 101:Drivers/STM32F7xx_HAL_Driver/Src/stm32f7xx_hal_rcc.c **** /** @defgroup RCC_Private_Variables RCC Private Variables
 102:Drivers/STM32F7xx_HAL_Driver/Src/stm32f7xx_hal_rcc.c ****   * @{
 103:Drivers/STM32F7xx_HAL_Driver/Src/stm32f7xx_hal_rcc.c ****   */
 104:Drivers/STM32F7xx_HAL_Driver/Src/stm32f7xx_hal_rcc.c **** 
 105:Drivers/STM32F7xx_HAL_Driver/Src/stm32f7xx_hal_rcc.c **** /**
 106:Drivers/STM32F7xx_HAL_Driver/Src/stm32f7xx_hal_rcc.c ****   * @}
 107:Drivers/STM32F7xx_HAL_Driver/Src/stm32f7xx_hal_rcc.c ****   */
 108:Drivers/STM32F7xx_HAL_Driver/Src/stm32f7xx_hal_rcc.c **** 
 109:Drivers/STM32F7xx_HAL_Driver/Src/stm32f7xx_hal_rcc.c **** /* Private function prototypes -----------------------------------------------*/
 110:Drivers/STM32F7xx_HAL_Driver/Src/stm32f7xx_hal_rcc.c **** /* Exported functions ---------------------------------------------------------*/
 111:Drivers/STM32F7xx_HAL_Driver/Src/stm32f7xx_hal_rcc.c **** 
 112:Drivers/STM32F7xx_HAL_Driver/Src/stm32f7xx_hal_rcc.c **** /** @defgroup RCC_Exported_Functions RCC Exported Functions
 113:Drivers/STM32F7xx_HAL_Driver/Src/stm32f7xx_hal_rcc.c ****   * @{
 114:Drivers/STM32F7xx_HAL_Driver/Src/stm32f7xx_hal_rcc.c ****   */
 115:Drivers/STM32F7xx_HAL_Driver/Src/stm32f7xx_hal_rcc.c **** 
 116:Drivers/STM32F7xx_HAL_Driver/Src/stm32f7xx_hal_rcc.c **** /** @defgroup RCC_Exported_Functions_Group1 Initialization and de-initialization functions
 117:Drivers/STM32F7xx_HAL_Driver/Src/stm32f7xx_hal_rcc.c ****   *  @brief    Initialization and Configuration functions
 118:Drivers/STM32F7xx_HAL_Driver/Src/stm32f7xx_hal_rcc.c ****   *
 119:Drivers/STM32F7xx_HAL_Driver/Src/stm32f7xx_hal_rcc.c ****   @verbatim
 120:Drivers/STM32F7xx_HAL_Driver/Src/stm32f7xx_hal_rcc.c ****   ===============================================================================
 121:Drivers/STM32F7xx_HAL_Driver/Src/stm32f7xx_hal_rcc.c **** ##### Initialization and de-initialization functions #####
 122:Drivers/STM32F7xx_HAL_Driver/Src/stm32f7xx_hal_rcc.c ****   ===============================================================================
 123:Drivers/STM32F7xx_HAL_Driver/Src/stm32f7xx_hal_rcc.c ****     [..]
 124:Drivers/STM32F7xx_HAL_Driver/Src/stm32f7xx_hal_rcc.c ****       This section provides functions allowing to configure the internal/external oscillators
 125:Drivers/STM32F7xx_HAL_Driver/Src/stm32f7xx_hal_rcc.c ****       (HSE, HSI, LSE, LSI, PLL, CSS and MCO) and the System buses clocks (SYSCLK, AHB, APB1
 126:Drivers/STM32F7xx_HAL_Driver/Src/stm32f7xx_hal_rcc.c ****       and APB2).
 127:Drivers/STM32F7xx_HAL_Driver/Src/stm32f7xx_hal_rcc.c **** 
 128:Drivers/STM32F7xx_HAL_Driver/Src/stm32f7xx_hal_rcc.c ****     [..] Internal/external clock and PLL configuration
 129:Drivers/STM32F7xx_HAL_Driver/Src/stm32f7xx_hal_rcc.c ****       (#) HSI (high-speed internal), 16 MHz factory-trimmed RC used directly or through
 130:Drivers/STM32F7xx_HAL_Driver/Src/stm32f7xx_hal_rcc.c ****           the PLL as System clock source.
 131:Drivers/STM32F7xx_HAL_Driver/Src/stm32f7xx_hal_rcc.c **** 
 132:Drivers/STM32F7xx_HAL_Driver/Src/stm32f7xx_hal_rcc.c ****       (#) LSI (low-speed internal), 32 KHz low consumption RC used as IWDG and/or RTC
 133:Drivers/STM32F7xx_HAL_Driver/Src/stm32f7xx_hal_rcc.c ****           clock source.
 134:Drivers/STM32F7xx_HAL_Driver/Src/stm32f7xx_hal_rcc.c **** 
 135:Drivers/STM32F7xx_HAL_Driver/Src/stm32f7xx_hal_rcc.c ****       (#) HSE (high-speed external), 4 to 26 MHz crystal oscillator used directly or
 136:Drivers/STM32F7xx_HAL_Driver/Src/stm32f7xx_hal_rcc.c ****           through the PLL as System clock source. Can be used also as RTC clock source.
 137:Drivers/STM32F7xx_HAL_Driver/Src/stm32f7xx_hal_rcc.c **** 
 138:Drivers/STM32F7xx_HAL_Driver/Src/stm32f7xx_hal_rcc.c ****       (#) LSE (low-speed external), 32 KHz oscillator used as RTC clock source.
 139:Drivers/STM32F7xx_HAL_Driver/Src/stm32f7xx_hal_rcc.c **** 
 140:Drivers/STM32F7xx_HAL_Driver/Src/stm32f7xx_hal_rcc.c ****       (#) PLL (clocked by HSI or HSE), featuring two different output clocks:
 141:Drivers/STM32F7xx_HAL_Driver/Src/stm32f7xx_hal_rcc.c ****         (++) The first output is used to generate the high speed system clock (up to 216 MHz)
 142:Drivers/STM32F7xx_HAL_Driver/Src/stm32f7xx_hal_rcc.c ****         (++) The second output is used to generate the clock for the USB OTG FS (48 MHz),
 143:Drivers/STM32F7xx_HAL_Driver/Src/stm32f7xx_hal_rcc.c ****              the random analog generator (<=48 MHz) and the SDIO (<= 48 MHz).
 144:Drivers/STM32F7xx_HAL_Driver/Src/stm32f7xx_hal_rcc.c **** 
 145:Drivers/STM32F7xx_HAL_Driver/Src/stm32f7xx_hal_rcc.c ****       (#) CSS (Clock security system), once enable using the function HAL_RCC_EnableCSS()
 146:Drivers/STM32F7xx_HAL_Driver/Src/stm32f7xx_hal_rcc.c ****           and if a HSE clock failure occurs(HSE used directly or through PLL as System
ARM GAS  /tmp/cc4OTmQk.s 			page 4


 147:Drivers/STM32F7xx_HAL_Driver/Src/stm32f7xx_hal_rcc.c ****           clock source), the System clock is automatically switched to HSI and an interrupt
 148:Drivers/STM32F7xx_HAL_Driver/Src/stm32f7xx_hal_rcc.c ****           is generated if enabled. The interrupt is linked to the Cortex-M7 NMI
 149:Drivers/STM32F7xx_HAL_Driver/Src/stm32f7xx_hal_rcc.c ****           (Non-Maskable Interrupt) exception vector.
 150:Drivers/STM32F7xx_HAL_Driver/Src/stm32f7xx_hal_rcc.c **** 
 151:Drivers/STM32F7xx_HAL_Driver/Src/stm32f7xx_hal_rcc.c ****       (#) MCO1 (microcontroller clock output), used to output HSI, LSE, HSE or PLL
 152:Drivers/STM32F7xx_HAL_Driver/Src/stm32f7xx_hal_rcc.c ****           clock (through a configurable prescaler) on PA8 pin.
 153:Drivers/STM32F7xx_HAL_Driver/Src/stm32f7xx_hal_rcc.c **** 
 154:Drivers/STM32F7xx_HAL_Driver/Src/stm32f7xx_hal_rcc.c ****       (#) MCO2 (microcontroller clock output), used to output HSE, PLL, SYSCLK or PLLI2S
 155:Drivers/STM32F7xx_HAL_Driver/Src/stm32f7xx_hal_rcc.c ****           clock (through a configurable prescaler) on PC9 pin.
 156:Drivers/STM32F7xx_HAL_Driver/Src/stm32f7xx_hal_rcc.c **** 
 157:Drivers/STM32F7xx_HAL_Driver/Src/stm32f7xx_hal_rcc.c ****     [..] System, AHB and APB buses clocks configuration
 158:Drivers/STM32F7xx_HAL_Driver/Src/stm32f7xx_hal_rcc.c ****       (#) Several clock sources can be used to drive the System clock (SYSCLK): HSI,
 159:Drivers/STM32F7xx_HAL_Driver/Src/stm32f7xx_hal_rcc.c ****           HSE and PLL.
 160:Drivers/STM32F7xx_HAL_Driver/Src/stm32f7xx_hal_rcc.c ****           The AHB clock (HCLK) is derived from System clock through configurable
 161:Drivers/STM32F7xx_HAL_Driver/Src/stm32f7xx_hal_rcc.c ****           prescaler and used to clock the CPU, memory and peripherals mapped
 162:Drivers/STM32F7xx_HAL_Driver/Src/stm32f7xx_hal_rcc.c ****           on AHB bus (DMA, GPIO...). APB1 (PCLK1) and APB2 (PCLK2) clocks are derived
 163:Drivers/STM32F7xx_HAL_Driver/Src/stm32f7xx_hal_rcc.c ****           from AHB clock through configurable prescalers and used to clock
 164:Drivers/STM32F7xx_HAL_Driver/Src/stm32f7xx_hal_rcc.c ****           the peripherals mapped on these buses. You can use
 165:Drivers/STM32F7xx_HAL_Driver/Src/stm32f7xx_hal_rcc.c ****           "HAL_RCC_GetSysClockFreq()" function to retrieve the frequencies of these clocks.
 166:Drivers/STM32F7xx_HAL_Driver/Src/stm32f7xx_hal_rcc.c **** 
 167:Drivers/STM32F7xx_HAL_Driver/Src/stm32f7xx_hal_rcc.c ****       -@- All the peripheral clocks are derived from the System clock (SYSCLK) except:
 168:Drivers/STM32F7xx_HAL_Driver/Src/stm32f7xx_hal_rcc.c ****           (+@) I2S: the I2S clock can be derived either from a specific PLL (PLLI2S) or
 169:Drivers/STM32F7xx_HAL_Driver/Src/stm32f7xx_hal_rcc.c ****               from an external clock mapped on the I2S_CKIN pin.
 170:Drivers/STM32F7xx_HAL_Driver/Src/stm32f7xx_hal_rcc.c ****               You have to use __HAL_RCC_PLLI2S_CONFIG() macro to configure this clock.
 171:Drivers/STM32F7xx_HAL_Driver/Src/stm32f7xx_hal_rcc.c ****           (+@)  SAI: the SAI clock can be derived either from a specific PLL (PLLI2S) or (PLLSAI) o
 172:Drivers/STM32F7xx_HAL_Driver/Src/stm32f7xx_hal_rcc.c ****               from an external clock mapped on the I2S_CKIN pin.
 173:Drivers/STM32F7xx_HAL_Driver/Src/stm32f7xx_hal_rcc.c ****                You have to use __HAL_RCC_PLLI2S_CONFIG() macro to configure this clock.
 174:Drivers/STM32F7xx_HAL_Driver/Src/stm32f7xx_hal_rcc.c ****           (+@) RTC: the RTC clock can be derived either from the LSI, LSE or HSE clock
 175:Drivers/STM32F7xx_HAL_Driver/Src/stm32f7xx_hal_rcc.c ****               divided by 2 to 31. You have to use __HAL_RCC_RTC_CONFIG() and __HAL_RCC_RTC_ENABLE()
 176:Drivers/STM32F7xx_HAL_Driver/Src/stm32f7xx_hal_rcc.c ****               macros to configure this clock.
 177:Drivers/STM32F7xx_HAL_Driver/Src/stm32f7xx_hal_rcc.c ****           (+@) USB OTG FS, SDIO and RTC: USB OTG FS require a frequency equal to 48 MHz
 178:Drivers/STM32F7xx_HAL_Driver/Src/stm32f7xx_hal_rcc.c ****               to work correctly, while the SDIO require a frequency equal or lower than
 179:Drivers/STM32F7xx_HAL_Driver/Src/stm32f7xx_hal_rcc.c ****               to 48. This clock is derived of the main PLL through PLLQ divider.
 180:Drivers/STM32F7xx_HAL_Driver/Src/stm32f7xx_hal_rcc.c ****           (+@) IWDG clock which is always the LSI clock.
 181:Drivers/STM32F7xx_HAL_Driver/Src/stm32f7xx_hal_rcc.c **** @endverbatim
 182:Drivers/STM32F7xx_HAL_Driver/Src/stm32f7xx_hal_rcc.c ****   * @{
 183:Drivers/STM32F7xx_HAL_Driver/Src/stm32f7xx_hal_rcc.c ****   */
 184:Drivers/STM32F7xx_HAL_Driver/Src/stm32f7xx_hal_rcc.c **** 
 185:Drivers/STM32F7xx_HAL_Driver/Src/stm32f7xx_hal_rcc.c **** /**
 186:Drivers/STM32F7xx_HAL_Driver/Src/stm32f7xx_hal_rcc.c ****   * @brief  Resets the RCC clock configuration to the default reset state.
 187:Drivers/STM32F7xx_HAL_Driver/Src/stm32f7xx_hal_rcc.c ****   * @note   The default reset state of the clock configuration is given below:
 188:Drivers/STM32F7xx_HAL_Driver/Src/stm32f7xx_hal_rcc.c ****   *            - HSI ON and used as system clock source
 189:Drivers/STM32F7xx_HAL_Driver/Src/stm32f7xx_hal_rcc.c ****   *            - HSE, PLL, PLLI2S and PLLSAI OFF
 190:Drivers/STM32F7xx_HAL_Driver/Src/stm32f7xx_hal_rcc.c ****   *            - AHB, APB1 and APB2 prescaler set to 1.
 191:Drivers/STM32F7xx_HAL_Driver/Src/stm32f7xx_hal_rcc.c ****   *            - CSS, MCO1 and MCO2 OFF
 192:Drivers/STM32F7xx_HAL_Driver/Src/stm32f7xx_hal_rcc.c ****   *            - All interrupts disabled
 193:Drivers/STM32F7xx_HAL_Driver/Src/stm32f7xx_hal_rcc.c ****   * @note   This function doesn't modify the configuration of the
 194:Drivers/STM32F7xx_HAL_Driver/Src/stm32f7xx_hal_rcc.c ****   *            - Peripheral clocks
 195:Drivers/STM32F7xx_HAL_Driver/Src/stm32f7xx_hal_rcc.c ****   *            - LSI, LSE and RTC clocks
 196:Drivers/STM32F7xx_HAL_Driver/Src/stm32f7xx_hal_rcc.c ****   * @retval None
 197:Drivers/STM32F7xx_HAL_Driver/Src/stm32f7xx_hal_rcc.c ****   */
 198:Drivers/STM32F7xx_HAL_Driver/Src/stm32f7xx_hal_rcc.c **** HAL_StatusTypeDef HAL_RCC_DeInit(void)
 199:Drivers/STM32F7xx_HAL_Driver/Src/stm32f7xx_hal_rcc.c **** {
  27              		.loc 1 199 0
  28              		.cfi_startproc
  29              		@ args = 0, pretend = 0, frame = 0
  30              		@ frame_needed = 0, uses_anonymous_args = 0
ARM GAS  /tmp/cc4OTmQk.s 			page 5


  31 0000 38B5     		push	{r3, r4, r5, lr}
  32              	.LCFI0:
  33              		.cfi_def_cfa_offset 16
  34              		.cfi_offset 3, -16
  35              		.cfi_offset 4, -12
  36              		.cfi_offset 5, -8
  37              		.cfi_offset 14, -4
 200:Drivers/STM32F7xx_HAL_Driver/Src/stm32f7xx_hal_rcc.c ****   uint32_t tickstart;
 201:Drivers/STM32F7xx_HAL_Driver/Src/stm32f7xx_hal_rcc.c **** 
 202:Drivers/STM32F7xx_HAL_Driver/Src/stm32f7xx_hal_rcc.c ****   /* Get Start Tick */
 203:Drivers/STM32F7xx_HAL_Driver/Src/stm32f7xx_hal_rcc.c ****   tickstart = HAL_GetTick();
  38              		.loc 1 203 0
  39 0002 FFF7FEFF 		bl	HAL_GetTick
  40              	.LVL0:
  41 0006 0446     		mov	r4, r0
  42              	.LVL1:
 204:Drivers/STM32F7xx_HAL_Driver/Src/stm32f7xx_hal_rcc.c **** 
 205:Drivers/STM32F7xx_HAL_Driver/Src/stm32f7xx_hal_rcc.c ****   /* Set HSION bit to the reset value */
 206:Drivers/STM32F7xx_HAL_Driver/Src/stm32f7xx_hal_rcc.c ****   SET_BIT(RCC->CR, RCC_CR_HSION);
  43              		.loc 1 206 0
  44 0008 4F4A     		ldr	r2, .L28
  45 000a 1368     		ldr	r3, [r2]
  46 000c 43F00103 		orr	r3, r3, #1
  47 0010 1360     		str	r3, [r2]
  48              	.LVL2:
  49              	.L2:
 207:Drivers/STM32F7xx_HAL_Driver/Src/stm32f7xx_hal_rcc.c **** 
 208:Drivers/STM32F7xx_HAL_Driver/Src/stm32f7xx_hal_rcc.c ****   /* Wait till HSI is ready */
 209:Drivers/STM32F7xx_HAL_Driver/Src/stm32f7xx_hal_rcc.c ****   while (READ_BIT(RCC->CR, RCC_CR_HSIRDY) == RESET)
  50              		.loc 1 209 0
  51 0012 4D4B     		ldr	r3, .L28
  52 0014 1B68     		ldr	r3, [r3]
  53 0016 13F0020F 		tst	r3, #2
  54 001a 07D1     		bne	.L22
 210:Drivers/STM32F7xx_HAL_Driver/Src/stm32f7xx_hal_rcc.c ****   {
 211:Drivers/STM32F7xx_HAL_Driver/Src/stm32f7xx_hal_rcc.c ****     if ((HAL_GetTick() - tickstart) > HSI_TIMEOUT_VALUE)
  55              		.loc 1 211 0
  56 001c FFF7FEFF 		bl	HAL_GetTick
  57              	.LVL3:
  58 0020 001B     		subs	r0, r0, r4
  59 0022 0228     		cmp	r0, #2
  60 0024 F5D9     		bls	.L2
 212:Drivers/STM32F7xx_HAL_Driver/Src/stm32f7xx_hal_rcc.c ****     {
 213:Drivers/STM32F7xx_HAL_Driver/Src/stm32f7xx_hal_rcc.c ****       return HAL_TIMEOUT;
  61              		.loc 1 213 0
  62 0026 0323     		movs	r3, #3
  63              	.L3:
 214:Drivers/STM32F7xx_HAL_Driver/Src/stm32f7xx_hal_rcc.c ****     }
 215:Drivers/STM32F7xx_HAL_Driver/Src/stm32f7xx_hal_rcc.c ****   }
 216:Drivers/STM32F7xx_HAL_Driver/Src/stm32f7xx_hal_rcc.c **** 
 217:Drivers/STM32F7xx_HAL_Driver/Src/stm32f7xx_hal_rcc.c ****   /* Set HSITRIM[4:0] bits to the reset value */
 218:Drivers/STM32F7xx_HAL_Driver/Src/stm32f7xx_hal_rcc.c ****   SET_BIT(RCC->CR, RCC_CR_HSITRIM_4);
 219:Drivers/STM32F7xx_HAL_Driver/Src/stm32f7xx_hal_rcc.c **** 
 220:Drivers/STM32F7xx_HAL_Driver/Src/stm32f7xx_hal_rcc.c ****   /* Get Start Tick */
 221:Drivers/STM32F7xx_HAL_Driver/Src/stm32f7xx_hal_rcc.c ****   tickstart = HAL_GetTick();
 222:Drivers/STM32F7xx_HAL_Driver/Src/stm32f7xx_hal_rcc.c **** 
 223:Drivers/STM32F7xx_HAL_Driver/Src/stm32f7xx_hal_rcc.c ****   /* Reset CFGR register */
ARM GAS  /tmp/cc4OTmQk.s 			page 6


 224:Drivers/STM32F7xx_HAL_Driver/Src/stm32f7xx_hal_rcc.c ****   CLEAR_REG(RCC->CFGR);
 225:Drivers/STM32F7xx_HAL_Driver/Src/stm32f7xx_hal_rcc.c **** 
 226:Drivers/STM32F7xx_HAL_Driver/Src/stm32f7xx_hal_rcc.c ****   /* Wait till clock switch is ready */
 227:Drivers/STM32F7xx_HAL_Driver/Src/stm32f7xx_hal_rcc.c ****   while (READ_BIT(RCC->CFGR, RCC_CFGR_SWS) != RESET)
 228:Drivers/STM32F7xx_HAL_Driver/Src/stm32f7xx_hal_rcc.c ****   {
 229:Drivers/STM32F7xx_HAL_Driver/Src/stm32f7xx_hal_rcc.c ****     if ((HAL_GetTick() - tickstart) > CLOCKSWITCH_TIMEOUT_VALUE)
 230:Drivers/STM32F7xx_HAL_Driver/Src/stm32f7xx_hal_rcc.c ****     {
 231:Drivers/STM32F7xx_HAL_Driver/Src/stm32f7xx_hal_rcc.c ****       return HAL_TIMEOUT;
 232:Drivers/STM32F7xx_HAL_Driver/Src/stm32f7xx_hal_rcc.c ****     }
 233:Drivers/STM32F7xx_HAL_Driver/Src/stm32f7xx_hal_rcc.c ****   }
 234:Drivers/STM32F7xx_HAL_Driver/Src/stm32f7xx_hal_rcc.c **** 
 235:Drivers/STM32F7xx_HAL_Driver/Src/stm32f7xx_hal_rcc.c ****   /* Get Start Tick */
 236:Drivers/STM32F7xx_HAL_Driver/Src/stm32f7xx_hal_rcc.c ****   tickstart = HAL_GetTick();
 237:Drivers/STM32F7xx_HAL_Driver/Src/stm32f7xx_hal_rcc.c **** 
 238:Drivers/STM32F7xx_HAL_Driver/Src/stm32f7xx_hal_rcc.c ****   /* Clear HSEON, HSEBYP and CSSON bits */
 239:Drivers/STM32F7xx_HAL_Driver/Src/stm32f7xx_hal_rcc.c ****   CLEAR_BIT(RCC->CR, RCC_CR_HSEON | RCC_CR_HSEBYP | RCC_CR_CSSON);
 240:Drivers/STM32F7xx_HAL_Driver/Src/stm32f7xx_hal_rcc.c **** 
 241:Drivers/STM32F7xx_HAL_Driver/Src/stm32f7xx_hal_rcc.c ****   /* Wait till HSE is disabled */
 242:Drivers/STM32F7xx_HAL_Driver/Src/stm32f7xx_hal_rcc.c ****   while (READ_BIT(RCC->CR, RCC_CR_HSERDY) != RESET)
 243:Drivers/STM32F7xx_HAL_Driver/Src/stm32f7xx_hal_rcc.c ****   {
 244:Drivers/STM32F7xx_HAL_Driver/Src/stm32f7xx_hal_rcc.c ****     if ((HAL_GetTick() - tickstart) > HSE_TIMEOUT_VALUE)
 245:Drivers/STM32F7xx_HAL_Driver/Src/stm32f7xx_hal_rcc.c ****     {
 246:Drivers/STM32F7xx_HAL_Driver/Src/stm32f7xx_hal_rcc.c ****       return HAL_TIMEOUT;
 247:Drivers/STM32F7xx_HAL_Driver/Src/stm32f7xx_hal_rcc.c ****     }
 248:Drivers/STM32F7xx_HAL_Driver/Src/stm32f7xx_hal_rcc.c ****   }
 249:Drivers/STM32F7xx_HAL_Driver/Src/stm32f7xx_hal_rcc.c **** 
 250:Drivers/STM32F7xx_HAL_Driver/Src/stm32f7xx_hal_rcc.c ****   /* Get Start Tick */
 251:Drivers/STM32F7xx_HAL_Driver/Src/stm32f7xx_hal_rcc.c ****   tickstart = HAL_GetTick();
 252:Drivers/STM32F7xx_HAL_Driver/Src/stm32f7xx_hal_rcc.c **** 
 253:Drivers/STM32F7xx_HAL_Driver/Src/stm32f7xx_hal_rcc.c ****   /* Clear PLLON bit */
 254:Drivers/STM32F7xx_HAL_Driver/Src/stm32f7xx_hal_rcc.c ****   CLEAR_BIT(RCC->CR, RCC_CR_PLLON);
 255:Drivers/STM32F7xx_HAL_Driver/Src/stm32f7xx_hal_rcc.c **** 
 256:Drivers/STM32F7xx_HAL_Driver/Src/stm32f7xx_hal_rcc.c ****   /* Wait till PLL is disabled */
 257:Drivers/STM32F7xx_HAL_Driver/Src/stm32f7xx_hal_rcc.c ****   while (READ_BIT(RCC->CR, RCC_CR_PLLRDY) != RESET)
 258:Drivers/STM32F7xx_HAL_Driver/Src/stm32f7xx_hal_rcc.c ****   {
 259:Drivers/STM32F7xx_HAL_Driver/Src/stm32f7xx_hal_rcc.c ****     if ((HAL_GetTick() - tickstart) > PLL_TIMEOUT_VALUE)
 260:Drivers/STM32F7xx_HAL_Driver/Src/stm32f7xx_hal_rcc.c ****     {
 261:Drivers/STM32F7xx_HAL_Driver/Src/stm32f7xx_hal_rcc.c ****       return HAL_TIMEOUT;
 262:Drivers/STM32F7xx_HAL_Driver/Src/stm32f7xx_hal_rcc.c ****     }
 263:Drivers/STM32F7xx_HAL_Driver/Src/stm32f7xx_hal_rcc.c ****   }
 264:Drivers/STM32F7xx_HAL_Driver/Src/stm32f7xx_hal_rcc.c **** 
 265:Drivers/STM32F7xx_HAL_Driver/Src/stm32f7xx_hal_rcc.c ****   /* Get Start Tick */
 266:Drivers/STM32F7xx_HAL_Driver/Src/stm32f7xx_hal_rcc.c ****   tickstart = HAL_GetTick();
 267:Drivers/STM32F7xx_HAL_Driver/Src/stm32f7xx_hal_rcc.c **** 
 268:Drivers/STM32F7xx_HAL_Driver/Src/stm32f7xx_hal_rcc.c ****   /* Reset PLLI2SON bit */
 269:Drivers/STM32F7xx_HAL_Driver/Src/stm32f7xx_hal_rcc.c ****   CLEAR_BIT(RCC->CR, RCC_CR_PLLI2SON);
 270:Drivers/STM32F7xx_HAL_Driver/Src/stm32f7xx_hal_rcc.c **** 
 271:Drivers/STM32F7xx_HAL_Driver/Src/stm32f7xx_hal_rcc.c ****   /* Wait till PLLI2S is disabled */
 272:Drivers/STM32F7xx_HAL_Driver/Src/stm32f7xx_hal_rcc.c ****   while (READ_BIT(RCC->CR, RCC_CR_PLLI2SRDY) != RESET)
 273:Drivers/STM32F7xx_HAL_Driver/Src/stm32f7xx_hal_rcc.c ****   {
 274:Drivers/STM32F7xx_HAL_Driver/Src/stm32f7xx_hal_rcc.c ****     if ((HAL_GetTick() - tickstart) > PLLI2S_TIMEOUT_VALUE)
 275:Drivers/STM32F7xx_HAL_Driver/Src/stm32f7xx_hal_rcc.c ****     {
 276:Drivers/STM32F7xx_HAL_Driver/Src/stm32f7xx_hal_rcc.c ****       return HAL_TIMEOUT;
 277:Drivers/STM32F7xx_HAL_Driver/Src/stm32f7xx_hal_rcc.c ****     }
 278:Drivers/STM32F7xx_HAL_Driver/Src/stm32f7xx_hal_rcc.c ****   }
 279:Drivers/STM32F7xx_HAL_Driver/Src/stm32f7xx_hal_rcc.c **** 
 280:Drivers/STM32F7xx_HAL_Driver/Src/stm32f7xx_hal_rcc.c ****   /* Get Start Tick */
ARM GAS  /tmp/cc4OTmQk.s 			page 7


 281:Drivers/STM32F7xx_HAL_Driver/Src/stm32f7xx_hal_rcc.c ****   tickstart = HAL_GetTick();
 282:Drivers/STM32F7xx_HAL_Driver/Src/stm32f7xx_hal_rcc.c **** 
 283:Drivers/STM32F7xx_HAL_Driver/Src/stm32f7xx_hal_rcc.c ****   /* Reset PLLSAI bit */
 284:Drivers/STM32F7xx_HAL_Driver/Src/stm32f7xx_hal_rcc.c ****   CLEAR_BIT(RCC->CR, RCC_CR_PLLSAION);
 285:Drivers/STM32F7xx_HAL_Driver/Src/stm32f7xx_hal_rcc.c **** 
 286:Drivers/STM32F7xx_HAL_Driver/Src/stm32f7xx_hal_rcc.c ****   /* Wait till PLLSAI is disabled */
 287:Drivers/STM32F7xx_HAL_Driver/Src/stm32f7xx_hal_rcc.c ****   while (READ_BIT(RCC->CR, RCC_CR_PLLSAIRDY) != RESET)
 288:Drivers/STM32F7xx_HAL_Driver/Src/stm32f7xx_hal_rcc.c ****   {
 289:Drivers/STM32F7xx_HAL_Driver/Src/stm32f7xx_hal_rcc.c ****     if ((HAL_GetTick() - tickstart) > PLLSAI_TIMEOUT_VALUE)
 290:Drivers/STM32F7xx_HAL_Driver/Src/stm32f7xx_hal_rcc.c ****     {
 291:Drivers/STM32F7xx_HAL_Driver/Src/stm32f7xx_hal_rcc.c ****       return HAL_TIMEOUT;
 292:Drivers/STM32F7xx_HAL_Driver/Src/stm32f7xx_hal_rcc.c ****     }
 293:Drivers/STM32F7xx_HAL_Driver/Src/stm32f7xx_hal_rcc.c ****   }
 294:Drivers/STM32F7xx_HAL_Driver/Src/stm32f7xx_hal_rcc.c **** 
 295:Drivers/STM32F7xx_HAL_Driver/Src/stm32f7xx_hal_rcc.c ****   /* Once PLL, PLLI2S and PLLSAI are OFF, reset PLLCFGR register to default value */
 296:Drivers/STM32F7xx_HAL_Driver/Src/stm32f7xx_hal_rcc.c ****   RCC->PLLCFGR = RCC_PLLCFGR_PLLM_4 | RCC_PLLCFGR_PLLN_6 | RCC_PLLCFGR_PLLN_7 | RCC_PLLCFGR_PLLQ_2 
 297:Drivers/STM32F7xx_HAL_Driver/Src/stm32f7xx_hal_rcc.c **** 
 298:Drivers/STM32F7xx_HAL_Driver/Src/stm32f7xx_hal_rcc.c ****   /* Reset PLLI2SCFGR register to default value */
 299:Drivers/STM32F7xx_HAL_Driver/Src/stm32f7xx_hal_rcc.c ****   RCC->PLLI2SCFGR = RCC_PLLI2SCFGR_PLLI2SN_6 | RCC_PLLI2SCFGR_PLLI2SN_7 | RCC_PLLI2SCFGR_PLLI2SQ_2 
 300:Drivers/STM32F7xx_HAL_Driver/Src/stm32f7xx_hal_rcc.c **** 
 301:Drivers/STM32F7xx_HAL_Driver/Src/stm32f7xx_hal_rcc.c ****   /* Reset PLLSAICFGR register to default value */
 302:Drivers/STM32F7xx_HAL_Driver/Src/stm32f7xx_hal_rcc.c ****   RCC->PLLSAICFGR = RCC_PLLSAICFGR_PLLSAIN_6 | RCC_PLLSAICFGR_PLLSAIN_7 | RCC_PLLSAICFGR_PLLSAIQ_2 
 303:Drivers/STM32F7xx_HAL_Driver/Src/stm32f7xx_hal_rcc.c **** 
 304:Drivers/STM32F7xx_HAL_Driver/Src/stm32f7xx_hal_rcc.c ****   /* Disable all interrupts */
 305:Drivers/STM32F7xx_HAL_Driver/Src/stm32f7xx_hal_rcc.c ****   CLEAR_BIT(RCC->CIR, RCC_CIR_LSIRDYIE | RCC_CIR_LSERDYIE | RCC_CIR_HSIRDYIE | RCC_CIR_HSERDYIE | R
 306:Drivers/STM32F7xx_HAL_Driver/Src/stm32f7xx_hal_rcc.c **** 
 307:Drivers/STM32F7xx_HAL_Driver/Src/stm32f7xx_hal_rcc.c ****   /* Clear all interrupt flags */
 308:Drivers/STM32F7xx_HAL_Driver/Src/stm32f7xx_hal_rcc.c ****   SET_BIT(RCC->CIR, RCC_CIR_LSIRDYC | RCC_CIR_LSERDYC | RCC_CIR_HSIRDYC | RCC_CIR_HSERDYC | RCC_CIR
 309:Drivers/STM32F7xx_HAL_Driver/Src/stm32f7xx_hal_rcc.c **** 
 310:Drivers/STM32F7xx_HAL_Driver/Src/stm32f7xx_hal_rcc.c ****   /* Clear LSION bit */
 311:Drivers/STM32F7xx_HAL_Driver/Src/stm32f7xx_hal_rcc.c ****   CLEAR_BIT(RCC->CSR, RCC_CSR_LSION);
 312:Drivers/STM32F7xx_HAL_Driver/Src/stm32f7xx_hal_rcc.c **** 
 313:Drivers/STM32F7xx_HAL_Driver/Src/stm32f7xx_hal_rcc.c ****   /* Reset all CSR flags */
 314:Drivers/STM32F7xx_HAL_Driver/Src/stm32f7xx_hal_rcc.c ****   SET_BIT(RCC->CSR, RCC_CSR_RMVF);
 315:Drivers/STM32F7xx_HAL_Driver/Src/stm32f7xx_hal_rcc.c **** 
 316:Drivers/STM32F7xx_HAL_Driver/Src/stm32f7xx_hal_rcc.c ****   /* Update the SystemCoreClock global variable */
 317:Drivers/STM32F7xx_HAL_Driver/Src/stm32f7xx_hal_rcc.c ****   SystemCoreClock = HSI_VALUE;
 318:Drivers/STM32F7xx_HAL_Driver/Src/stm32f7xx_hal_rcc.c **** 
 319:Drivers/STM32F7xx_HAL_Driver/Src/stm32f7xx_hal_rcc.c ****   /* Adapt Systick interrupt period */
 320:Drivers/STM32F7xx_HAL_Driver/Src/stm32f7xx_hal_rcc.c ****   if (HAL_InitTick(uwTickPrio) != HAL_OK)
 321:Drivers/STM32F7xx_HAL_Driver/Src/stm32f7xx_hal_rcc.c ****   {
 322:Drivers/STM32F7xx_HAL_Driver/Src/stm32f7xx_hal_rcc.c ****     return HAL_ERROR;
 323:Drivers/STM32F7xx_HAL_Driver/Src/stm32f7xx_hal_rcc.c ****   }
 324:Drivers/STM32F7xx_HAL_Driver/Src/stm32f7xx_hal_rcc.c ****   else
 325:Drivers/STM32F7xx_HAL_Driver/Src/stm32f7xx_hal_rcc.c ****   {
 326:Drivers/STM32F7xx_HAL_Driver/Src/stm32f7xx_hal_rcc.c ****     return HAL_OK;
 327:Drivers/STM32F7xx_HAL_Driver/Src/stm32f7xx_hal_rcc.c ****   }
 328:Drivers/STM32F7xx_HAL_Driver/Src/stm32f7xx_hal_rcc.c **** }
  64              		.loc 1 328 0
  65 0028 1846     		mov	r0, r3
  66 002a 38BD     		pop	{r3, r4, r5, pc}
  67              	.LVL4:
  68              	.L22:
 218:Drivers/STM32F7xx_HAL_Driver/Src/stm32f7xx_hal_rcc.c **** 
  69              		.loc 1 218 0
  70 002c 464D     		ldr	r5, .L28
  71 002e 2B68     		ldr	r3, [r5]
ARM GAS  /tmp/cc4OTmQk.s 			page 8


  72 0030 43F08003 		orr	r3, r3, #128
  73 0034 2B60     		str	r3, [r5]
 221:Drivers/STM32F7xx_HAL_Driver/Src/stm32f7xx_hal_rcc.c **** 
  74              		.loc 1 221 0
  75 0036 FFF7FEFF 		bl	HAL_GetTick
  76              	.LVL5:
  77 003a 0446     		mov	r4, r0
  78              	.LVL6:
 224:Drivers/STM32F7xx_HAL_Driver/Src/stm32f7xx_hal_rcc.c **** 
  79              		.loc 1 224 0
  80 003c 0023     		movs	r3, #0
  81 003e AB60     		str	r3, [r5, #8]
  82              	.LVL7:
  83              	.L5:
 227:Drivers/STM32F7xx_HAL_Driver/Src/stm32f7xx_hal_rcc.c ****   {
  84              		.loc 1 227 0
  85 0040 414B     		ldr	r3, .L28
  86 0042 9B68     		ldr	r3, [r3, #8]
  87 0044 13F00C0F 		tst	r3, #12
  88 0048 08D0     		beq	.L23
 229:Drivers/STM32F7xx_HAL_Driver/Src/stm32f7xx_hal_rcc.c ****     {
  89              		.loc 1 229 0
  90 004a FFF7FEFF 		bl	HAL_GetTick
  91              	.LVL8:
  92 004e 001B     		subs	r0, r0, r4
  93 0050 41F28833 		movw	r3, #5000
  94 0054 9842     		cmp	r0, r3
  95 0056 F3D9     		bls	.L5
 231:Drivers/STM32F7xx_HAL_Driver/Src/stm32f7xx_hal_rcc.c ****     }
  96              		.loc 1 231 0
  97 0058 0323     		movs	r3, #3
  98 005a E5E7     		b	.L3
  99              	.L23:
 236:Drivers/STM32F7xx_HAL_Driver/Src/stm32f7xx_hal_rcc.c **** 
 100              		.loc 1 236 0
 101 005c FFF7FEFF 		bl	HAL_GetTick
 102              	.LVL9:
 103 0060 0446     		mov	r4, r0
 104              	.LVL10:
 239:Drivers/STM32F7xx_HAL_Driver/Src/stm32f7xx_hal_rcc.c **** 
 105              		.loc 1 239 0
 106 0062 394A     		ldr	r2, .L28
 107 0064 1368     		ldr	r3, [r2]
 108 0066 23F45023 		bic	r3, r3, #851968
 109 006a 1360     		str	r3, [r2]
 110              	.LVL11:
 111              	.L7:
 242:Drivers/STM32F7xx_HAL_Driver/Src/stm32f7xx_hal_rcc.c ****   {
 112              		.loc 1 242 0
 113 006c 364B     		ldr	r3, .L28
 114 006e 1B68     		ldr	r3, [r3]
 115 0070 13F4003F 		tst	r3, #131072
 116 0074 06D0     		beq	.L24
 244:Drivers/STM32F7xx_HAL_Driver/Src/stm32f7xx_hal_rcc.c ****     {
 117              		.loc 1 244 0
 118 0076 FFF7FEFF 		bl	HAL_GetTick
 119              	.LVL12:
ARM GAS  /tmp/cc4OTmQk.s 			page 9


 120 007a 001B     		subs	r0, r0, r4
 121 007c 6428     		cmp	r0, #100
 122 007e F5D9     		bls	.L7
 246:Drivers/STM32F7xx_HAL_Driver/Src/stm32f7xx_hal_rcc.c ****     }
 123              		.loc 1 246 0
 124 0080 0323     		movs	r3, #3
 125 0082 D1E7     		b	.L3
 126              	.L24:
 251:Drivers/STM32F7xx_HAL_Driver/Src/stm32f7xx_hal_rcc.c **** 
 127              		.loc 1 251 0
 128 0084 FFF7FEFF 		bl	HAL_GetTick
 129              	.LVL13:
 130 0088 0446     		mov	r4, r0
 131              	.LVL14:
 254:Drivers/STM32F7xx_HAL_Driver/Src/stm32f7xx_hal_rcc.c **** 
 132              		.loc 1 254 0
 133 008a 2F4A     		ldr	r2, .L28
 134 008c 1368     		ldr	r3, [r2]
 135 008e 23F08073 		bic	r3, r3, #16777216
 136 0092 1360     		str	r3, [r2]
 137              	.LVL15:
 138              	.L9:
 257:Drivers/STM32F7xx_HAL_Driver/Src/stm32f7xx_hal_rcc.c ****   {
 139              		.loc 1 257 0
 140 0094 2C4B     		ldr	r3, .L28
 141 0096 1B68     		ldr	r3, [r3]
 142 0098 13F0007F 		tst	r3, #33554432
 143 009c 06D0     		beq	.L25
 259:Drivers/STM32F7xx_HAL_Driver/Src/stm32f7xx_hal_rcc.c ****     {
 144              		.loc 1 259 0
 145 009e FFF7FEFF 		bl	HAL_GetTick
 146              	.LVL16:
 147 00a2 001B     		subs	r0, r0, r4
 148 00a4 0228     		cmp	r0, #2
 149 00a6 F5D9     		bls	.L9
 261:Drivers/STM32F7xx_HAL_Driver/Src/stm32f7xx_hal_rcc.c ****     }
 150              		.loc 1 261 0
 151 00a8 0323     		movs	r3, #3
 152 00aa BDE7     		b	.L3
 153              	.L25:
 266:Drivers/STM32F7xx_HAL_Driver/Src/stm32f7xx_hal_rcc.c **** 
 154              		.loc 1 266 0
 155 00ac FFF7FEFF 		bl	HAL_GetTick
 156              	.LVL17:
 157 00b0 0446     		mov	r4, r0
 158              	.LVL18:
 269:Drivers/STM32F7xx_HAL_Driver/Src/stm32f7xx_hal_rcc.c **** 
 159              		.loc 1 269 0
 160 00b2 254A     		ldr	r2, .L28
 161 00b4 1368     		ldr	r3, [r2]
 162 00b6 23F08063 		bic	r3, r3, #67108864
 163 00ba 1360     		str	r3, [r2]
 164              	.LVL19:
 165              	.L11:
 272:Drivers/STM32F7xx_HAL_Driver/Src/stm32f7xx_hal_rcc.c ****   {
 166              		.loc 1 272 0
 167 00bc 224B     		ldr	r3, .L28
ARM GAS  /tmp/cc4OTmQk.s 			page 10


 168 00be 1B68     		ldr	r3, [r3]
 169 00c0 13F0006F 		tst	r3, #134217728
 170 00c4 06D0     		beq	.L26
 274:Drivers/STM32F7xx_HAL_Driver/Src/stm32f7xx_hal_rcc.c ****     {
 171              		.loc 1 274 0
 172 00c6 FFF7FEFF 		bl	HAL_GetTick
 173              	.LVL20:
 174 00ca 001B     		subs	r0, r0, r4
 175 00cc 6428     		cmp	r0, #100
 176 00ce F5D9     		bls	.L11
 276:Drivers/STM32F7xx_HAL_Driver/Src/stm32f7xx_hal_rcc.c ****     }
 177              		.loc 1 276 0
 178 00d0 0323     		movs	r3, #3
 179 00d2 A9E7     		b	.L3
 180              	.L26:
 281:Drivers/STM32F7xx_HAL_Driver/Src/stm32f7xx_hal_rcc.c **** 
 181              		.loc 1 281 0
 182 00d4 FFF7FEFF 		bl	HAL_GetTick
 183              	.LVL21:
 184 00d8 0446     		mov	r4, r0
 185              	.LVL22:
 284:Drivers/STM32F7xx_HAL_Driver/Src/stm32f7xx_hal_rcc.c **** 
 186              		.loc 1 284 0
 187 00da 1B4A     		ldr	r2, .L28
 188 00dc 1368     		ldr	r3, [r2]
 189 00de 23F08053 		bic	r3, r3, #268435456
 190 00e2 1360     		str	r3, [r2]
 191              	.LVL23:
 192              	.L13:
 287:Drivers/STM32F7xx_HAL_Driver/Src/stm32f7xx_hal_rcc.c ****   {
 193              		.loc 1 287 0
 194 00e4 184B     		ldr	r3, .L28
 195 00e6 1B68     		ldr	r3, [r3]
 196 00e8 13F0005F 		tst	r3, #536870912
 197 00ec 06D0     		beq	.L27
 289:Drivers/STM32F7xx_HAL_Driver/Src/stm32f7xx_hal_rcc.c ****     {
 198              		.loc 1 289 0
 199 00ee FFF7FEFF 		bl	HAL_GetTick
 200              	.LVL24:
 201 00f2 001B     		subs	r0, r0, r4
 202 00f4 6428     		cmp	r0, #100
 203 00f6 F5D9     		bls	.L13
 291:Drivers/STM32F7xx_HAL_Driver/Src/stm32f7xx_hal_rcc.c ****     }
 204              		.loc 1 291 0
 205 00f8 0323     		movs	r3, #3
 206 00fa 95E7     		b	.L3
 207              	.L27:
 296:Drivers/STM32F7xx_HAL_Driver/Src/stm32f7xx_hal_rcc.c **** 
 208              		.loc 1 296 0
 209 00fc 124B     		ldr	r3, .L28
 210 00fe 134A     		ldr	r2, .L28+4
 211 0100 5A60     		str	r2, [r3, #4]
 299:Drivers/STM32F7xx_HAL_Driver/Src/stm32f7xx_hal_rcc.c **** 
 212              		.loc 1 299 0
 213 0102 103A     		subs	r2, r2, #16
 214 0104 C3F88420 		str	r2, [r3, #132]
 302:Drivers/STM32F7xx_HAL_Driver/Src/stm32f7xx_hal_rcc.c **** 
ARM GAS  /tmp/cc4OTmQk.s 			page 11


 215              		.loc 1 302 0
 216 0108 C3F88820 		str	r2, [r3, #136]
 305:Drivers/STM32F7xx_HAL_Driver/Src/stm32f7xx_hal_rcc.c **** 
 217              		.loc 1 305 0
 218 010c DA68     		ldr	r2, [r3, #12]
 219 010e 22F4FE42 		bic	r2, r2, #32512
 220 0112 DA60     		str	r2, [r3, #12]
 308:Drivers/STM32F7xx_HAL_Driver/Src/stm32f7xx_hal_rcc.c **** 
 221              		.loc 1 308 0
 222 0114 DA68     		ldr	r2, [r3, #12]
 223 0116 42F47F02 		orr	r2, r2, #16711680
 224 011a DA60     		str	r2, [r3, #12]
 311:Drivers/STM32F7xx_HAL_Driver/Src/stm32f7xx_hal_rcc.c **** 
 225              		.loc 1 311 0
 226 011c 5A6F     		ldr	r2, [r3, #116]
 227 011e 22F00102 		bic	r2, r2, #1
 228 0122 5A67     		str	r2, [r3, #116]
 314:Drivers/STM32F7xx_HAL_Driver/Src/stm32f7xx_hal_rcc.c **** 
 229              		.loc 1 314 0
 230 0124 5A6F     		ldr	r2, [r3, #116]
 231 0126 42F08072 		orr	r2, r2, #16777216
 232 012a 5A67     		str	r2, [r3, #116]
 317:Drivers/STM32F7xx_HAL_Driver/Src/stm32f7xx_hal_rcc.c **** 
 233              		.loc 1 317 0
 234 012c 084A     		ldr	r2, .L28+8
 235 012e 094B     		ldr	r3, .L28+12
 236 0130 1A60     		str	r2, [r3]
 320:Drivers/STM32F7xx_HAL_Driver/Src/stm32f7xx_hal_rcc.c ****   {
 237              		.loc 1 320 0
 238 0132 094B     		ldr	r3, .L28+16
 239 0134 1868     		ldr	r0, [r3]
 240 0136 FFF7FEFF 		bl	HAL_InitTick
 241              	.LVL25:
 242 013a 0346     		mov	r3, r0
 243 013c 0028     		cmp	r0, #0
 244 013e 3FF473AF 		beq	.L3
 322:Drivers/STM32F7xx_HAL_Driver/Src/stm32f7xx_hal_rcc.c ****   }
 245              		.loc 1 322 0
 246 0142 0123     		movs	r3, #1
 247 0144 70E7     		b	.L3
 248              	.L29:
 249 0146 00BF     		.align	2
 250              	.L28:
 251 0148 00380240 		.word	1073887232
 252 014c 10300024 		.word	603992080
 253 0150 0024F400 		.word	16000000
 254 0154 00000000 		.word	SystemCoreClock
 255 0158 00000000 		.word	uwTickPrio
 256              		.cfi_endproc
 257              	.LFE141:
 259              		.section	.text.HAL_RCC_OscConfig,"ax",%progbits
 260              		.align	1
 261              		.global	HAL_RCC_OscConfig
 262              		.syntax unified
 263              		.thumb
 264              		.thumb_func
 265              		.fpu fpv5-d16
ARM GAS  /tmp/cc4OTmQk.s 			page 12


 267              	HAL_RCC_OscConfig:
 268              	.LFB142:
 329:Drivers/STM32F7xx_HAL_Driver/Src/stm32f7xx_hal_rcc.c **** 
 330:Drivers/STM32F7xx_HAL_Driver/Src/stm32f7xx_hal_rcc.c **** /**
 331:Drivers/STM32F7xx_HAL_Driver/Src/stm32f7xx_hal_rcc.c ****   * @brief  Initializes the RCC Oscillators according to the specified parameters in the
 332:Drivers/STM32F7xx_HAL_Driver/Src/stm32f7xx_hal_rcc.c ****   *         RCC_OscInitTypeDef.
 333:Drivers/STM32F7xx_HAL_Driver/Src/stm32f7xx_hal_rcc.c ****   * @param  RCC_OscInitStruct pointer to an RCC_OscInitTypeDef structure that
 334:Drivers/STM32F7xx_HAL_Driver/Src/stm32f7xx_hal_rcc.c ****   *         contains the configuration information for the RCC Oscillators.
 335:Drivers/STM32F7xx_HAL_Driver/Src/stm32f7xx_hal_rcc.c ****   * @note   The PLL is not disabled when used as system clock.
 336:Drivers/STM32F7xx_HAL_Driver/Src/stm32f7xx_hal_rcc.c ****   * @note   Transitions LSE Bypass to LSE On and LSE On to LSE Bypass are not
 337:Drivers/STM32F7xx_HAL_Driver/Src/stm32f7xx_hal_rcc.c ****   *         supported by this function. User should request a transition to LSE Off
 338:Drivers/STM32F7xx_HAL_Driver/Src/stm32f7xx_hal_rcc.c ****   *         first and then LSE On or LSE Bypass.
 339:Drivers/STM32F7xx_HAL_Driver/Src/stm32f7xx_hal_rcc.c ****   * @note   Transition HSE Bypass to HSE On and HSE On to HSE Bypass are not
 340:Drivers/STM32F7xx_HAL_Driver/Src/stm32f7xx_hal_rcc.c ****   *         supported by this function. User should request a transition to HSE Off
 341:Drivers/STM32F7xx_HAL_Driver/Src/stm32f7xx_hal_rcc.c ****   *         first and then HSE On or HSE Bypass.
 342:Drivers/STM32F7xx_HAL_Driver/Src/stm32f7xx_hal_rcc.c ****   * @retval HAL status
 343:Drivers/STM32F7xx_HAL_Driver/Src/stm32f7xx_hal_rcc.c ****   */
 344:Drivers/STM32F7xx_HAL_Driver/Src/stm32f7xx_hal_rcc.c **** HAL_StatusTypeDef HAL_RCC_OscConfig(RCC_OscInitTypeDef  *RCC_OscInitStruct)
 345:Drivers/STM32F7xx_HAL_Driver/Src/stm32f7xx_hal_rcc.c **** {
 269              		.loc 1 345 0
 270              		.cfi_startproc
 271              		@ args = 0, pretend = 0, frame = 8
 272              		@ frame_needed = 0, uses_anonymous_args = 0
 273              	.LVL26:
 346:Drivers/STM32F7xx_HAL_Driver/Src/stm32f7xx_hal_rcc.c ****   uint32_t tickstart;
 347:Drivers/STM32F7xx_HAL_Driver/Src/stm32f7xx_hal_rcc.c ****   uint32_t pll_config;
 348:Drivers/STM32F7xx_HAL_Driver/Src/stm32f7xx_hal_rcc.c ****   FlagStatus pwrclkchanged = RESET;
 349:Drivers/STM32F7xx_HAL_Driver/Src/stm32f7xx_hal_rcc.c **** 
 350:Drivers/STM32F7xx_HAL_Driver/Src/stm32f7xx_hal_rcc.c ****   /* Check Null pointer */
 351:Drivers/STM32F7xx_HAL_Driver/Src/stm32f7xx_hal_rcc.c ****   if (RCC_OscInitStruct == NULL)
 274              		.loc 1 351 0
 275 0000 0028     		cmp	r0, #0
 276 0002 00F01282 		beq	.L82
 345:Drivers/STM32F7xx_HAL_Driver/Src/stm32f7xx_hal_rcc.c ****   uint32_t tickstart;
 277              		.loc 1 345 0
 278 0006 70B5     		push	{r4, r5, r6, lr}
 279              	.LCFI1:
 280              		.cfi_def_cfa_offset 16
 281              		.cfi_offset 4, -16
 282              		.cfi_offset 5, -12
 283              		.cfi_offset 6, -8
 284              		.cfi_offset 14, -4
 285 0008 82B0     		sub	sp, sp, #8
 286              	.LCFI2:
 287              		.cfi_def_cfa_offset 24
 288 000a 0446     		mov	r4, r0
 352:Drivers/STM32F7xx_HAL_Driver/Src/stm32f7xx_hal_rcc.c ****   {
 353:Drivers/STM32F7xx_HAL_Driver/Src/stm32f7xx_hal_rcc.c ****     return HAL_ERROR;
 354:Drivers/STM32F7xx_HAL_Driver/Src/stm32f7xx_hal_rcc.c ****   }
 355:Drivers/STM32F7xx_HAL_Driver/Src/stm32f7xx_hal_rcc.c **** 
 356:Drivers/STM32F7xx_HAL_Driver/Src/stm32f7xx_hal_rcc.c ****   /* Check the parameters */
 357:Drivers/STM32F7xx_HAL_Driver/Src/stm32f7xx_hal_rcc.c ****   assert_param(IS_RCC_OSCILLATORTYPE(RCC_OscInitStruct->OscillatorType));
 358:Drivers/STM32F7xx_HAL_Driver/Src/stm32f7xx_hal_rcc.c **** 
 359:Drivers/STM32F7xx_HAL_Driver/Src/stm32f7xx_hal_rcc.c ****   /*------------------------------- HSE Configuration ------------------------*/
 360:Drivers/STM32F7xx_HAL_Driver/Src/stm32f7xx_hal_rcc.c ****   if (((RCC_OscInitStruct->OscillatorType) & RCC_OSCILLATORTYPE_HSE) == RCC_OSCILLATORTYPE_HSE)
 289              		.loc 1 360 0
 290 000c 0368     		ldr	r3, [r0]
ARM GAS  /tmp/cc4OTmQk.s 			page 13


 291 000e 13F0010F 		tst	r3, #1
 292 0012 3AD0     		beq	.L32
 361:Drivers/STM32F7xx_HAL_Driver/Src/stm32f7xx_hal_rcc.c ****   {
 362:Drivers/STM32F7xx_HAL_Driver/Src/stm32f7xx_hal_rcc.c ****     /* Check the parameters */
 363:Drivers/STM32F7xx_HAL_Driver/Src/stm32f7xx_hal_rcc.c ****     assert_param(IS_RCC_HSE(RCC_OscInitStruct->HSEState));
 364:Drivers/STM32F7xx_HAL_Driver/Src/stm32f7xx_hal_rcc.c ****     /* When the HSE is used as system clock or clock source for PLL, It can not be disabled */
 365:Drivers/STM32F7xx_HAL_Driver/Src/stm32f7xx_hal_rcc.c ****     if ((__HAL_RCC_GET_SYSCLK_SOURCE() == RCC_SYSCLKSOURCE_STATUS_HSE)
 293              		.loc 1 365 0
 294 0014 A24B     		ldr	r3, .L129
 295 0016 9B68     		ldr	r3, [r3, #8]
 296 0018 03F00C03 		and	r3, r3, #12
 297 001c 042B     		cmp	r3, #4
 298 001e 2BD0     		beq	.L33
 366:Drivers/STM32F7xx_HAL_Driver/Src/stm32f7xx_hal_rcc.c ****         || ((__HAL_RCC_GET_SYSCLK_SOURCE() == RCC_SYSCLKSOURCE_STATUS_PLLCLK) && ((RCC->PLLCFGR & R
 299              		.loc 1 366 0
 300 0020 9F4B     		ldr	r3, .L129
 301 0022 9B68     		ldr	r3, [r3, #8]
 302 0024 03F00C03 		and	r3, r3, #12
 303 0028 082B     		cmp	r3, #8
 304 002a 20D0     		beq	.L110
 305              	.L34:
 367:Drivers/STM32F7xx_HAL_Driver/Src/stm32f7xx_hal_rcc.c ****     {
 368:Drivers/STM32F7xx_HAL_Driver/Src/stm32f7xx_hal_rcc.c ****       if ((__HAL_RCC_GET_FLAG(RCC_FLAG_HSERDY) != RESET) && (RCC_OscInitStruct->HSEState == RCC_HSE
 369:Drivers/STM32F7xx_HAL_Driver/Src/stm32f7xx_hal_rcc.c ****       {
 370:Drivers/STM32F7xx_HAL_Driver/Src/stm32f7xx_hal_rcc.c ****         return HAL_ERROR;
 371:Drivers/STM32F7xx_HAL_Driver/Src/stm32f7xx_hal_rcc.c ****       }
 372:Drivers/STM32F7xx_HAL_Driver/Src/stm32f7xx_hal_rcc.c ****     }
 373:Drivers/STM32F7xx_HAL_Driver/Src/stm32f7xx_hal_rcc.c ****     else
 374:Drivers/STM32F7xx_HAL_Driver/Src/stm32f7xx_hal_rcc.c ****     {
 375:Drivers/STM32F7xx_HAL_Driver/Src/stm32f7xx_hal_rcc.c ****       /* Set the new HSE configuration ---------------------------------------*/
 376:Drivers/STM32F7xx_HAL_Driver/Src/stm32f7xx_hal_rcc.c ****       __HAL_RCC_HSE_CONFIG(RCC_OscInitStruct->HSEState);
 306              		.loc 1 376 0
 307 002c 6368     		ldr	r3, [r4, #4]
 308 002e B3F5803F 		cmp	r3, #65536
 309 0032 50D0     		beq	.L111
 310              		.loc 1 376 0 is_stmt 0 discriminator 2
 311 0034 002B     		cmp	r3, #0
 312 0036 54D1     		bne	.L37
 313              		.loc 1 376 0 discriminator 3
 314 0038 994B     		ldr	r3, .L129
 315 003a 1A68     		ldr	r2, [r3]
 316 003c 22F48032 		bic	r2, r2, #65536
 317 0040 1A60     		str	r2, [r3]
 318 0042 1A68     		ldr	r2, [r3]
 319 0044 22F48022 		bic	r2, r2, #262144
 320 0048 1A60     		str	r2, [r3]
 321              	.L36:
 377:Drivers/STM32F7xx_HAL_Driver/Src/stm32f7xx_hal_rcc.c **** 
 378:Drivers/STM32F7xx_HAL_Driver/Src/stm32f7xx_hal_rcc.c ****       /* Check the HSE State */
 379:Drivers/STM32F7xx_HAL_Driver/Src/stm32f7xx_hal_rcc.c ****       if (RCC_OscInitStruct->HSEState != RCC_HSE_OFF)
 322              		.loc 1 379 0 is_stmt 1
 323 004a 6368     		ldr	r3, [r4, #4]
 324 004c 002B     		cmp	r3, #0
 325 004e 5FD0     		beq	.L39
 380:Drivers/STM32F7xx_HAL_Driver/Src/stm32f7xx_hal_rcc.c ****       {
 381:Drivers/STM32F7xx_HAL_Driver/Src/stm32f7xx_hal_rcc.c ****         /* Get Start Tick*/
 382:Drivers/STM32F7xx_HAL_Driver/Src/stm32f7xx_hal_rcc.c ****         tickstart = HAL_GetTick();
ARM GAS  /tmp/cc4OTmQk.s 			page 14


 326              		.loc 1 382 0
 327 0050 FFF7FEFF 		bl	HAL_GetTick
 328              	.LVL27:
 329 0054 0546     		mov	r5, r0
 330              	.LVL28:
 331              	.L40:
 383:Drivers/STM32F7xx_HAL_Driver/Src/stm32f7xx_hal_rcc.c **** 
 384:Drivers/STM32F7xx_HAL_Driver/Src/stm32f7xx_hal_rcc.c ****         /* Wait till HSE is ready */
 385:Drivers/STM32F7xx_HAL_Driver/Src/stm32f7xx_hal_rcc.c ****         while (__HAL_RCC_GET_FLAG(RCC_FLAG_HSERDY) == RESET)
 332              		.loc 1 385 0
 333 0056 924B     		ldr	r3, .L129
 334 0058 1B68     		ldr	r3, [r3]
 335 005a 13F4003F 		tst	r3, #131072
 336 005e 14D1     		bne	.L32
 386:Drivers/STM32F7xx_HAL_Driver/Src/stm32f7xx_hal_rcc.c ****         {
 387:Drivers/STM32F7xx_HAL_Driver/Src/stm32f7xx_hal_rcc.c ****           if ((HAL_GetTick() - tickstart) > HSE_TIMEOUT_VALUE)
 337              		.loc 1 387 0
 338 0060 FFF7FEFF 		bl	HAL_GetTick
 339              	.LVL29:
 340 0064 401B     		subs	r0, r0, r5
 341 0066 6428     		cmp	r0, #100
 342 0068 F5D9     		bls	.L40
 388:Drivers/STM32F7xx_HAL_Driver/Src/stm32f7xx_hal_rcc.c ****           {
 389:Drivers/STM32F7xx_HAL_Driver/Src/stm32f7xx_hal_rcc.c ****             return HAL_TIMEOUT;
 343              		.loc 1 389 0
 344 006a 0320     		movs	r0, #3
 345 006c E2E1     		b	.L31
 346              	.LVL30:
 347              	.L110:
 366:Drivers/STM32F7xx_HAL_Driver/Src/stm32f7xx_hal_rcc.c ****     {
 348              		.loc 1 366 0 discriminator 1
 349 006e 8C4B     		ldr	r3, .L129
 350 0070 5B68     		ldr	r3, [r3, #4]
 351 0072 13F4800F 		tst	r3, #4194304
 352 0076 D9D0     		beq	.L34
 353              	.L33:
 368:Drivers/STM32F7xx_HAL_Driver/Src/stm32f7xx_hal_rcc.c ****       {
 354              		.loc 1 368 0
 355 0078 894B     		ldr	r3, .L129
 356 007a 1B68     		ldr	r3, [r3]
 357 007c 13F4003F 		tst	r3, #131072
 358 0080 03D0     		beq	.L32
 368:Drivers/STM32F7xx_HAL_Driver/Src/stm32f7xx_hal_rcc.c ****       {
 359              		.loc 1 368 0 is_stmt 0 discriminator 1
 360 0082 6368     		ldr	r3, [r4, #4]
 361 0084 002B     		cmp	r3, #0
 362 0086 00F0D281 		beq	.L112
 363              	.LVL31:
 364              	.L32:
 390:Drivers/STM32F7xx_HAL_Driver/Src/stm32f7xx_hal_rcc.c ****           }
 391:Drivers/STM32F7xx_HAL_Driver/Src/stm32f7xx_hal_rcc.c ****         }
 392:Drivers/STM32F7xx_HAL_Driver/Src/stm32f7xx_hal_rcc.c ****       }
 393:Drivers/STM32F7xx_HAL_Driver/Src/stm32f7xx_hal_rcc.c ****       else
 394:Drivers/STM32F7xx_HAL_Driver/Src/stm32f7xx_hal_rcc.c ****       {
 395:Drivers/STM32F7xx_HAL_Driver/Src/stm32f7xx_hal_rcc.c ****         /* Get Start Tick*/
 396:Drivers/STM32F7xx_HAL_Driver/Src/stm32f7xx_hal_rcc.c ****         tickstart = HAL_GetTick();
 397:Drivers/STM32F7xx_HAL_Driver/Src/stm32f7xx_hal_rcc.c **** 
ARM GAS  /tmp/cc4OTmQk.s 			page 15


 398:Drivers/STM32F7xx_HAL_Driver/Src/stm32f7xx_hal_rcc.c ****         /* Wait till HSE is bypassed or disabled */
 399:Drivers/STM32F7xx_HAL_Driver/Src/stm32f7xx_hal_rcc.c ****         while (__HAL_RCC_GET_FLAG(RCC_FLAG_HSERDY) != RESET)
 400:Drivers/STM32F7xx_HAL_Driver/Src/stm32f7xx_hal_rcc.c ****         {
 401:Drivers/STM32F7xx_HAL_Driver/Src/stm32f7xx_hal_rcc.c ****           if ((HAL_GetTick() - tickstart) > HSE_TIMEOUT_VALUE)
 402:Drivers/STM32F7xx_HAL_Driver/Src/stm32f7xx_hal_rcc.c ****           {
 403:Drivers/STM32F7xx_HAL_Driver/Src/stm32f7xx_hal_rcc.c ****             return HAL_TIMEOUT;
 404:Drivers/STM32F7xx_HAL_Driver/Src/stm32f7xx_hal_rcc.c ****           }
 405:Drivers/STM32F7xx_HAL_Driver/Src/stm32f7xx_hal_rcc.c ****         }
 406:Drivers/STM32F7xx_HAL_Driver/Src/stm32f7xx_hal_rcc.c ****       }
 407:Drivers/STM32F7xx_HAL_Driver/Src/stm32f7xx_hal_rcc.c ****     }
 408:Drivers/STM32F7xx_HAL_Driver/Src/stm32f7xx_hal_rcc.c ****   }
 409:Drivers/STM32F7xx_HAL_Driver/Src/stm32f7xx_hal_rcc.c ****   /*----------------------------- HSI Configuration --------------------------*/
 410:Drivers/STM32F7xx_HAL_Driver/Src/stm32f7xx_hal_rcc.c ****   if (((RCC_OscInitStruct->OscillatorType) & RCC_OSCILLATORTYPE_HSI) == RCC_OSCILLATORTYPE_HSI)
 365              		.loc 1 410 0 is_stmt 1
 366 008a 2368     		ldr	r3, [r4]
 367 008c 13F0020F 		tst	r3, #2
 368 0090 64D0     		beq	.L44
 411:Drivers/STM32F7xx_HAL_Driver/Src/stm32f7xx_hal_rcc.c ****   {
 412:Drivers/STM32F7xx_HAL_Driver/Src/stm32f7xx_hal_rcc.c ****     /* Check the parameters */
 413:Drivers/STM32F7xx_HAL_Driver/Src/stm32f7xx_hal_rcc.c ****     assert_param(IS_RCC_HSI(RCC_OscInitStruct->HSIState));
 414:Drivers/STM32F7xx_HAL_Driver/Src/stm32f7xx_hal_rcc.c ****     assert_param(IS_RCC_CALIBRATION_VALUE(RCC_OscInitStruct->HSICalibrationValue));
 415:Drivers/STM32F7xx_HAL_Driver/Src/stm32f7xx_hal_rcc.c **** 
 416:Drivers/STM32F7xx_HAL_Driver/Src/stm32f7xx_hal_rcc.c ****     /* Check if HSI is used as system clock or as PLL source when PLL is selected as system clock *
 417:Drivers/STM32F7xx_HAL_Driver/Src/stm32f7xx_hal_rcc.c ****     if ((__HAL_RCC_GET_SYSCLK_SOURCE() == RCC_SYSCLKSOURCE_STATUS_HSI)
 369              		.loc 1 417 0
 370 0092 834B     		ldr	r3, .L129
 371 0094 9B68     		ldr	r3, [r3, #8]
 372 0096 13F00C0F 		tst	r3, #12
 373 009a 4DD0     		beq	.L45
 418:Drivers/STM32F7xx_HAL_Driver/Src/stm32f7xx_hal_rcc.c ****         || ((__HAL_RCC_GET_SYSCLK_SOURCE() == RCC_SYSCLKSOURCE_STATUS_PLLCLK) && ((RCC->PLLCFGR & R
 374              		.loc 1 418 0
 375 009c 804B     		ldr	r3, .L129
 376 009e 9B68     		ldr	r3, [r3, #8]
 377 00a0 03F00C03 		and	r3, r3, #12
 378 00a4 082B     		cmp	r3, #8
 379 00a6 42D0     		beq	.L113
 380              	.L46:
 419:Drivers/STM32F7xx_HAL_Driver/Src/stm32f7xx_hal_rcc.c ****     {
 420:Drivers/STM32F7xx_HAL_Driver/Src/stm32f7xx_hal_rcc.c ****       /* When HSI is used as system clock it will not disabled */
 421:Drivers/STM32F7xx_HAL_Driver/Src/stm32f7xx_hal_rcc.c ****       if ((__HAL_RCC_GET_FLAG(RCC_FLAG_HSIRDY) != RESET) && (RCC_OscInitStruct->HSIState != RCC_HSI
 422:Drivers/STM32F7xx_HAL_Driver/Src/stm32f7xx_hal_rcc.c ****       {
 423:Drivers/STM32F7xx_HAL_Driver/Src/stm32f7xx_hal_rcc.c ****         return HAL_ERROR;
 424:Drivers/STM32F7xx_HAL_Driver/Src/stm32f7xx_hal_rcc.c ****       }
 425:Drivers/STM32F7xx_HAL_Driver/Src/stm32f7xx_hal_rcc.c ****       /* Otherwise, just the calibration is allowed */
 426:Drivers/STM32F7xx_HAL_Driver/Src/stm32f7xx_hal_rcc.c ****       else
 427:Drivers/STM32F7xx_HAL_Driver/Src/stm32f7xx_hal_rcc.c ****       {
 428:Drivers/STM32F7xx_HAL_Driver/Src/stm32f7xx_hal_rcc.c ****         /* Adjusts the Internal High Speed oscillator (HSI) calibration value.*/
 429:Drivers/STM32F7xx_HAL_Driver/Src/stm32f7xx_hal_rcc.c ****         __HAL_RCC_HSI_CALIBRATIONVALUE_ADJUST(RCC_OscInitStruct->HSICalibrationValue);
 430:Drivers/STM32F7xx_HAL_Driver/Src/stm32f7xx_hal_rcc.c ****       }
 431:Drivers/STM32F7xx_HAL_Driver/Src/stm32f7xx_hal_rcc.c ****     }
 432:Drivers/STM32F7xx_HAL_Driver/Src/stm32f7xx_hal_rcc.c ****     else
 433:Drivers/STM32F7xx_HAL_Driver/Src/stm32f7xx_hal_rcc.c ****     {
 434:Drivers/STM32F7xx_HAL_Driver/Src/stm32f7xx_hal_rcc.c ****       /* Check the HSI State */
 435:Drivers/STM32F7xx_HAL_Driver/Src/stm32f7xx_hal_rcc.c ****       if ((RCC_OscInitStruct->HSIState) != RCC_HSI_OFF)
 381              		.loc 1 435 0
 382 00a8 E368     		ldr	r3, [r4, #12]
 383 00aa 002B     		cmp	r3, #0
ARM GAS  /tmp/cc4OTmQk.s 			page 16


 384 00ac 79D0     		beq	.L48
 436:Drivers/STM32F7xx_HAL_Driver/Src/stm32f7xx_hal_rcc.c ****       {
 437:Drivers/STM32F7xx_HAL_Driver/Src/stm32f7xx_hal_rcc.c ****         /* Enable the Internal High Speed oscillator (HSI). */
 438:Drivers/STM32F7xx_HAL_Driver/Src/stm32f7xx_hal_rcc.c ****         __HAL_RCC_HSI_ENABLE();
 385              		.loc 1 438 0
 386 00ae 7C4A     		ldr	r2, .L129
 387 00b0 1368     		ldr	r3, [r2]
 388 00b2 43F00103 		orr	r3, r3, #1
 389 00b6 1360     		str	r3, [r2]
 439:Drivers/STM32F7xx_HAL_Driver/Src/stm32f7xx_hal_rcc.c **** 
 440:Drivers/STM32F7xx_HAL_Driver/Src/stm32f7xx_hal_rcc.c ****         /* Get Start Tick*/
 441:Drivers/STM32F7xx_HAL_Driver/Src/stm32f7xx_hal_rcc.c ****         tickstart = HAL_GetTick();
 390              		.loc 1 441 0
 391 00b8 FFF7FEFF 		bl	HAL_GetTick
 392              	.LVL32:
 393 00bc 0546     		mov	r5, r0
 394              	.LVL33:
 395              	.L49:
 442:Drivers/STM32F7xx_HAL_Driver/Src/stm32f7xx_hal_rcc.c **** 
 443:Drivers/STM32F7xx_HAL_Driver/Src/stm32f7xx_hal_rcc.c ****         /* Wait till HSI is ready */
 444:Drivers/STM32F7xx_HAL_Driver/Src/stm32f7xx_hal_rcc.c ****         while (__HAL_RCC_GET_FLAG(RCC_FLAG_HSIRDY) == RESET)
 396              		.loc 1 444 0
 397 00be 784B     		ldr	r3, .L129
 398 00c0 1B68     		ldr	r3, [r3]
 399 00c2 13F0020F 		tst	r3, #2
 400 00c6 63D1     		bne	.L114
 445:Drivers/STM32F7xx_HAL_Driver/Src/stm32f7xx_hal_rcc.c ****         {
 446:Drivers/STM32F7xx_HAL_Driver/Src/stm32f7xx_hal_rcc.c ****           if ((HAL_GetTick() - tickstart) > HSI_TIMEOUT_VALUE)
 401              		.loc 1 446 0
 402 00c8 FFF7FEFF 		bl	HAL_GetTick
 403              	.LVL34:
 404 00cc 401B     		subs	r0, r0, r5
 405 00ce 0228     		cmp	r0, #2
 406 00d0 F5D9     		bls	.L49
 447:Drivers/STM32F7xx_HAL_Driver/Src/stm32f7xx_hal_rcc.c ****           {
 448:Drivers/STM32F7xx_HAL_Driver/Src/stm32f7xx_hal_rcc.c ****             return HAL_TIMEOUT;
 407              		.loc 1 448 0
 408 00d2 0320     		movs	r0, #3
 409 00d4 AEE1     		b	.L31
 410              	.LVL35:
 411              	.L111:
 376:Drivers/STM32F7xx_HAL_Driver/Src/stm32f7xx_hal_rcc.c **** 
 412              		.loc 1 376 0 discriminator 1
 413 00d6 724A     		ldr	r2, .L129
 414 00d8 1368     		ldr	r3, [r2]
 415 00da 43F48033 		orr	r3, r3, #65536
 416 00de 1360     		str	r3, [r2]
 417 00e0 B3E7     		b	.L36
 418              	.L37:
 376:Drivers/STM32F7xx_HAL_Driver/Src/stm32f7xx_hal_rcc.c **** 
 419              		.loc 1 376 0 is_stmt 0 discriminator 4
 420 00e2 B3F5A02F 		cmp	r3, #327680
 421 00e6 09D0     		beq	.L115
 376:Drivers/STM32F7xx_HAL_Driver/Src/stm32f7xx_hal_rcc.c **** 
 422              		.loc 1 376 0 discriminator 6
 423 00e8 6D4B     		ldr	r3, .L129
 424 00ea 1A68     		ldr	r2, [r3]
ARM GAS  /tmp/cc4OTmQk.s 			page 17


 425 00ec 22F48032 		bic	r2, r2, #65536
 426 00f0 1A60     		str	r2, [r3]
 427 00f2 1A68     		ldr	r2, [r3]
 428 00f4 22F48022 		bic	r2, r2, #262144
 429 00f8 1A60     		str	r2, [r3]
 430 00fa A6E7     		b	.L36
 431              	.L115:
 376:Drivers/STM32F7xx_HAL_Driver/Src/stm32f7xx_hal_rcc.c **** 
 432              		.loc 1 376 0 discriminator 5
 433 00fc 684B     		ldr	r3, .L129
 434 00fe 1A68     		ldr	r2, [r3]
 435 0100 42F48022 		orr	r2, r2, #262144
 436 0104 1A60     		str	r2, [r3]
 437 0106 1A68     		ldr	r2, [r3]
 438 0108 42F48032 		orr	r2, r2, #65536
 439 010c 1A60     		str	r2, [r3]
 440 010e 9CE7     		b	.L36
 441              	.L39:
 396:Drivers/STM32F7xx_HAL_Driver/Src/stm32f7xx_hal_rcc.c **** 
 442              		.loc 1 396 0 is_stmt 1
 443 0110 FFF7FEFF 		bl	HAL_GetTick
 444              	.LVL36:
 445 0114 0546     		mov	r5, r0
 446              	.LVL37:
 447              	.L42:
 399:Drivers/STM32F7xx_HAL_Driver/Src/stm32f7xx_hal_rcc.c ****         {
 448              		.loc 1 399 0
 449 0116 624B     		ldr	r3, .L129
 450 0118 1B68     		ldr	r3, [r3]
 451 011a 13F4003F 		tst	r3, #131072
 452 011e B4D0     		beq	.L32
 401:Drivers/STM32F7xx_HAL_Driver/Src/stm32f7xx_hal_rcc.c ****           {
 453              		.loc 1 401 0
 454 0120 FFF7FEFF 		bl	HAL_GetTick
 455              	.LVL38:
 456 0124 401B     		subs	r0, r0, r5
 457 0126 6428     		cmp	r0, #100
 458 0128 F5D9     		bls	.L42
 403:Drivers/STM32F7xx_HAL_Driver/Src/stm32f7xx_hal_rcc.c ****           }
 459              		.loc 1 403 0
 460 012a 0320     		movs	r0, #3
 461 012c 82E1     		b	.L31
 462              	.LVL39:
 463              	.L113:
 418:Drivers/STM32F7xx_HAL_Driver/Src/stm32f7xx_hal_rcc.c ****     {
 464              		.loc 1 418 0 discriminator 1
 465 012e 5C4B     		ldr	r3, .L129
 466 0130 5B68     		ldr	r3, [r3, #4]
 467 0132 13F4800F 		tst	r3, #4194304
 468 0136 B7D1     		bne	.L46
 469              	.L45:
 421:Drivers/STM32F7xx_HAL_Driver/Src/stm32f7xx_hal_rcc.c ****       {
 470              		.loc 1 421 0
 471 0138 594B     		ldr	r3, .L129
 472 013a 1B68     		ldr	r3, [r3]
 473 013c 13F0020F 		tst	r3, #2
 474 0140 04D0     		beq	.L47
ARM GAS  /tmp/cc4OTmQk.s 			page 18


 421:Drivers/STM32F7xx_HAL_Driver/Src/stm32f7xx_hal_rcc.c ****       {
 475              		.loc 1 421 0 is_stmt 0 discriminator 1
 476 0142 E368     		ldr	r3, [r4, #12]
 477 0144 012B     		cmp	r3, #1
 478 0146 01D0     		beq	.L47
 423:Drivers/STM32F7xx_HAL_Driver/Src/stm32f7xx_hal_rcc.c ****       }
 479              		.loc 1 423 0 is_stmt 1
 480 0148 0120     		movs	r0, #1
 481 014a 73E1     		b	.L31
 482              	.L47:
 429:Drivers/STM32F7xx_HAL_Driver/Src/stm32f7xx_hal_rcc.c ****       }
 483              		.loc 1 429 0
 484 014c 544A     		ldr	r2, .L129
 485 014e 1368     		ldr	r3, [r2]
 486 0150 23F0F803 		bic	r3, r3, #248
 487 0154 2169     		ldr	r1, [r4, #16]
 488 0156 43EAC103 		orr	r3, r3, r1, lsl #3
 489 015a 1360     		str	r3, [r2]
 490              	.L44:
 449:Drivers/STM32F7xx_HAL_Driver/Src/stm32f7xx_hal_rcc.c ****           }
 450:Drivers/STM32F7xx_HAL_Driver/Src/stm32f7xx_hal_rcc.c ****         }
 451:Drivers/STM32F7xx_HAL_Driver/Src/stm32f7xx_hal_rcc.c **** 
 452:Drivers/STM32F7xx_HAL_Driver/Src/stm32f7xx_hal_rcc.c ****         /* Adjusts the Internal High Speed oscillator (HSI) calibration value.*/
 453:Drivers/STM32F7xx_HAL_Driver/Src/stm32f7xx_hal_rcc.c ****         __HAL_RCC_HSI_CALIBRATIONVALUE_ADJUST(RCC_OscInitStruct->HSICalibrationValue);
 454:Drivers/STM32F7xx_HAL_Driver/Src/stm32f7xx_hal_rcc.c ****       }
 455:Drivers/STM32F7xx_HAL_Driver/Src/stm32f7xx_hal_rcc.c ****       else
 456:Drivers/STM32F7xx_HAL_Driver/Src/stm32f7xx_hal_rcc.c ****       {
 457:Drivers/STM32F7xx_HAL_Driver/Src/stm32f7xx_hal_rcc.c ****         /* Disable the Internal High Speed oscillator (HSI). */
 458:Drivers/STM32F7xx_HAL_Driver/Src/stm32f7xx_hal_rcc.c ****         __HAL_RCC_HSI_DISABLE();
 459:Drivers/STM32F7xx_HAL_Driver/Src/stm32f7xx_hal_rcc.c **** 
 460:Drivers/STM32F7xx_HAL_Driver/Src/stm32f7xx_hal_rcc.c ****         /* Get Start Tick*/
 461:Drivers/STM32F7xx_HAL_Driver/Src/stm32f7xx_hal_rcc.c ****         tickstart = HAL_GetTick();
 462:Drivers/STM32F7xx_HAL_Driver/Src/stm32f7xx_hal_rcc.c **** 
 463:Drivers/STM32F7xx_HAL_Driver/Src/stm32f7xx_hal_rcc.c ****         /* Wait till HSI is ready */
 464:Drivers/STM32F7xx_HAL_Driver/Src/stm32f7xx_hal_rcc.c ****         while (__HAL_RCC_GET_FLAG(RCC_FLAG_HSIRDY) != RESET)
 465:Drivers/STM32F7xx_HAL_Driver/Src/stm32f7xx_hal_rcc.c ****         {
 466:Drivers/STM32F7xx_HAL_Driver/Src/stm32f7xx_hal_rcc.c ****           if ((HAL_GetTick() - tickstart) > HSI_TIMEOUT_VALUE)
 467:Drivers/STM32F7xx_HAL_Driver/Src/stm32f7xx_hal_rcc.c ****           {
 468:Drivers/STM32F7xx_HAL_Driver/Src/stm32f7xx_hal_rcc.c ****             return HAL_TIMEOUT;
 469:Drivers/STM32F7xx_HAL_Driver/Src/stm32f7xx_hal_rcc.c ****           }
 470:Drivers/STM32F7xx_HAL_Driver/Src/stm32f7xx_hal_rcc.c ****         }
 471:Drivers/STM32F7xx_HAL_Driver/Src/stm32f7xx_hal_rcc.c ****       }
 472:Drivers/STM32F7xx_HAL_Driver/Src/stm32f7xx_hal_rcc.c ****     }
 473:Drivers/STM32F7xx_HAL_Driver/Src/stm32f7xx_hal_rcc.c ****   }
 474:Drivers/STM32F7xx_HAL_Driver/Src/stm32f7xx_hal_rcc.c ****   /*------------------------------ LSI Configuration -------------------------*/
 475:Drivers/STM32F7xx_HAL_Driver/Src/stm32f7xx_hal_rcc.c ****   if (((RCC_OscInitStruct->OscillatorType) & RCC_OSCILLATORTYPE_LSI) == RCC_OSCILLATORTYPE_LSI)
 491              		.loc 1 475 0
 492 015c 2368     		ldr	r3, [r4]
 493 015e 13F0080F 		tst	r3, #8
 494 0162 46D0     		beq	.L53
 476:Drivers/STM32F7xx_HAL_Driver/Src/stm32f7xx_hal_rcc.c ****   {
 477:Drivers/STM32F7xx_HAL_Driver/Src/stm32f7xx_hal_rcc.c ****     /* Check the parameters */
 478:Drivers/STM32F7xx_HAL_Driver/Src/stm32f7xx_hal_rcc.c ****     assert_param(IS_RCC_LSI(RCC_OscInitStruct->LSIState));
 479:Drivers/STM32F7xx_HAL_Driver/Src/stm32f7xx_hal_rcc.c **** 
 480:Drivers/STM32F7xx_HAL_Driver/Src/stm32f7xx_hal_rcc.c ****     /* Check the LSI State */
 481:Drivers/STM32F7xx_HAL_Driver/Src/stm32f7xx_hal_rcc.c ****     if ((RCC_OscInitStruct->LSIState) != RCC_LSI_OFF)
 495              		.loc 1 481 0
ARM GAS  /tmp/cc4OTmQk.s 			page 19


 496 0164 6369     		ldr	r3, [r4, #20]
 497 0166 83B3     		cbz	r3, .L54
 482:Drivers/STM32F7xx_HAL_Driver/Src/stm32f7xx_hal_rcc.c ****     {
 483:Drivers/STM32F7xx_HAL_Driver/Src/stm32f7xx_hal_rcc.c ****       /* Enable the Internal Low Speed oscillator (LSI). */
 484:Drivers/STM32F7xx_HAL_Driver/Src/stm32f7xx_hal_rcc.c ****       __HAL_RCC_LSI_ENABLE();
 498              		.loc 1 484 0
 499 0168 4D4A     		ldr	r2, .L129
 500 016a 536F     		ldr	r3, [r2, #116]
 501 016c 43F00103 		orr	r3, r3, #1
 502 0170 5367     		str	r3, [r2, #116]
 485:Drivers/STM32F7xx_HAL_Driver/Src/stm32f7xx_hal_rcc.c **** 
 486:Drivers/STM32F7xx_HAL_Driver/Src/stm32f7xx_hal_rcc.c ****       /* Get Start Tick*/
 487:Drivers/STM32F7xx_HAL_Driver/Src/stm32f7xx_hal_rcc.c ****       tickstart = HAL_GetTick();
 503              		.loc 1 487 0
 504 0172 FFF7FEFF 		bl	HAL_GetTick
 505              	.LVL40:
 506 0176 0546     		mov	r5, r0
 507              	.LVL41:
 508              	.L55:
 488:Drivers/STM32F7xx_HAL_Driver/Src/stm32f7xx_hal_rcc.c **** 
 489:Drivers/STM32F7xx_HAL_Driver/Src/stm32f7xx_hal_rcc.c ****       /* Wait till LSI is ready */
 490:Drivers/STM32F7xx_HAL_Driver/Src/stm32f7xx_hal_rcc.c ****       while (__HAL_RCC_GET_FLAG(RCC_FLAG_LSIRDY) == RESET)
 509              		.loc 1 490 0
 510 0178 494B     		ldr	r3, .L129
 511 017a 5B6F     		ldr	r3, [r3, #116]
 512 017c 13F0020F 		tst	r3, #2
 513 0180 37D1     		bne	.L53
 491:Drivers/STM32F7xx_HAL_Driver/Src/stm32f7xx_hal_rcc.c ****       {
 492:Drivers/STM32F7xx_HAL_Driver/Src/stm32f7xx_hal_rcc.c ****         if ((HAL_GetTick() - tickstart) > LSI_TIMEOUT_VALUE)
 514              		.loc 1 492 0
 515 0182 FFF7FEFF 		bl	HAL_GetTick
 516              	.LVL42:
 517 0186 401B     		subs	r0, r0, r5
 518 0188 0228     		cmp	r0, #2
 519 018a F5D9     		bls	.L55
 493:Drivers/STM32F7xx_HAL_Driver/Src/stm32f7xx_hal_rcc.c ****         {
 494:Drivers/STM32F7xx_HAL_Driver/Src/stm32f7xx_hal_rcc.c ****           return HAL_TIMEOUT;
 520              		.loc 1 494 0
 521 018c 0320     		movs	r0, #3
 522 018e 51E1     		b	.L31
 523              	.L114:
 453:Drivers/STM32F7xx_HAL_Driver/Src/stm32f7xx_hal_rcc.c ****       }
 524              		.loc 1 453 0
 525 0190 434A     		ldr	r2, .L129
 526 0192 1368     		ldr	r3, [r2]
 527 0194 23F0F803 		bic	r3, r3, #248
 528 0198 2169     		ldr	r1, [r4, #16]
 529 019a 43EAC103 		orr	r3, r3, r1, lsl #3
 530 019e 1360     		str	r3, [r2]
 531 01a0 DCE7     		b	.L44
 532              	.LVL43:
 533              	.L48:
 458:Drivers/STM32F7xx_HAL_Driver/Src/stm32f7xx_hal_rcc.c **** 
 534              		.loc 1 458 0
 535 01a2 3F4A     		ldr	r2, .L129
 536 01a4 1368     		ldr	r3, [r2]
 537 01a6 23F00103 		bic	r3, r3, #1
ARM GAS  /tmp/cc4OTmQk.s 			page 20


 538 01aa 1360     		str	r3, [r2]
 461:Drivers/STM32F7xx_HAL_Driver/Src/stm32f7xx_hal_rcc.c **** 
 539              		.loc 1 461 0
 540 01ac FFF7FEFF 		bl	HAL_GetTick
 541              	.LVL44:
 542 01b0 0546     		mov	r5, r0
 543              	.LVL45:
 544              	.L51:
 464:Drivers/STM32F7xx_HAL_Driver/Src/stm32f7xx_hal_rcc.c ****         {
 545              		.loc 1 464 0
 546 01b2 3B4B     		ldr	r3, .L129
 547 01b4 1B68     		ldr	r3, [r3]
 548 01b6 13F0020F 		tst	r3, #2
 549 01ba CFD0     		beq	.L44
 466:Drivers/STM32F7xx_HAL_Driver/Src/stm32f7xx_hal_rcc.c ****           {
 550              		.loc 1 466 0
 551 01bc FFF7FEFF 		bl	HAL_GetTick
 552              	.LVL46:
 553 01c0 401B     		subs	r0, r0, r5
 554 01c2 0228     		cmp	r0, #2
 555 01c4 F5D9     		bls	.L51
 468:Drivers/STM32F7xx_HAL_Driver/Src/stm32f7xx_hal_rcc.c ****           }
 556              		.loc 1 468 0
 557 01c6 0320     		movs	r0, #3
 558 01c8 34E1     		b	.L31
 559              	.LVL47:
 560              	.L54:
 495:Drivers/STM32F7xx_HAL_Driver/Src/stm32f7xx_hal_rcc.c ****         }
 496:Drivers/STM32F7xx_HAL_Driver/Src/stm32f7xx_hal_rcc.c ****       }
 497:Drivers/STM32F7xx_HAL_Driver/Src/stm32f7xx_hal_rcc.c ****     }
 498:Drivers/STM32F7xx_HAL_Driver/Src/stm32f7xx_hal_rcc.c ****     else
 499:Drivers/STM32F7xx_HAL_Driver/Src/stm32f7xx_hal_rcc.c ****     {
 500:Drivers/STM32F7xx_HAL_Driver/Src/stm32f7xx_hal_rcc.c ****       /* Disable the Internal Low Speed oscillator (LSI). */
 501:Drivers/STM32F7xx_HAL_Driver/Src/stm32f7xx_hal_rcc.c ****       __HAL_RCC_LSI_DISABLE();
 561              		.loc 1 501 0
 562 01ca 354A     		ldr	r2, .L129
 563 01cc 536F     		ldr	r3, [r2, #116]
 564 01ce 23F00103 		bic	r3, r3, #1
 565 01d2 5367     		str	r3, [r2, #116]
 502:Drivers/STM32F7xx_HAL_Driver/Src/stm32f7xx_hal_rcc.c **** 
 503:Drivers/STM32F7xx_HAL_Driver/Src/stm32f7xx_hal_rcc.c ****       /* Get Start Tick*/
 504:Drivers/STM32F7xx_HAL_Driver/Src/stm32f7xx_hal_rcc.c ****       tickstart = HAL_GetTick();
 566              		.loc 1 504 0
 567 01d4 FFF7FEFF 		bl	HAL_GetTick
 568              	.LVL48:
 569 01d8 0546     		mov	r5, r0
 570              	.LVL49:
 571              	.L57:
 505:Drivers/STM32F7xx_HAL_Driver/Src/stm32f7xx_hal_rcc.c **** 
 506:Drivers/STM32F7xx_HAL_Driver/Src/stm32f7xx_hal_rcc.c ****       /* Wait till LSI is ready */
 507:Drivers/STM32F7xx_HAL_Driver/Src/stm32f7xx_hal_rcc.c ****       while (__HAL_RCC_GET_FLAG(RCC_FLAG_LSIRDY) != RESET)
 572              		.loc 1 507 0
 573 01da 314B     		ldr	r3, .L129
 574 01dc 5B6F     		ldr	r3, [r3, #116]
 575 01de 13F0020F 		tst	r3, #2
 576 01e2 06D0     		beq	.L53
 508:Drivers/STM32F7xx_HAL_Driver/Src/stm32f7xx_hal_rcc.c ****       {
ARM GAS  /tmp/cc4OTmQk.s 			page 21


 509:Drivers/STM32F7xx_HAL_Driver/Src/stm32f7xx_hal_rcc.c ****         if ((HAL_GetTick() - tickstart) > LSI_TIMEOUT_VALUE)
 577              		.loc 1 509 0
 578 01e4 FFF7FEFF 		bl	HAL_GetTick
 579              	.LVL50:
 580 01e8 401B     		subs	r0, r0, r5
 581 01ea 0228     		cmp	r0, #2
 582 01ec F5D9     		bls	.L57
 510:Drivers/STM32F7xx_HAL_Driver/Src/stm32f7xx_hal_rcc.c ****         {
 511:Drivers/STM32F7xx_HAL_Driver/Src/stm32f7xx_hal_rcc.c ****           return HAL_TIMEOUT;
 583              		.loc 1 511 0
 584 01ee 0320     		movs	r0, #3
 585 01f0 20E1     		b	.L31
 586              	.LVL51:
 587              	.L53:
 512:Drivers/STM32F7xx_HAL_Driver/Src/stm32f7xx_hal_rcc.c ****         }
 513:Drivers/STM32F7xx_HAL_Driver/Src/stm32f7xx_hal_rcc.c ****       }
 514:Drivers/STM32F7xx_HAL_Driver/Src/stm32f7xx_hal_rcc.c ****     }
 515:Drivers/STM32F7xx_HAL_Driver/Src/stm32f7xx_hal_rcc.c ****   }
 516:Drivers/STM32F7xx_HAL_Driver/Src/stm32f7xx_hal_rcc.c ****   /*------------------------------ LSE Configuration -------------------------*/
 517:Drivers/STM32F7xx_HAL_Driver/Src/stm32f7xx_hal_rcc.c ****   if (((RCC_OscInitStruct->OscillatorType) & RCC_OSCILLATORTYPE_LSE) == RCC_OSCILLATORTYPE_LSE)
 588              		.loc 1 517 0
 589 01f2 2368     		ldr	r3, [r4]
 590 01f4 13F0040F 		tst	r3, #4
 591 01f8 7ED0     		beq	.L59
 518:Drivers/STM32F7xx_HAL_Driver/Src/stm32f7xx_hal_rcc.c ****   {
 519:Drivers/STM32F7xx_HAL_Driver/Src/stm32f7xx_hal_rcc.c ****     /* Check the parameters */
 520:Drivers/STM32F7xx_HAL_Driver/Src/stm32f7xx_hal_rcc.c ****     assert_param(IS_RCC_LSE(RCC_OscInitStruct->LSEState));
 521:Drivers/STM32F7xx_HAL_Driver/Src/stm32f7xx_hal_rcc.c **** 
 522:Drivers/STM32F7xx_HAL_Driver/Src/stm32f7xx_hal_rcc.c ****     /* Update LSE configuration in Backup Domain control register    */
 523:Drivers/STM32F7xx_HAL_Driver/Src/stm32f7xx_hal_rcc.c ****     /* Requires to enable write access to Backup Domain of necessary */
 524:Drivers/STM32F7xx_HAL_Driver/Src/stm32f7xx_hal_rcc.c ****     if (__HAL_RCC_PWR_IS_CLK_DISABLED())
 592              		.loc 1 524 0
 593 01fa 294B     		ldr	r3, .L129
 594 01fc 1B6C     		ldr	r3, [r3, #64]
 595 01fe 13F0805F 		tst	r3, #268435456
 596 0202 31D1     		bne	.L91
 597              	.LBB4:
 525:Drivers/STM32F7xx_HAL_Driver/Src/stm32f7xx_hal_rcc.c ****     {
 526:Drivers/STM32F7xx_HAL_Driver/Src/stm32f7xx_hal_rcc.c ****       /* Enable Power Clock*/
 527:Drivers/STM32F7xx_HAL_Driver/Src/stm32f7xx_hal_rcc.c ****       __HAL_RCC_PWR_CLK_ENABLE();
 598              		.loc 1 527 0
 599 0204 264B     		ldr	r3, .L129
 600 0206 1A6C     		ldr	r2, [r3, #64]
 601 0208 42F08052 		orr	r2, r2, #268435456
 602 020c 1A64     		str	r2, [r3, #64]
 603 020e 1B6C     		ldr	r3, [r3, #64]
 604 0210 03F08053 		and	r3, r3, #268435456
 605 0214 0193     		str	r3, [sp, #4]
 606 0216 019B     		ldr	r3, [sp, #4]
 607              	.LVL52:
 608              	.LBE4:
 528:Drivers/STM32F7xx_HAL_Driver/Src/stm32f7xx_hal_rcc.c ****       pwrclkchanged = SET;
 609              		.loc 1 528 0
 610 0218 0125     		movs	r5, #1
 611              	.LVL53:
 612              	.L60:
 529:Drivers/STM32F7xx_HAL_Driver/Src/stm32f7xx_hal_rcc.c ****     }
ARM GAS  /tmp/cc4OTmQk.s 			page 22


 530:Drivers/STM32F7xx_HAL_Driver/Src/stm32f7xx_hal_rcc.c **** 
 531:Drivers/STM32F7xx_HAL_Driver/Src/stm32f7xx_hal_rcc.c ****     if (HAL_IS_BIT_CLR(PWR->CR1, PWR_CR1_DBP))
 613              		.loc 1 531 0
 614 021a 224B     		ldr	r3, .L129+4
 615 021c 1B68     		ldr	r3, [r3]
 616 021e 13F4807F 		tst	r3, #256
 617 0222 23D0     		beq	.L116
 618              	.L61:
 532:Drivers/STM32F7xx_HAL_Driver/Src/stm32f7xx_hal_rcc.c ****     {
 533:Drivers/STM32F7xx_HAL_Driver/Src/stm32f7xx_hal_rcc.c ****       /* Enable write access to Backup domain */
 534:Drivers/STM32F7xx_HAL_Driver/Src/stm32f7xx_hal_rcc.c ****       PWR->CR1 |= PWR_CR1_DBP;
 535:Drivers/STM32F7xx_HAL_Driver/Src/stm32f7xx_hal_rcc.c **** 
 536:Drivers/STM32F7xx_HAL_Driver/Src/stm32f7xx_hal_rcc.c ****       /* Wait for Backup domain Write protection disable */
 537:Drivers/STM32F7xx_HAL_Driver/Src/stm32f7xx_hal_rcc.c ****       tickstart = HAL_GetTick();
 538:Drivers/STM32F7xx_HAL_Driver/Src/stm32f7xx_hal_rcc.c **** 
 539:Drivers/STM32F7xx_HAL_Driver/Src/stm32f7xx_hal_rcc.c ****       while (HAL_IS_BIT_CLR(PWR->CR1, PWR_CR1_DBP))
 540:Drivers/STM32F7xx_HAL_Driver/Src/stm32f7xx_hal_rcc.c ****       {
 541:Drivers/STM32F7xx_HAL_Driver/Src/stm32f7xx_hal_rcc.c ****         if ((HAL_GetTick() - tickstart) > RCC_DBP_TIMEOUT_VALUE)
 542:Drivers/STM32F7xx_HAL_Driver/Src/stm32f7xx_hal_rcc.c ****         {
 543:Drivers/STM32F7xx_HAL_Driver/Src/stm32f7xx_hal_rcc.c ****           return HAL_TIMEOUT;
 544:Drivers/STM32F7xx_HAL_Driver/Src/stm32f7xx_hal_rcc.c ****         }
 545:Drivers/STM32F7xx_HAL_Driver/Src/stm32f7xx_hal_rcc.c ****       }
 546:Drivers/STM32F7xx_HAL_Driver/Src/stm32f7xx_hal_rcc.c ****     }
 547:Drivers/STM32F7xx_HAL_Driver/Src/stm32f7xx_hal_rcc.c **** 
 548:Drivers/STM32F7xx_HAL_Driver/Src/stm32f7xx_hal_rcc.c ****     /* Set the new LSE configuration -----------------------------------------*/
 549:Drivers/STM32F7xx_HAL_Driver/Src/stm32f7xx_hal_rcc.c ****     __HAL_RCC_LSE_CONFIG(RCC_OscInitStruct->LSEState);
 619              		.loc 1 549 0
 620 0224 A368     		ldr	r3, [r4, #8]
 621 0226 012B     		cmp	r3, #1
 622 0228 34D0     		beq	.L117
 623              		.loc 1 549 0 is_stmt 0 discriminator 2
 624 022a 002B     		cmp	r3, #0
 625 022c 3CD1     		bne	.L66
 626              		.loc 1 549 0 discriminator 3
 627 022e 1C4B     		ldr	r3, .L129
 628 0230 1A6F     		ldr	r2, [r3, #112]
 629 0232 22F00102 		bic	r2, r2, #1
 630 0236 1A67     		str	r2, [r3, #112]
 631 0238 1A6F     		ldr	r2, [r3, #112]
 632 023a 22F00402 		bic	r2, r2, #4
 633 023e 1A67     		str	r2, [r3, #112]
 634              	.L65:
 550:Drivers/STM32F7xx_HAL_Driver/Src/stm32f7xx_hal_rcc.c ****     /* Check the LSE State */
 551:Drivers/STM32F7xx_HAL_Driver/Src/stm32f7xx_hal_rcc.c ****     if ((RCC_OscInitStruct->LSEState) != RCC_LSE_OFF)
 635              		.loc 1 551 0 is_stmt 1
 636 0240 A368     		ldr	r3, [r4, #8]
 637 0242 002B     		cmp	r3, #0
 638 0244 46D0     		beq	.L68
 552:Drivers/STM32F7xx_HAL_Driver/Src/stm32f7xx_hal_rcc.c ****     {
 553:Drivers/STM32F7xx_HAL_Driver/Src/stm32f7xx_hal_rcc.c ****       /* Get Start Tick*/
 554:Drivers/STM32F7xx_HAL_Driver/Src/stm32f7xx_hal_rcc.c ****       tickstart = HAL_GetTick();
 639              		.loc 1 554 0
 640 0246 FFF7FEFF 		bl	HAL_GetTick
 641              	.LVL54:
 642 024a 0646     		mov	r6, r0
 643              	.LVL55:
 644              	.L69:
ARM GAS  /tmp/cc4OTmQk.s 			page 23


 555:Drivers/STM32F7xx_HAL_Driver/Src/stm32f7xx_hal_rcc.c **** 
 556:Drivers/STM32F7xx_HAL_Driver/Src/stm32f7xx_hal_rcc.c ****       /* Wait till LSE is ready */
 557:Drivers/STM32F7xx_HAL_Driver/Src/stm32f7xx_hal_rcc.c ****       while (__HAL_RCC_GET_FLAG(RCC_FLAG_LSERDY) == RESET)
 645              		.loc 1 557 0
 646 024c 144B     		ldr	r3, .L129
 647 024e 1B6F     		ldr	r3, [r3, #112]
 648 0250 13F0020F 		tst	r3, #2
 649 0254 4FD1     		bne	.L71
 558:Drivers/STM32F7xx_HAL_Driver/Src/stm32f7xx_hal_rcc.c ****       {
 559:Drivers/STM32F7xx_HAL_Driver/Src/stm32f7xx_hal_rcc.c ****         if ((HAL_GetTick() - tickstart) > RCC_LSE_TIMEOUT_VALUE)
 650              		.loc 1 559 0
 651 0256 FFF7FEFF 		bl	HAL_GetTick
 652              	.LVL56:
 653 025a 801B     		subs	r0, r0, r6
 654 025c 41F28833 		movw	r3, #5000
 655 0260 9842     		cmp	r0, r3
 656 0262 F3D9     		bls	.L69
 560:Drivers/STM32F7xx_HAL_Driver/Src/stm32f7xx_hal_rcc.c ****         {
 561:Drivers/STM32F7xx_HAL_Driver/Src/stm32f7xx_hal_rcc.c ****           return HAL_TIMEOUT;
 657              		.loc 1 561 0
 658 0264 0320     		movs	r0, #3
 659 0266 E5E0     		b	.L31
 660              	.LVL57:
 661              	.L91:
 348:Drivers/STM32F7xx_HAL_Driver/Src/stm32f7xx_hal_rcc.c **** 
 662              		.loc 1 348 0
 663 0268 0025     		movs	r5, #0
 664 026a D6E7     		b	.L60
 665              	.LVL58:
 666              	.L116:
 534:Drivers/STM32F7xx_HAL_Driver/Src/stm32f7xx_hal_rcc.c **** 
 667              		.loc 1 534 0
 668 026c 0D4A     		ldr	r2, .L129+4
 669 026e 1368     		ldr	r3, [r2]
 670 0270 43F48073 		orr	r3, r3, #256
 671 0274 1360     		str	r3, [r2]
 537:Drivers/STM32F7xx_HAL_Driver/Src/stm32f7xx_hal_rcc.c **** 
 672              		.loc 1 537 0
 673 0276 FFF7FEFF 		bl	HAL_GetTick
 674              	.LVL59:
 675 027a 0646     		mov	r6, r0
 676              	.LVL60:
 677              	.L62:
 539:Drivers/STM32F7xx_HAL_Driver/Src/stm32f7xx_hal_rcc.c ****       {
 678              		.loc 1 539 0
 679 027c 094B     		ldr	r3, .L129+4
 680 027e 1B68     		ldr	r3, [r3]
 681 0280 13F4807F 		tst	r3, #256
 682 0284 CED1     		bne	.L61
 541:Drivers/STM32F7xx_HAL_Driver/Src/stm32f7xx_hal_rcc.c ****         {
 683              		.loc 1 541 0
 684 0286 FFF7FEFF 		bl	HAL_GetTick
 685              	.LVL61:
 686 028a 801B     		subs	r0, r0, r6
 687 028c 6428     		cmp	r0, #100
 688 028e F5D9     		bls	.L62
 543:Drivers/STM32F7xx_HAL_Driver/Src/stm32f7xx_hal_rcc.c ****         }
ARM GAS  /tmp/cc4OTmQk.s 			page 24


 689              		.loc 1 543 0
 690 0290 0320     		movs	r0, #3
 691 0292 CFE0     		b	.L31
 692              	.LVL62:
 693              	.L117:
 549:Drivers/STM32F7xx_HAL_Driver/Src/stm32f7xx_hal_rcc.c ****     /* Check the LSE State */
 694              		.loc 1 549 0 discriminator 1
 695 0294 024A     		ldr	r2, .L129
 696 0296 136F     		ldr	r3, [r2, #112]
 697 0298 43F00103 		orr	r3, r3, #1
 698 029c 1367     		str	r3, [r2, #112]
 699 029e CFE7     		b	.L65
 700              	.L130:
 701              		.align	2
 702              	.L129:
 703 02a0 00380240 		.word	1073887232
 704 02a4 00700040 		.word	1073770496
 705              	.L66:
 549:Drivers/STM32F7xx_HAL_Driver/Src/stm32f7xx_hal_rcc.c ****     /* Check the LSE State */
 706              		.loc 1 549 0 is_stmt 0 discriminator 4
 707 02a8 052B     		cmp	r3, #5
 708 02aa 09D0     		beq	.L118
 549:Drivers/STM32F7xx_HAL_Driver/Src/stm32f7xx_hal_rcc.c ****     /* Check the LSE State */
 709              		.loc 1 549 0 discriminator 6
 710 02ac 644B     		ldr	r3, .L131
 711 02ae 1A6F     		ldr	r2, [r3, #112]
 712 02b0 22F00102 		bic	r2, r2, #1
 713 02b4 1A67     		str	r2, [r3, #112]
 714 02b6 1A6F     		ldr	r2, [r3, #112]
 715 02b8 22F00402 		bic	r2, r2, #4
 716 02bc 1A67     		str	r2, [r3, #112]
 717 02be BFE7     		b	.L65
 718              	.L118:
 549:Drivers/STM32F7xx_HAL_Driver/Src/stm32f7xx_hal_rcc.c ****     /* Check the LSE State */
 719              		.loc 1 549 0 discriminator 5
 720 02c0 5F4B     		ldr	r3, .L131
 721 02c2 1A6F     		ldr	r2, [r3, #112]
 722 02c4 42F00402 		orr	r2, r2, #4
 723 02c8 1A67     		str	r2, [r3, #112]
 724 02ca 1A6F     		ldr	r2, [r3, #112]
 725 02cc 42F00102 		orr	r2, r2, #1
 726 02d0 1A67     		str	r2, [r3, #112]
 727 02d2 B5E7     		b	.L65
 728              	.L68:
 562:Drivers/STM32F7xx_HAL_Driver/Src/stm32f7xx_hal_rcc.c ****         }
 563:Drivers/STM32F7xx_HAL_Driver/Src/stm32f7xx_hal_rcc.c ****       }
 564:Drivers/STM32F7xx_HAL_Driver/Src/stm32f7xx_hal_rcc.c ****     }
 565:Drivers/STM32F7xx_HAL_Driver/Src/stm32f7xx_hal_rcc.c ****     else
 566:Drivers/STM32F7xx_HAL_Driver/Src/stm32f7xx_hal_rcc.c ****     {
 567:Drivers/STM32F7xx_HAL_Driver/Src/stm32f7xx_hal_rcc.c ****       /* Get Start Tick*/
 568:Drivers/STM32F7xx_HAL_Driver/Src/stm32f7xx_hal_rcc.c ****       tickstart = HAL_GetTick();
 729              		.loc 1 568 0 is_stmt 1
 730 02d4 FFF7FEFF 		bl	HAL_GetTick
 731              	.LVL63:
 732 02d8 0646     		mov	r6, r0
 733              	.LVL64:
 734              	.L72:
ARM GAS  /tmp/cc4OTmQk.s 			page 25


 569:Drivers/STM32F7xx_HAL_Driver/Src/stm32f7xx_hal_rcc.c **** 
 570:Drivers/STM32F7xx_HAL_Driver/Src/stm32f7xx_hal_rcc.c ****       /* Wait till LSE is ready */
 571:Drivers/STM32F7xx_HAL_Driver/Src/stm32f7xx_hal_rcc.c ****       while (__HAL_RCC_GET_FLAG(RCC_FLAG_LSERDY) != RESET)
 735              		.loc 1 571 0
 736 02da 594B     		ldr	r3, .L131
 737 02dc 1B6F     		ldr	r3, [r3, #112]
 738 02de 13F0020F 		tst	r3, #2
 739 02e2 08D0     		beq	.L71
 572:Drivers/STM32F7xx_HAL_Driver/Src/stm32f7xx_hal_rcc.c ****       {
 573:Drivers/STM32F7xx_HAL_Driver/Src/stm32f7xx_hal_rcc.c ****         if ((HAL_GetTick() - tickstart) > RCC_LSE_TIMEOUT_VALUE)
 740              		.loc 1 573 0
 741 02e4 FFF7FEFF 		bl	HAL_GetTick
 742              	.LVL65:
 743 02e8 801B     		subs	r0, r0, r6
 744 02ea 41F28833 		movw	r3, #5000
 745 02ee 9842     		cmp	r0, r3
 746 02f0 F3D9     		bls	.L72
 574:Drivers/STM32F7xx_HAL_Driver/Src/stm32f7xx_hal_rcc.c ****         {
 575:Drivers/STM32F7xx_HAL_Driver/Src/stm32f7xx_hal_rcc.c ****           return HAL_TIMEOUT;
 747              		.loc 1 575 0
 748 02f2 0320     		movs	r0, #3
 749 02f4 9EE0     		b	.L31
 750              	.L71:
 576:Drivers/STM32F7xx_HAL_Driver/Src/stm32f7xx_hal_rcc.c ****         }
 577:Drivers/STM32F7xx_HAL_Driver/Src/stm32f7xx_hal_rcc.c ****       }
 578:Drivers/STM32F7xx_HAL_Driver/Src/stm32f7xx_hal_rcc.c ****     }
 579:Drivers/STM32F7xx_HAL_Driver/Src/stm32f7xx_hal_rcc.c **** 
 580:Drivers/STM32F7xx_HAL_Driver/Src/stm32f7xx_hal_rcc.c ****     /* Restore clock configuration if changed */
 581:Drivers/STM32F7xx_HAL_Driver/Src/stm32f7xx_hal_rcc.c ****     if (pwrclkchanged == SET)
 751              		.loc 1 581 0
 752 02f6 FDB9     		cbnz	r5, .L119
 753              	.LVL66:
 754              	.L59:
 582:Drivers/STM32F7xx_HAL_Driver/Src/stm32f7xx_hal_rcc.c ****     {
 583:Drivers/STM32F7xx_HAL_Driver/Src/stm32f7xx_hal_rcc.c ****       __HAL_RCC_PWR_CLK_DISABLE();
 584:Drivers/STM32F7xx_HAL_Driver/Src/stm32f7xx_hal_rcc.c ****     }
 585:Drivers/STM32F7xx_HAL_Driver/Src/stm32f7xx_hal_rcc.c ****   }
 586:Drivers/STM32F7xx_HAL_Driver/Src/stm32f7xx_hal_rcc.c ****   /*-------------------------------- PLL Configuration -----------------------*/
 587:Drivers/STM32F7xx_HAL_Driver/Src/stm32f7xx_hal_rcc.c ****   /* Check the parameters */
 588:Drivers/STM32F7xx_HAL_Driver/Src/stm32f7xx_hal_rcc.c ****   assert_param(IS_RCC_PLL(RCC_OscInitStruct->PLL.PLLState));
 589:Drivers/STM32F7xx_HAL_Driver/Src/stm32f7xx_hal_rcc.c ****   if ((RCC_OscInitStruct->PLL.PLLState) != RCC_PLL_NONE)
 755              		.loc 1 589 0
 756 02f8 A369     		ldr	r3, [r4, #24]
 757 02fa 002B     		cmp	r3, #0
 758 02fc 00F09980 		beq	.L95
 590:Drivers/STM32F7xx_HAL_Driver/Src/stm32f7xx_hal_rcc.c ****   {
 591:Drivers/STM32F7xx_HAL_Driver/Src/stm32f7xx_hal_rcc.c ****     /* Check if the PLL is used as system clock or not */
 592:Drivers/STM32F7xx_HAL_Driver/Src/stm32f7xx_hal_rcc.c ****     if (__HAL_RCC_GET_SYSCLK_SOURCE() != RCC_SYSCLKSOURCE_STATUS_PLLCLK)
 759              		.loc 1 592 0
 760 0300 4F4A     		ldr	r2, .L131
 761 0302 9268     		ldr	r2, [r2, #8]
 762 0304 02F00C02 		and	r2, r2, #12
 763 0308 082A     		cmp	r2, #8
 764 030a 59D0     		beq	.L74
 593:Drivers/STM32F7xx_HAL_Driver/Src/stm32f7xx_hal_rcc.c ****     {
 594:Drivers/STM32F7xx_HAL_Driver/Src/stm32f7xx_hal_rcc.c ****       if ((RCC_OscInitStruct->PLL.PLLState) == RCC_PLL_ON)
 765              		.loc 1 594 0
ARM GAS  /tmp/cc4OTmQk.s 			page 26


 766 030c 022B     		cmp	r3, #2
 767 030e 19D0     		beq	.L120
 595:Drivers/STM32F7xx_HAL_Driver/Src/stm32f7xx_hal_rcc.c ****       {
 596:Drivers/STM32F7xx_HAL_Driver/Src/stm32f7xx_hal_rcc.c ****         /* Check the parameters */
 597:Drivers/STM32F7xx_HAL_Driver/Src/stm32f7xx_hal_rcc.c ****         assert_param(IS_RCC_PLLSOURCE(RCC_OscInitStruct->PLL.PLLSource));
 598:Drivers/STM32F7xx_HAL_Driver/Src/stm32f7xx_hal_rcc.c ****         assert_param(IS_RCC_PLLM_VALUE(RCC_OscInitStruct->PLL.PLLM));
 599:Drivers/STM32F7xx_HAL_Driver/Src/stm32f7xx_hal_rcc.c ****         assert_param(IS_RCC_PLLN_VALUE(RCC_OscInitStruct->PLL.PLLN));
 600:Drivers/STM32F7xx_HAL_Driver/Src/stm32f7xx_hal_rcc.c ****         assert_param(IS_RCC_PLLP_VALUE(RCC_OscInitStruct->PLL.PLLP));
 601:Drivers/STM32F7xx_HAL_Driver/Src/stm32f7xx_hal_rcc.c ****         assert_param(IS_RCC_PLLQ_VALUE(RCC_OscInitStruct->PLL.PLLQ));
 602:Drivers/STM32F7xx_HAL_Driver/Src/stm32f7xx_hal_rcc.c **** #if defined (RCC_PLLCFGR_PLLR)
 603:Drivers/STM32F7xx_HAL_Driver/Src/stm32f7xx_hal_rcc.c ****         assert_param(IS_RCC_PLLR_VALUE(RCC_OscInitStruct->PLL.PLLR));
 604:Drivers/STM32F7xx_HAL_Driver/Src/stm32f7xx_hal_rcc.c **** #endif
 605:Drivers/STM32F7xx_HAL_Driver/Src/stm32f7xx_hal_rcc.c **** 
 606:Drivers/STM32F7xx_HAL_Driver/Src/stm32f7xx_hal_rcc.c ****         /* Disable the main PLL. */
 607:Drivers/STM32F7xx_HAL_Driver/Src/stm32f7xx_hal_rcc.c ****         __HAL_RCC_PLL_DISABLE();
 608:Drivers/STM32F7xx_HAL_Driver/Src/stm32f7xx_hal_rcc.c **** 
 609:Drivers/STM32F7xx_HAL_Driver/Src/stm32f7xx_hal_rcc.c ****         /* Get Start Tick*/
 610:Drivers/STM32F7xx_HAL_Driver/Src/stm32f7xx_hal_rcc.c ****         tickstart = HAL_GetTick();
 611:Drivers/STM32F7xx_HAL_Driver/Src/stm32f7xx_hal_rcc.c **** 
 612:Drivers/STM32F7xx_HAL_Driver/Src/stm32f7xx_hal_rcc.c ****         /* Wait till PLL is ready */
 613:Drivers/STM32F7xx_HAL_Driver/Src/stm32f7xx_hal_rcc.c ****         while (__HAL_RCC_GET_FLAG(RCC_FLAG_PLLRDY) != RESET)
 614:Drivers/STM32F7xx_HAL_Driver/Src/stm32f7xx_hal_rcc.c ****         {
 615:Drivers/STM32F7xx_HAL_Driver/Src/stm32f7xx_hal_rcc.c ****           if ((HAL_GetTick() - tickstart) > PLL_TIMEOUT_VALUE)
 616:Drivers/STM32F7xx_HAL_Driver/Src/stm32f7xx_hal_rcc.c ****           {
 617:Drivers/STM32F7xx_HAL_Driver/Src/stm32f7xx_hal_rcc.c ****             return HAL_TIMEOUT;
 618:Drivers/STM32F7xx_HAL_Driver/Src/stm32f7xx_hal_rcc.c ****           }
 619:Drivers/STM32F7xx_HAL_Driver/Src/stm32f7xx_hal_rcc.c ****         }
 620:Drivers/STM32F7xx_HAL_Driver/Src/stm32f7xx_hal_rcc.c **** 
 621:Drivers/STM32F7xx_HAL_Driver/Src/stm32f7xx_hal_rcc.c ****         /* Configure the main PLL clock source, multiplication and division factors. */
 622:Drivers/STM32F7xx_HAL_Driver/Src/stm32f7xx_hal_rcc.c **** #if defined (RCC_PLLCFGR_PLLR)
 623:Drivers/STM32F7xx_HAL_Driver/Src/stm32f7xx_hal_rcc.c ****         __HAL_RCC_PLL_CONFIG(RCC_OscInitStruct->PLL.PLLSource,
 624:Drivers/STM32F7xx_HAL_Driver/Src/stm32f7xx_hal_rcc.c ****                              RCC_OscInitStruct->PLL.PLLM,
 625:Drivers/STM32F7xx_HAL_Driver/Src/stm32f7xx_hal_rcc.c ****                              RCC_OscInitStruct->PLL.PLLN,
 626:Drivers/STM32F7xx_HAL_Driver/Src/stm32f7xx_hal_rcc.c ****                              RCC_OscInitStruct->PLL.PLLP,
 627:Drivers/STM32F7xx_HAL_Driver/Src/stm32f7xx_hal_rcc.c ****                              RCC_OscInitStruct->PLL.PLLQ,
 628:Drivers/STM32F7xx_HAL_Driver/Src/stm32f7xx_hal_rcc.c ****                              RCC_OscInitStruct->PLL.PLLR);
 629:Drivers/STM32F7xx_HAL_Driver/Src/stm32f7xx_hal_rcc.c **** #else
 630:Drivers/STM32F7xx_HAL_Driver/Src/stm32f7xx_hal_rcc.c ****         __HAL_RCC_PLL_CONFIG(RCC_OscInitStruct->PLL.PLLSource,
 631:Drivers/STM32F7xx_HAL_Driver/Src/stm32f7xx_hal_rcc.c ****                              RCC_OscInitStruct->PLL.PLLM,
 632:Drivers/STM32F7xx_HAL_Driver/Src/stm32f7xx_hal_rcc.c ****                              RCC_OscInitStruct->PLL.PLLN,
 633:Drivers/STM32F7xx_HAL_Driver/Src/stm32f7xx_hal_rcc.c ****                              RCC_OscInitStruct->PLL.PLLP,
 634:Drivers/STM32F7xx_HAL_Driver/Src/stm32f7xx_hal_rcc.c ****                              RCC_OscInitStruct->PLL.PLLQ);
 635:Drivers/STM32F7xx_HAL_Driver/Src/stm32f7xx_hal_rcc.c **** #endif
 636:Drivers/STM32F7xx_HAL_Driver/Src/stm32f7xx_hal_rcc.c **** 
 637:Drivers/STM32F7xx_HAL_Driver/Src/stm32f7xx_hal_rcc.c ****         /* Enable the main PLL. */
 638:Drivers/STM32F7xx_HAL_Driver/Src/stm32f7xx_hal_rcc.c ****         __HAL_RCC_PLL_ENABLE();
 639:Drivers/STM32F7xx_HAL_Driver/Src/stm32f7xx_hal_rcc.c **** 
 640:Drivers/STM32F7xx_HAL_Driver/Src/stm32f7xx_hal_rcc.c ****         /* Get Start Tick*/
 641:Drivers/STM32F7xx_HAL_Driver/Src/stm32f7xx_hal_rcc.c ****         tickstart = HAL_GetTick();
 642:Drivers/STM32F7xx_HAL_Driver/Src/stm32f7xx_hal_rcc.c **** 
 643:Drivers/STM32F7xx_HAL_Driver/Src/stm32f7xx_hal_rcc.c ****         /* Wait till PLL is ready */
 644:Drivers/STM32F7xx_HAL_Driver/Src/stm32f7xx_hal_rcc.c ****         while (__HAL_RCC_GET_FLAG(RCC_FLAG_PLLRDY) == RESET)
 645:Drivers/STM32F7xx_HAL_Driver/Src/stm32f7xx_hal_rcc.c ****         {
 646:Drivers/STM32F7xx_HAL_Driver/Src/stm32f7xx_hal_rcc.c ****           if ((HAL_GetTick() - tickstart) > PLL_TIMEOUT_VALUE)
 647:Drivers/STM32F7xx_HAL_Driver/Src/stm32f7xx_hal_rcc.c ****           {
 648:Drivers/STM32F7xx_HAL_Driver/Src/stm32f7xx_hal_rcc.c ****             return HAL_TIMEOUT;
 649:Drivers/STM32F7xx_HAL_Driver/Src/stm32f7xx_hal_rcc.c ****           }
ARM GAS  /tmp/cc4OTmQk.s 			page 27


 650:Drivers/STM32F7xx_HAL_Driver/Src/stm32f7xx_hal_rcc.c ****         }
 651:Drivers/STM32F7xx_HAL_Driver/Src/stm32f7xx_hal_rcc.c ****       }
 652:Drivers/STM32F7xx_HAL_Driver/Src/stm32f7xx_hal_rcc.c ****       else
 653:Drivers/STM32F7xx_HAL_Driver/Src/stm32f7xx_hal_rcc.c ****       {
 654:Drivers/STM32F7xx_HAL_Driver/Src/stm32f7xx_hal_rcc.c ****         /* Disable the main PLL. */
 655:Drivers/STM32F7xx_HAL_Driver/Src/stm32f7xx_hal_rcc.c ****         __HAL_RCC_PLL_DISABLE();
 768              		.loc 1 655 0
 769 0310 4B4A     		ldr	r2, .L131
 770 0312 1368     		ldr	r3, [r2]
 771 0314 23F08073 		bic	r3, r3, #16777216
 772 0318 1360     		str	r3, [r2]
 656:Drivers/STM32F7xx_HAL_Driver/Src/stm32f7xx_hal_rcc.c **** 
 657:Drivers/STM32F7xx_HAL_Driver/Src/stm32f7xx_hal_rcc.c ****         /* Get Start Tick*/
 658:Drivers/STM32F7xx_HAL_Driver/Src/stm32f7xx_hal_rcc.c ****         tickstart = HAL_GetTick();
 773              		.loc 1 658 0
 774 031a FFF7FEFF 		bl	HAL_GetTick
 775              	.LVL67:
 776 031e 0446     		mov	r4, r0
 777              	.LVL68:
 778              	.L80:
 659:Drivers/STM32F7xx_HAL_Driver/Src/stm32f7xx_hal_rcc.c **** 
 660:Drivers/STM32F7xx_HAL_Driver/Src/stm32f7xx_hal_rcc.c ****         /* Wait till PLL is ready */
 661:Drivers/STM32F7xx_HAL_Driver/Src/stm32f7xx_hal_rcc.c ****         while (__HAL_RCC_GET_FLAG(RCC_FLAG_PLLRDY) != RESET)
 779              		.loc 1 661 0
 780 0320 474B     		ldr	r3, .L131
 781 0322 1B68     		ldr	r3, [r3]
 782 0324 13F0007F 		tst	r3, #33554432
 783 0328 48D0     		beq	.L121
 662:Drivers/STM32F7xx_HAL_Driver/Src/stm32f7xx_hal_rcc.c ****         {
 663:Drivers/STM32F7xx_HAL_Driver/Src/stm32f7xx_hal_rcc.c ****           if ((HAL_GetTick() - tickstart) > PLL_TIMEOUT_VALUE)
 784              		.loc 1 663 0
 785 032a FFF7FEFF 		bl	HAL_GetTick
 786              	.LVL69:
 787 032e 001B     		subs	r0, r0, r4
 788 0330 0228     		cmp	r0, #2
 789 0332 F5D9     		bls	.L80
 664:Drivers/STM32F7xx_HAL_Driver/Src/stm32f7xx_hal_rcc.c ****           {
 665:Drivers/STM32F7xx_HAL_Driver/Src/stm32f7xx_hal_rcc.c ****             return HAL_TIMEOUT;
 790              		.loc 1 665 0
 791 0334 0320     		movs	r0, #3
 792 0336 7DE0     		b	.L31
 793              	.LVL70:
 794              	.L119:
 583:Drivers/STM32F7xx_HAL_Driver/Src/stm32f7xx_hal_rcc.c ****     }
 795              		.loc 1 583 0
 796 0338 414A     		ldr	r2, .L131
 797 033a 136C     		ldr	r3, [r2, #64]
 798 033c 23F08053 		bic	r3, r3, #268435456
 799 0340 1364     		str	r3, [r2, #64]
 800 0342 D9E7     		b	.L59
 801              	.LVL71:
 802              	.L120:
 607:Drivers/STM32F7xx_HAL_Driver/Src/stm32f7xx_hal_rcc.c **** 
 803              		.loc 1 607 0
 804 0344 3E4A     		ldr	r2, .L131
 805 0346 1368     		ldr	r3, [r2]
 806 0348 23F08073 		bic	r3, r3, #16777216
ARM GAS  /tmp/cc4OTmQk.s 			page 28


 807 034c 1360     		str	r3, [r2]
 610:Drivers/STM32F7xx_HAL_Driver/Src/stm32f7xx_hal_rcc.c **** 
 808              		.loc 1 610 0
 809 034e FFF7FEFF 		bl	HAL_GetTick
 810              	.LVL72:
 811 0352 0546     		mov	r5, r0
 812              	.LVL73:
 813              	.L76:
 613:Drivers/STM32F7xx_HAL_Driver/Src/stm32f7xx_hal_rcc.c ****         {
 814              		.loc 1 613 0
 815 0354 3A4B     		ldr	r3, .L131
 816 0356 1B68     		ldr	r3, [r3]
 817 0358 13F0007F 		tst	r3, #33554432
 818 035c 06D0     		beq	.L122
 615:Drivers/STM32F7xx_HAL_Driver/Src/stm32f7xx_hal_rcc.c ****           {
 819              		.loc 1 615 0
 820 035e FFF7FEFF 		bl	HAL_GetTick
 821              	.LVL74:
 822 0362 401B     		subs	r0, r0, r5
 823 0364 0228     		cmp	r0, #2
 824 0366 F5D9     		bls	.L76
 617:Drivers/STM32F7xx_HAL_Driver/Src/stm32f7xx_hal_rcc.c ****           }
 825              		.loc 1 617 0
 826 0368 0320     		movs	r0, #3
 827 036a 63E0     		b	.L31
 828              	.L122:
 623:Drivers/STM32F7xx_HAL_Driver/Src/stm32f7xx_hal_rcc.c ****                              RCC_OscInitStruct->PLL.PLLM,
 829              		.loc 1 623 0
 830 036c E369     		ldr	r3, [r4, #28]
 831 036e 226A     		ldr	r2, [r4, #32]
 832 0370 1343     		orrs	r3, r3, r2
 833 0372 626A     		ldr	r2, [r4, #36]
 834 0374 43EA8213 		orr	r3, r3, r2, lsl #6
 835 0378 A26A     		ldr	r2, [r4, #40]
 836 037a 5208     		lsrs	r2, r2, #1
 837 037c 013A     		subs	r2, r2, #1
 838 037e 43EA0243 		orr	r3, r3, r2, lsl #16
 839 0382 E26A     		ldr	r2, [r4, #44]
 840 0384 43EA0263 		orr	r3, r3, r2, lsl #24
 841 0388 226B     		ldr	r2, [r4, #48]
 842 038a 43EA0273 		orr	r3, r3, r2, lsl #28
 843 038e 2C4A     		ldr	r2, .L131
 844 0390 5360     		str	r3, [r2, #4]
 638:Drivers/STM32F7xx_HAL_Driver/Src/stm32f7xx_hal_rcc.c **** 
 845              		.loc 1 638 0
 846 0392 1368     		ldr	r3, [r2]
 847 0394 43F08073 		orr	r3, r3, #16777216
 848 0398 1360     		str	r3, [r2]
 641:Drivers/STM32F7xx_HAL_Driver/Src/stm32f7xx_hal_rcc.c **** 
 849              		.loc 1 641 0
 850 039a FFF7FEFF 		bl	HAL_GetTick
 851              	.LVL75:
 852 039e 0446     		mov	r4, r0
 853              	.LVL76:
 854              	.L78:
 644:Drivers/STM32F7xx_HAL_Driver/Src/stm32f7xx_hal_rcc.c ****         {
 855              		.loc 1 644 0
ARM GAS  /tmp/cc4OTmQk.s 			page 29


 856 03a0 274B     		ldr	r3, .L131
 857 03a2 1B68     		ldr	r3, [r3]
 858 03a4 13F0007F 		tst	r3, #33554432
 859 03a8 06D1     		bne	.L123
 646:Drivers/STM32F7xx_HAL_Driver/Src/stm32f7xx_hal_rcc.c ****           {
 860              		.loc 1 646 0
 861 03aa FFF7FEFF 		bl	HAL_GetTick
 862              	.LVL77:
 863 03ae 001B     		subs	r0, r0, r4
 864 03b0 0228     		cmp	r0, #2
 865 03b2 F5D9     		bls	.L78
 648:Drivers/STM32F7xx_HAL_Driver/Src/stm32f7xx_hal_rcc.c ****           }
 866              		.loc 1 648 0
 867 03b4 0320     		movs	r0, #3
 868 03b6 3DE0     		b	.L31
 869              	.L123:
 666:Drivers/STM32F7xx_HAL_Driver/Src/stm32f7xx_hal_rcc.c ****           }
 667:Drivers/STM32F7xx_HAL_Driver/Src/stm32f7xx_hal_rcc.c ****         }
 668:Drivers/STM32F7xx_HAL_Driver/Src/stm32f7xx_hal_rcc.c ****       }
 669:Drivers/STM32F7xx_HAL_Driver/Src/stm32f7xx_hal_rcc.c ****     }
 670:Drivers/STM32F7xx_HAL_Driver/Src/stm32f7xx_hal_rcc.c ****     else
 671:Drivers/STM32F7xx_HAL_Driver/Src/stm32f7xx_hal_rcc.c ****     {
 672:Drivers/STM32F7xx_HAL_Driver/Src/stm32f7xx_hal_rcc.c ****       /* Do not return HAL_ERROR if request repeats the current configuration */
 673:Drivers/STM32F7xx_HAL_Driver/Src/stm32f7xx_hal_rcc.c ****       pll_config = RCC->PLLCFGR;
 674:Drivers/STM32F7xx_HAL_Driver/Src/stm32f7xx_hal_rcc.c **** #if defined (RCC_PLLCFGR_PLLR)
 675:Drivers/STM32F7xx_HAL_Driver/Src/stm32f7xx_hal_rcc.c ****       if (((RCC_OscInitStruct->PLL.PLLState) == RCC_PLL_OFF) ||
 676:Drivers/STM32F7xx_HAL_Driver/Src/stm32f7xx_hal_rcc.c ****           (READ_BIT(pll_config, RCC_PLLCFGR_PLLSRC) != RCC_OscInitStruct->PLL.PLLSource) ||
 677:Drivers/STM32F7xx_HAL_Driver/Src/stm32f7xx_hal_rcc.c ****           (READ_BIT(pll_config, RCC_PLLCFGR_PLLM) != RCC_OscInitStruct->PLL.PLLM) ||
 678:Drivers/STM32F7xx_HAL_Driver/Src/stm32f7xx_hal_rcc.c ****           (READ_BIT(pll_config, RCC_PLLCFGR_PLLN) != (RCC_OscInitStruct->PLL.PLLN << RCC_PLLCFGR_PL
 679:Drivers/STM32F7xx_HAL_Driver/Src/stm32f7xx_hal_rcc.c ****           (READ_BIT(pll_config, RCC_PLLCFGR_PLLP) != ((((RCC_OscInitStruct->PLL.PLLP) >> 1U) - 1U) 
 680:Drivers/STM32F7xx_HAL_Driver/Src/stm32f7xx_hal_rcc.c ****           (READ_BIT(pll_config, RCC_PLLCFGR_PLLQ) != (RCC_OscInitStruct->PLL.PLLQ << RCC_PLLCFGR_PL
 681:Drivers/STM32F7xx_HAL_Driver/Src/stm32f7xx_hal_rcc.c ****           (READ_BIT(pll_config, RCC_PLLCFGR_PLLR) != (RCC_OscInitStruct->PLL.PLLR << RCC_PLLCFGR_PL
 682:Drivers/STM32F7xx_HAL_Driver/Src/stm32f7xx_hal_rcc.c **** #else
 683:Drivers/STM32F7xx_HAL_Driver/Src/stm32f7xx_hal_rcc.c ****       if (((RCC_OscInitStruct->PLL.PLLState) == RCC_PLL_OFF) ||
 684:Drivers/STM32F7xx_HAL_Driver/Src/stm32f7xx_hal_rcc.c ****           (READ_BIT(pll_config, RCC_PLLCFGR_PLLSRC) != RCC_OscInitStruct->PLL.PLLSource) ||
 685:Drivers/STM32F7xx_HAL_Driver/Src/stm32f7xx_hal_rcc.c ****           (READ_BIT(pll_config, RCC_PLLCFGR_PLLM) != RCC_OscInitStruct->PLL.PLLM) ||
 686:Drivers/STM32F7xx_HAL_Driver/Src/stm32f7xx_hal_rcc.c ****           (READ_BIT(pll_config, RCC_PLLCFGR_PLLN) != (RCC_OscInitStruct->PLL.PLLN << RCC_PLLCFGR_PL
 687:Drivers/STM32F7xx_HAL_Driver/Src/stm32f7xx_hal_rcc.c ****           (READ_BIT(pll_config, RCC_PLLCFGR_PLLP) != ((((RCC_OscInitStruct->PLL.PLLP) >> 1U) - 1U) 
 688:Drivers/STM32F7xx_HAL_Driver/Src/stm32f7xx_hal_rcc.c ****           (READ_BIT(pll_config, RCC_PLLCFGR_PLLQ) != (RCC_OscInitStruct->PLL.PLLQ << RCC_PLLCFGR_PL
 689:Drivers/STM32F7xx_HAL_Driver/Src/stm32f7xx_hal_rcc.c **** #endif
 690:Drivers/STM32F7xx_HAL_Driver/Src/stm32f7xx_hal_rcc.c ****       {
 691:Drivers/STM32F7xx_HAL_Driver/Src/stm32f7xx_hal_rcc.c ****         return HAL_ERROR;
 692:Drivers/STM32F7xx_HAL_Driver/Src/stm32f7xx_hal_rcc.c ****       }
 693:Drivers/STM32F7xx_HAL_Driver/Src/stm32f7xx_hal_rcc.c ****     }
 694:Drivers/STM32F7xx_HAL_Driver/Src/stm32f7xx_hal_rcc.c ****   }
 695:Drivers/STM32F7xx_HAL_Driver/Src/stm32f7xx_hal_rcc.c ****   return HAL_OK;
 870              		.loc 1 695 0
 871 03b8 0020     		movs	r0, #0
 872 03ba 3BE0     		b	.L31
 873              	.L121:
 874 03bc 0020     		movs	r0, #0
 875 03be 39E0     		b	.L31
 876              	.LVL78:
 877              	.L74:
 673:Drivers/STM32F7xx_HAL_Driver/Src/stm32f7xx_hal_rcc.c **** #if defined (RCC_PLLCFGR_PLLR)
 878              		.loc 1 673 0
 879 03c0 1F4A     		ldr	r2, .L131
ARM GAS  /tmp/cc4OTmQk.s 			page 30


 880 03c2 5268     		ldr	r2, [r2, #4]
 881              	.LVL79:
 675:Drivers/STM32F7xx_HAL_Driver/Src/stm32f7xx_hal_rcc.c ****           (READ_BIT(pll_config, RCC_PLLCFGR_PLLSRC) != RCC_OscInitStruct->PLL.PLLSource) ||
 882              		.loc 1 675 0
 883 03c4 012B     		cmp	r3, #1
 884 03c6 37D0     		beq	.L99
 676:Drivers/STM32F7xx_HAL_Driver/Src/stm32f7xx_hal_rcc.c ****           (READ_BIT(pll_config, RCC_PLLCFGR_PLLM) != RCC_OscInitStruct->PLL.PLLM) ||
 885              		.loc 1 676 0 discriminator 1
 886 03c8 02F48003 		and	r3, r2, #4194304
 887 03cc E169     		ldr	r1, [r4, #28]
 675:Drivers/STM32F7xx_HAL_Driver/Src/stm32f7xx_hal_rcc.c ****           (READ_BIT(pll_config, RCC_PLLCFGR_PLLSRC) != RCC_OscInitStruct->PLL.PLLSource) ||
 888              		.loc 1 675 0 discriminator 1
 889 03ce 8B42     		cmp	r3, r1
 890 03d0 01D0     		beq	.L124
 691:Drivers/STM32F7xx_HAL_Driver/Src/stm32f7xx_hal_rcc.c ****       }
 891              		.loc 1 691 0
 892 03d2 0120     		movs	r0, #1
 893 03d4 2EE0     		b	.L31
 894              	.L124:
 677:Drivers/STM32F7xx_HAL_Driver/Src/stm32f7xx_hal_rcc.c ****           (READ_BIT(pll_config, RCC_PLLCFGR_PLLN) != (RCC_OscInitStruct->PLL.PLLN << RCC_PLLCFGR_PL
 895              		.loc 1 677 0
 896 03d6 02F03F03 		and	r3, r2, #63
 897 03da 216A     		ldr	r1, [r4, #32]
 676:Drivers/STM32F7xx_HAL_Driver/Src/stm32f7xx_hal_rcc.c ****           (READ_BIT(pll_config, RCC_PLLCFGR_PLLM) != RCC_OscInitStruct->PLL.PLLM) ||
 898              		.loc 1 676 0
 899 03dc 8B42     		cmp	r3, r1
 900 03de 01D0     		beq	.L125
 691:Drivers/STM32F7xx_HAL_Driver/Src/stm32f7xx_hal_rcc.c ****       }
 901              		.loc 1 691 0
 902 03e0 0120     		movs	r0, #1
 903 03e2 27E0     		b	.L31
 904              	.L125:
 678:Drivers/STM32F7xx_HAL_Driver/Src/stm32f7xx_hal_rcc.c ****           (READ_BIT(pll_config, RCC_PLLCFGR_PLLP) != ((((RCC_OscInitStruct->PLL.PLLP) >> 1U) - 1U) 
 905              		.loc 1 678 0
 906 03e4 616A     		ldr	r1, [r4, #36]
 677:Drivers/STM32F7xx_HAL_Driver/Src/stm32f7xx_hal_rcc.c ****           (READ_BIT(pll_config, RCC_PLLCFGR_PLLN) != (RCC_OscInitStruct->PLL.PLLN << RCC_PLLCFGR_PL
 907              		.loc 1 677 0
 908 03e6 47F6C073 		movw	r3, #32704
 909 03ea 1340     		ands	r3, r3, r2
 910 03ec B3EB811F 		cmp	r3, r1, lsl #6
 911 03f0 01D0     		beq	.L126
 691:Drivers/STM32F7xx_HAL_Driver/Src/stm32f7xx_hal_rcc.c ****       }
 912              		.loc 1 691 0
 913 03f2 0120     		movs	r0, #1
 914 03f4 1EE0     		b	.L31
 915              	.L126:
 679:Drivers/STM32F7xx_HAL_Driver/Src/stm32f7xx_hal_rcc.c ****           (READ_BIT(pll_config, RCC_PLLCFGR_PLLQ) != (RCC_OscInitStruct->PLL.PLLQ << RCC_PLLCFGR_PL
 916              		.loc 1 679 0
 917 03f6 02F44031 		and	r1, r2, #196608
 918 03fa A36A     		ldr	r3, [r4, #40]
 919 03fc 5B08     		lsrs	r3, r3, #1
 920 03fe 013B     		subs	r3, r3, #1
 678:Drivers/STM32F7xx_HAL_Driver/Src/stm32f7xx_hal_rcc.c ****           (READ_BIT(pll_config, RCC_PLLCFGR_PLLP) != ((((RCC_OscInitStruct->PLL.PLLP) >> 1U) - 1U) 
 921              		.loc 1 678 0
 922 0400 B1EB034F 		cmp	r1, r3, lsl #16
 923 0404 01D0     		beq	.L127
 691:Drivers/STM32F7xx_HAL_Driver/Src/stm32f7xx_hal_rcc.c ****       }
ARM GAS  /tmp/cc4OTmQk.s 			page 31


 924              		.loc 1 691 0
 925 0406 0120     		movs	r0, #1
 926 0408 14E0     		b	.L31
 927              	.L127:
 680:Drivers/STM32F7xx_HAL_Driver/Src/stm32f7xx_hal_rcc.c ****           (READ_BIT(pll_config, RCC_PLLCFGR_PLLR) != (RCC_OscInitStruct->PLL.PLLR << RCC_PLLCFGR_PL
 928              		.loc 1 680 0
 929 040a 02F07063 		and	r3, r2, #251658240
 930 040e E16A     		ldr	r1, [r4, #44]
 679:Drivers/STM32F7xx_HAL_Driver/Src/stm32f7xx_hal_rcc.c ****           (READ_BIT(pll_config, RCC_PLLCFGR_PLLQ) != (RCC_OscInitStruct->PLL.PLLQ << RCC_PLLCFGR_PL
 931              		.loc 1 679 0
 932 0410 B3EB016F 		cmp	r3, r1, lsl #24
 933 0414 01D0     		beq	.L128
 691:Drivers/STM32F7xx_HAL_Driver/Src/stm32f7xx_hal_rcc.c ****       }
 934              		.loc 1 691 0
 935 0416 0120     		movs	r0, #1
 936 0418 0CE0     		b	.L31
 937              	.L128:
 681:Drivers/STM32F7xx_HAL_Driver/Src/stm32f7xx_hal_rcc.c **** #else
 938              		.loc 1 681 0
 939 041a 02F0E042 		and	r2, r2, #1879048192
 940              	.LVL80:
 941 041e 236B     		ldr	r3, [r4, #48]
 680:Drivers/STM32F7xx_HAL_Driver/Src/stm32f7xx_hal_rcc.c ****           (READ_BIT(pll_config, RCC_PLLCFGR_PLLR) != (RCC_OscInitStruct->PLL.PLLR << RCC_PLLCFGR_PL
 942              		.loc 1 680 0
 943 0420 B2EB037F 		cmp	r2, r3, lsl #28
 944 0424 0AD0     		beq	.L105
 691:Drivers/STM32F7xx_HAL_Driver/Src/stm32f7xx_hal_rcc.c ****       }
 945              		.loc 1 691 0
 946 0426 0120     		movs	r0, #1
 947 0428 04E0     		b	.L31
 948              	.LVL81:
 949              	.L82:
 950              	.LCFI3:
 951              		.cfi_def_cfa_offset 0
 952              		.cfi_restore 4
 953              		.cfi_restore 5
 954              		.cfi_restore 6
 955              		.cfi_restore 14
 353:Drivers/STM32F7xx_HAL_Driver/Src/stm32f7xx_hal_rcc.c ****   }
 956              		.loc 1 353 0
 957 042a 0120     		movs	r0, #1
 958              	.LVL82:
 959 042c 7047     		bx	lr
 960              	.LVL83:
 961              	.L112:
 962              	.LCFI4:
 963              		.cfi_def_cfa_offset 24
 964              		.cfi_offset 4, -16
 965              		.cfi_offset 5, -12
 966              		.cfi_offset 6, -8
 967              		.cfi_offset 14, -4
 370:Drivers/STM32F7xx_HAL_Driver/Src/stm32f7xx_hal_rcc.c ****       }
 968              		.loc 1 370 0
 969 042e 0120     		movs	r0, #1
 970              	.LVL84:
 971 0430 00E0     		b	.L31
 972              	.LVL85:
ARM GAS  /tmp/cc4OTmQk.s 			page 32


 973              	.L95:
 974              		.loc 1 695 0
 975 0432 0020     		movs	r0, #0
 976              	.LVL86:
 977              	.L31:
 696:Drivers/STM32F7xx_HAL_Driver/Src/stm32f7xx_hal_rcc.c **** }
 978              		.loc 1 696 0
 979 0434 02B0     		add	sp, sp, #8
 980              	.LCFI5:
 981              		.cfi_remember_state
 982              		.cfi_def_cfa_offset 16
 983              		@ sp needed
 984 0436 70BD     		pop	{r4, r5, r6, pc}
 985              	.LVL87:
 986              	.L99:
 987              	.LCFI6:
 988              		.cfi_restore_state
 691:Drivers/STM32F7xx_HAL_Driver/Src/stm32f7xx_hal_rcc.c ****       }
 989              		.loc 1 691 0
 990 0438 0120     		movs	r0, #1
 991 043a FBE7     		b	.L31
 992              	.LVL88:
 993              	.L105:
 695:Drivers/STM32F7xx_HAL_Driver/Src/stm32f7xx_hal_rcc.c **** }
 994              		.loc 1 695 0
 995 043c 0020     		movs	r0, #0
 996 043e F9E7     		b	.L31
 997              	.L132:
 998              		.align	2
 999              	.L131:
 1000 0440 00380240 		.word	1073887232
 1001              		.cfi_endproc
 1002              	.LFE142:
 1004              		.section	.text.HAL_RCC_MCOConfig,"ax",%progbits
 1005              		.align	1
 1006              		.global	HAL_RCC_MCOConfig
 1007              		.syntax unified
 1008              		.thumb
 1009              		.thumb_func
 1010              		.fpu fpv5-d16
 1012              	HAL_RCC_MCOConfig:
 1013              	.LFB144:
 697:Drivers/STM32F7xx_HAL_Driver/Src/stm32f7xx_hal_rcc.c **** 
 698:Drivers/STM32F7xx_HAL_Driver/Src/stm32f7xx_hal_rcc.c **** /**
 699:Drivers/STM32F7xx_HAL_Driver/Src/stm32f7xx_hal_rcc.c ****   * @brief  Initializes the CPU, AHB and APB buses clocks according to the specified
 700:Drivers/STM32F7xx_HAL_Driver/Src/stm32f7xx_hal_rcc.c ****   *         parameters in the RCC_ClkInitStruct.
 701:Drivers/STM32F7xx_HAL_Driver/Src/stm32f7xx_hal_rcc.c ****   * @param  RCC_ClkInitStruct pointer to an RCC_OscInitTypeDef structure that
 702:Drivers/STM32F7xx_HAL_Driver/Src/stm32f7xx_hal_rcc.c ****   *         contains the configuration information for the RCC peripheral.
 703:Drivers/STM32F7xx_HAL_Driver/Src/stm32f7xx_hal_rcc.c ****   * @param  FLatency FLASH Latency, this parameter depend on device selected
 704:Drivers/STM32F7xx_HAL_Driver/Src/stm32f7xx_hal_rcc.c ****   *
 705:Drivers/STM32F7xx_HAL_Driver/Src/stm32f7xx_hal_rcc.c ****   * @note   The SystemCoreClock CMSIS variable is used to store System Clock Frequency
 706:Drivers/STM32F7xx_HAL_Driver/Src/stm32f7xx_hal_rcc.c ****   *         and updated by HAL_RCC_GetHCLKFreq() function called within this function
 707:Drivers/STM32F7xx_HAL_Driver/Src/stm32f7xx_hal_rcc.c ****   *
 708:Drivers/STM32F7xx_HAL_Driver/Src/stm32f7xx_hal_rcc.c ****   * @note   The HSI is used (enabled by hardware) as system clock source after
 709:Drivers/STM32F7xx_HAL_Driver/Src/stm32f7xx_hal_rcc.c ****   *         startup from Reset, wake-up from STOP and STANDBY mode, or in case
 710:Drivers/STM32F7xx_HAL_Driver/Src/stm32f7xx_hal_rcc.c ****   *         of failure of the HSE used directly or indirectly as system clock
 711:Drivers/STM32F7xx_HAL_Driver/Src/stm32f7xx_hal_rcc.c ****   *         (if the Clock Security System CSS is enabled).
ARM GAS  /tmp/cc4OTmQk.s 			page 33


 712:Drivers/STM32F7xx_HAL_Driver/Src/stm32f7xx_hal_rcc.c ****   *
 713:Drivers/STM32F7xx_HAL_Driver/Src/stm32f7xx_hal_rcc.c ****   * @note   A switch from one clock source to another occurs only if the target
 714:Drivers/STM32F7xx_HAL_Driver/Src/stm32f7xx_hal_rcc.c ****   *         clock source is ready (clock stable after startup delay or PLL locked).
 715:Drivers/STM32F7xx_HAL_Driver/Src/stm32f7xx_hal_rcc.c ****   *         If a clock source which is not yet ready is selected, the switch will
 716:Drivers/STM32F7xx_HAL_Driver/Src/stm32f7xx_hal_rcc.c ****   *         occur when the clock source will be ready.
 717:Drivers/STM32F7xx_HAL_Driver/Src/stm32f7xx_hal_rcc.c ****   *         You can use HAL_RCC_GetClockConfig() function to know which clock is
 718:Drivers/STM32F7xx_HAL_Driver/Src/stm32f7xx_hal_rcc.c ****   *         currently used as system clock source.
 719:Drivers/STM32F7xx_HAL_Driver/Src/stm32f7xx_hal_rcc.c ****   * @note   Depending on the device voltage range, the software has to set correctly
 720:Drivers/STM32F7xx_HAL_Driver/Src/stm32f7xx_hal_rcc.c ****   *         HPRE[3:0] bits to ensure that HCLK not exceed the maximum allowed frequency
 721:Drivers/STM32F7xx_HAL_Driver/Src/stm32f7xx_hal_rcc.c ****   *         (for more details refer to section above "Initialization/de-initialization functions")
 722:Drivers/STM32F7xx_HAL_Driver/Src/stm32f7xx_hal_rcc.c ****   * @retval None
 723:Drivers/STM32F7xx_HAL_Driver/Src/stm32f7xx_hal_rcc.c ****   */
 724:Drivers/STM32F7xx_HAL_Driver/Src/stm32f7xx_hal_rcc.c **** HAL_StatusTypeDef HAL_RCC_ClockConfig(RCC_ClkInitTypeDef  *RCC_ClkInitStruct, uint32_t FLatency)
 725:Drivers/STM32F7xx_HAL_Driver/Src/stm32f7xx_hal_rcc.c **** {
 726:Drivers/STM32F7xx_HAL_Driver/Src/stm32f7xx_hal_rcc.c ****   uint32_t tickstart = 0;
 727:Drivers/STM32F7xx_HAL_Driver/Src/stm32f7xx_hal_rcc.c **** 
 728:Drivers/STM32F7xx_HAL_Driver/Src/stm32f7xx_hal_rcc.c ****   /* Check Null pointer */
 729:Drivers/STM32F7xx_HAL_Driver/Src/stm32f7xx_hal_rcc.c ****   if (RCC_ClkInitStruct == NULL)
 730:Drivers/STM32F7xx_HAL_Driver/Src/stm32f7xx_hal_rcc.c ****   {
 731:Drivers/STM32F7xx_HAL_Driver/Src/stm32f7xx_hal_rcc.c ****     return HAL_ERROR;
 732:Drivers/STM32F7xx_HAL_Driver/Src/stm32f7xx_hal_rcc.c ****   }
 733:Drivers/STM32F7xx_HAL_Driver/Src/stm32f7xx_hal_rcc.c **** 
 734:Drivers/STM32F7xx_HAL_Driver/Src/stm32f7xx_hal_rcc.c ****   /* Check the parameters */
 735:Drivers/STM32F7xx_HAL_Driver/Src/stm32f7xx_hal_rcc.c ****   assert_param(IS_RCC_CLOCKTYPE(RCC_ClkInitStruct->ClockType));
 736:Drivers/STM32F7xx_HAL_Driver/Src/stm32f7xx_hal_rcc.c ****   assert_param(IS_FLASH_LATENCY(FLatency));
 737:Drivers/STM32F7xx_HAL_Driver/Src/stm32f7xx_hal_rcc.c **** 
 738:Drivers/STM32F7xx_HAL_Driver/Src/stm32f7xx_hal_rcc.c ****   /* To correctly read data from FLASH memory, the number of wait states (LATENCY)
 739:Drivers/STM32F7xx_HAL_Driver/Src/stm32f7xx_hal_rcc.c ****      must be correctly programmed according to the frequency of the CPU clock
 740:Drivers/STM32F7xx_HAL_Driver/Src/stm32f7xx_hal_rcc.c ****      (HCLK) and the supply voltage of the device. */
 741:Drivers/STM32F7xx_HAL_Driver/Src/stm32f7xx_hal_rcc.c **** 
 742:Drivers/STM32F7xx_HAL_Driver/Src/stm32f7xx_hal_rcc.c ****   /* Increasing the CPU frequency */
 743:Drivers/STM32F7xx_HAL_Driver/Src/stm32f7xx_hal_rcc.c ****   if (FLatency > __HAL_FLASH_GET_LATENCY())
 744:Drivers/STM32F7xx_HAL_Driver/Src/stm32f7xx_hal_rcc.c ****   {
 745:Drivers/STM32F7xx_HAL_Driver/Src/stm32f7xx_hal_rcc.c ****     /* Program the new number of wait states to the LATENCY bits in the FLASH_ACR register */
 746:Drivers/STM32F7xx_HAL_Driver/Src/stm32f7xx_hal_rcc.c ****     __HAL_FLASH_SET_LATENCY(FLatency);
 747:Drivers/STM32F7xx_HAL_Driver/Src/stm32f7xx_hal_rcc.c **** 
 748:Drivers/STM32F7xx_HAL_Driver/Src/stm32f7xx_hal_rcc.c ****     /* Check that the new number of wait states is taken into account to access the Flash
 749:Drivers/STM32F7xx_HAL_Driver/Src/stm32f7xx_hal_rcc.c ****     memory by reading the FLASH_ACR register */
 750:Drivers/STM32F7xx_HAL_Driver/Src/stm32f7xx_hal_rcc.c ****     if (__HAL_FLASH_GET_LATENCY() != FLatency)
 751:Drivers/STM32F7xx_HAL_Driver/Src/stm32f7xx_hal_rcc.c ****     {
 752:Drivers/STM32F7xx_HAL_Driver/Src/stm32f7xx_hal_rcc.c ****       return HAL_ERROR;
 753:Drivers/STM32F7xx_HAL_Driver/Src/stm32f7xx_hal_rcc.c ****     }
 754:Drivers/STM32F7xx_HAL_Driver/Src/stm32f7xx_hal_rcc.c ****   }
 755:Drivers/STM32F7xx_HAL_Driver/Src/stm32f7xx_hal_rcc.c **** 
 756:Drivers/STM32F7xx_HAL_Driver/Src/stm32f7xx_hal_rcc.c ****   /*-------------------------- HCLK Configuration --------------------------*/
 757:Drivers/STM32F7xx_HAL_Driver/Src/stm32f7xx_hal_rcc.c ****   if (((RCC_ClkInitStruct->ClockType) & RCC_CLOCKTYPE_HCLK) == RCC_CLOCKTYPE_HCLK)
 758:Drivers/STM32F7xx_HAL_Driver/Src/stm32f7xx_hal_rcc.c ****   {
 759:Drivers/STM32F7xx_HAL_Driver/Src/stm32f7xx_hal_rcc.c ****     /* Set the highest APBx dividers in order to ensure that we do not go through
 760:Drivers/STM32F7xx_HAL_Driver/Src/stm32f7xx_hal_rcc.c ****        a non-spec phase whatever we decrease or increase HCLK. */
 761:Drivers/STM32F7xx_HAL_Driver/Src/stm32f7xx_hal_rcc.c ****     if (((RCC_ClkInitStruct->ClockType) & RCC_CLOCKTYPE_PCLK1) == RCC_CLOCKTYPE_PCLK1)
 762:Drivers/STM32F7xx_HAL_Driver/Src/stm32f7xx_hal_rcc.c ****     {
 763:Drivers/STM32F7xx_HAL_Driver/Src/stm32f7xx_hal_rcc.c ****       MODIFY_REG(RCC->CFGR, RCC_CFGR_PPRE1, RCC_HCLK_DIV16);
 764:Drivers/STM32F7xx_HAL_Driver/Src/stm32f7xx_hal_rcc.c ****     }
 765:Drivers/STM32F7xx_HAL_Driver/Src/stm32f7xx_hal_rcc.c **** 
 766:Drivers/STM32F7xx_HAL_Driver/Src/stm32f7xx_hal_rcc.c ****     if (((RCC_ClkInitStruct->ClockType) & RCC_CLOCKTYPE_PCLK2) == RCC_CLOCKTYPE_PCLK2)
 767:Drivers/STM32F7xx_HAL_Driver/Src/stm32f7xx_hal_rcc.c ****     {
 768:Drivers/STM32F7xx_HAL_Driver/Src/stm32f7xx_hal_rcc.c ****       MODIFY_REG(RCC->CFGR, RCC_CFGR_PPRE2, (RCC_HCLK_DIV16 << 3));
ARM GAS  /tmp/cc4OTmQk.s 			page 34


 769:Drivers/STM32F7xx_HAL_Driver/Src/stm32f7xx_hal_rcc.c ****     }
 770:Drivers/STM32F7xx_HAL_Driver/Src/stm32f7xx_hal_rcc.c **** 
 771:Drivers/STM32F7xx_HAL_Driver/Src/stm32f7xx_hal_rcc.c ****     /* Set the new HCLK clock divider */
 772:Drivers/STM32F7xx_HAL_Driver/Src/stm32f7xx_hal_rcc.c ****     assert_param(IS_RCC_HCLK(RCC_ClkInitStruct->AHBCLKDivider));
 773:Drivers/STM32F7xx_HAL_Driver/Src/stm32f7xx_hal_rcc.c ****     MODIFY_REG(RCC->CFGR, RCC_CFGR_HPRE, RCC_ClkInitStruct->AHBCLKDivider);
 774:Drivers/STM32F7xx_HAL_Driver/Src/stm32f7xx_hal_rcc.c ****   }
 775:Drivers/STM32F7xx_HAL_Driver/Src/stm32f7xx_hal_rcc.c **** 
 776:Drivers/STM32F7xx_HAL_Driver/Src/stm32f7xx_hal_rcc.c ****   /*------------------------- SYSCLK Configuration ---------------------------*/
 777:Drivers/STM32F7xx_HAL_Driver/Src/stm32f7xx_hal_rcc.c ****   if (((RCC_ClkInitStruct->ClockType) & RCC_CLOCKTYPE_SYSCLK) == RCC_CLOCKTYPE_SYSCLK)
 778:Drivers/STM32F7xx_HAL_Driver/Src/stm32f7xx_hal_rcc.c ****   {
 779:Drivers/STM32F7xx_HAL_Driver/Src/stm32f7xx_hal_rcc.c ****     assert_param(IS_RCC_SYSCLKSOURCE(RCC_ClkInitStruct->SYSCLKSource));
 780:Drivers/STM32F7xx_HAL_Driver/Src/stm32f7xx_hal_rcc.c **** 
 781:Drivers/STM32F7xx_HAL_Driver/Src/stm32f7xx_hal_rcc.c ****     /* HSE is selected as System Clock Source */
 782:Drivers/STM32F7xx_HAL_Driver/Src/stm32f7xx_hal_rcc.c ****     if (RCC_ClkInitStruct->SYSCLKSource == RCC_SYSCLKSOURCE_HSE)
 783:Drivers/STM32F7xx_HAL_Driver/Src/stm32f7xx_hal_rcc.c ****     {
 784:Drivers/STM32F7xx_HAL_Driver/Src/stm32f7xx_hal_rcc.c ****       /* Check the HSE ready flag */
 785:Drivers/STM32F7xx_HAL_Driver/Src/stm32f7xx_hal_rcc.c ****       if (__HAL_RCC_GET_FLAG(RCC_FLAG_HSERDY) == RESET)
 786:Drivers/STM32F7xx_HAL_Driver/Src/stm32f7xx_hal_rcc.c ****       {
 787:Drivers/STM32F7xx_HAL_Driver/Src/stm32f7xx_hal_rcc.c ****         return HAL_ERROR;
 788:Drivers/STM32F7xx_HAL_Driver/Src/stm32f7xx_hal_rcc.c ****       }
 789:Drivers/STM32F7xx_HAL_Driver/Src/stm32f7xx_hal_rcc.c ****     }
 790:Drivers/STM32F7xx_HAL_Driver/Src/stm32f7xx_hal_rcc.c ****     /* PLL is selected as System Clock Source */
 791:Drivers/STM32F7xx_HAL_Driver/Src/stm32f7xx_hal_rcc.c ****     else if (RCC_ClkInitStruct->SYSCLKSource == RCC_SYSCLKSOURCE_PLLCLK)
 792:Drivers/STM32F7xx_HAL_Driver/Src/stm32f7xx_hal_rcc.c ****     {
 793:Drivers/STM32F7xx_HAL_Driver/Src/stm32f7xx_hal_rcc.c ****       /* Check the PLL ready flag */
 794:Drivers/STM32F7xx_HAL_Driver/Src/stm32f7xx_hal_rcc.c ****       if (__HAL_RCC_GET_FLAG(RCC_FLAG_PLLRDY) == RESET)
 795:Drivers/STM32F7xx_HAL_Driver/Src/stm32f7xx_hal_rcc.c ****       {
 796:Drivers/STM32F7xx_HAL_Driver/Src/stm32f7xx_hal_rcc.c ****         return HAL_ERROR;
 797:Drivers/STM32F7xx_HAL_Driver/Src/stm32f7xx_hal_rcc.c ****       }
 798:Drivers/STM32F7xx_HAL_Driver/Src/stm32f7xx_hal_rcc.c ****     }
 799:Drivers/STM32F7xx_HAL_Driver/Src/stm32f7xx_hal_rcc.c ****     /* HSI is selected as System Clock Source */
 800:Drivers/STM32F7xx_HAL_Driver/Src/stm32f7xx_hal_rcc.c ****     else
 801:Drivers/STM32F7xx_HAL_Driver/Src/stm32f7xx_hal_rcc.c ****     {
 802:Drivers/STM32F7xx_HAL_Driver/Src/stm32f7xx_hal_rcc.c ****       /* Check the HSI ready flag */
 803:Drivers/STM32F7xx_HAL_Driver/Src/stm32f7xx_hal_rcc.c ****       if (__HAL_RCC_GET_FLAG(RCC_FLAG_HSIRDY) == RESET)
 804:Drivers/STM32F7xx_HAL_Driver/Src/stm32f7xx_hal_rcc.c ****       {
 805:Drivers/STM32F7xx_HAL_Driver/Src/stm32f7xx_hal_rcc.c ****         return HAL_ERROR;
 806:Drivers/STM32F7xx_HAL_Driver/Src/stm32f7xx_hal_rcc.c ****       }
 807:Drivers/STM32F7xx_HAL_Driver/Src/stm32f7xx_hal_rcc.c ****     }
 808:Drivers/STM32F7xx_HAL_Driver/Src/stm32f7xx_hal_rcc.c **** 
 809:Drivers/STM32F7xx_HAL_Driver/Src/stm32f7xx_hal_rcc.c ****     __HAL_RCC_SYSCLK_CONFIG(RCC_ClkInitStruct->SYSCLKSource);
 810:Drivers/STM32F7xx_HAL_Driver/Src/stm32f7xx_hal_rcc.c **** 
 811:Drivers/STM32F7xx_HAL_Driver/Src/stm32f7xx_hal_rcc.c ****     /* Get Start Tick*/
 812:Drivers/STM32F7xx_HAL_Driver/Src/stm32f7xx_hal_rcc.c ****     tickstart = HAL_GetTick();
 813:Drivers/STM32F7xx_HAL_Driver/Src/stm32f7xx_hal_rcc.c **** 
 814:Drivers/STM32F7xx_HAL_Driver/Src/stm32f7xx_hal_rcc.c ****     while (__HAL_RCC_GET_SYSCLK_SOURCE() != (RCC_ClkInitStruct->SYSCLKSource << RCC_CFGR_SWS_Pos))
 815:Drivers/STM32F7xx_HAL_Driver/Src/stm32f7xx_hal_rcc.c ****     {
 816:Drivers/STM32F7xx_HAL_Driver/Src/stm32f7xx_hal_rcc.c ****       if ((HAL_GetTick() - tickstart) > CLOCKSWITCH_TIMEOUT_VALUE)
 817:Drivers/STM32F7xx_HAL_Driver/Src/stm32f7xx_hal_rcc.c ****       {
 818:Drivers/STM32F7xx_HAL_Driver/Src/stm32f7xx_hal_rcc.c ****         return HAL_TIMEOUT;
 819:Drivers/STM32F7xx_HAL_Driver/Src/stm32f7xx_hal_rcc.c ****       }
 820:Drivers/STM32F7xx_HAL_Driver/Src/stm32f7xx_hal_rcc.c ****     }
 821:Drivers/STM32F7xx_HAL_Driver/Src/stm32f7xx_hal_rcc.c ****   }
 822:Drivers/STM32F7xx_HAL_Driver/Src/stm32f7xx_hal_rcc.c **** 
 823:Drivers/STM32F7xx_HAL_Driver/Src/stm32f7xx_hal_rcc.c ****   /* Decreasing the number of wait states because of lower CPU frequency */
 824:Drivers/STM32F7xx_HAL_Driver/Src/stm32f7xx_hal_rcc.c ****   if (FLatency < __HAL_FLASH_GET_LATENCY())
 825:Drivers/STM32F7xx_HAL_Driver/Src/stm32f7xx_hal_rcc.c ****   {
ARM GAS  /tmp/cc4OTmQk.s 			page 35


 826:Drivers/STM32F7xx_HAL_Driver/Src/stm32f7xx_hal_rcc.c ****     /* Program the new number of wait states to the LATENCY bits in the FLASH_ACR register */
 827:Drivers/STM32F7xx_HAL_Driver/Src/stm32f7xx_hal_rcc.c ****     __HAL_FLASH_SET_LATENCY(FLatency);
 828:Drivers/STM32F7xx_HAL_Driver/Src/stm32f7xx_hal_rcc.c **** 
 829:Drivers/STM32F7xx_HAL_Driver/Src/stm32f7xx_hal_rcc.c ****     /* Check that the new number of wait states is taken into account to access the Flash
 830:Drivers/STM32F7xx_HAL_Driver/Src/stm32f7xx_hal_rcc.c ****     memory by reading the FLASH_ACR register */
 831:Drivers/STM32F7xx_HAL_Driver/Src/stm32f7xx_hal_rcc.c ****     if (__HAL_FLASH_GET_LATENCY() != FLatency)
 832:Drivers/STM32F7xx_HAL_Driver/Src/stm32f7xx_hal_rcc.c ****     {
 833:Drivers/STM32F7xx_HAL_Driver/Src/stm32f7xx_hal_rcc.c ****       return HAL_ERROR;
 834:Drivers/STM32F7xx_HAL_Driver/Src/stm32f7xx_hal_rcc.c ****     }
 835:Drivers/STM32F7xx_HAL_Driver/Src/stm32f7xx_hal_rcc.c ****   }
 836:Drivers/STM32F7xx_HAL_Driver/Src/stm32f7xx_hal_rcc.c **** 
 837:Drivers/STM32F7xx_HAL_Driver/Src/stm32f7xx_hal_rcc.c ****   /*-------------------------- PCLK1 Configuration ---------------------------*/
 838:Drivers/STM32F7xx_HAL_Driver/Src/stm32f7xx_hal_rcc.c ****   if (((RCC_ClkInitStruct->ClockType) & RCC_CLOCKTYPE_PCLK1) == RCC_CLOCKTYPE_PCLK1)
 839:Drivers/STM32F7xx_HAL_Driver/Src/stm32f7xx_hal_rcc.c ****   {
 840:Drivers/STM32F7xx_HAL_Driver/Src/stm32f7xx_hal_rcc.c ****     assert_param(IS_RCC_PCLK(RCC_ClkInitStruct->APB1CLKDivider));
 841:Drivers/STM32F7xx_HAL_Driver/Src/stm32f7xx_hal_rcc.c ****     MODIFY_REG(RCC->CFGR, RCC_CFGR_PPRE1, RCC_ClkInitStruct->APB1CLKDivider);
 842:Drivers/STM32F7xx_HAL_Driver/Src/stm32f7xx_hal_rcc.c ****   }
 843:Drivers/STM32F7xx_HAL_Driver/Src/stm32f7xx_hal_rcc.c **** 
 844:Drivers/STM32F7xx_HAL_Driver/Src/stm32f7xx_hal_rcc.c ****   /*-------------------------- PCLK2 Configuration ---------------------------*/
 845:Drivers/STM32F7xx_HAL_Driver/Src/stm32f7xx_hal_rcc.c ****   if (((RCC_ClkInitStruct->ClockType) & RCC_CLOCKTYPE_PCLK2) == RCC_CLOCKTYPE_PCLK2)
 846:Drivers/STM32F7xx_HAL_Driver/Src/stm32f7xx_hal_rcc.c ****   {
 847:Drivers/STM32F7xx_HAL_Driver/Src/stm32f7xx_hal_rcc.c ****     assert_param(IS_RCC_PCLK(RCC_ClkInitStruct->APB2CLKDivider));
 848:Drivers/STM32F7xx_HAL_Driver/Src/stm32f7xx_hal_rcc.c ****     MODIFY_REG(RCC->CFGR, RCC_CFGR_PPRE2, ((RCC_ClkInitStruct->APB2CLKDivider) << 3));
 849:Drivers/STM32F7xx_HAL_Driver/Src/stm32f7xx_hal_rcc.c ****   }
 850:Drivers/STM32F7xx_HAL_Driver/Src/stm32f7xx_hal_rcc.c **** 
 851:Drivers/STM32F7xx_HAL_Driver/Src/stm32f7xx_hal_rcc.c ****   /* Update the SystemCoreClock global variable */
 852:Drivers/STM32F7xx_HAL_Driver/Src/stm32f7xx_hal_rcc.c ****   SystemCoreClock = HAL_RCC_GetSysClockFreq() >> AHBPrescTable[(RCC->CFGR & RCC_CFGR_HPRE) >> RCC_C
 853:Drivers/STM32F7xx_HAL_Driver/Src/stm32f7xx_hal_rcc.c **** 
 854:Drivers/STM32F7xx_HAL_Driver/Src/stm32f7xx_hal_rcc.c ****   /* Configure the source of time base considering new system clocks settings*/
 855:Drivers/STM32F7xx_HAL_Driver/Src/stm32f7xx_hal_rcc.c ****   HAL_InitTick(uwTickPrio);
 856:Drivers/STM32F7xx_HAL_Driver/Src/stm32f7xx_hal_rcc.c **** 
 857:Drivers/STM32F7xx_HAL_Driver/Src/stm32f7xx_hal_rcc.c ****   return HAL_OK;
 858:Drivers/STM32F7xx_HAL_Driver/Src/stm32f7xx_hal_rcc.c **** }
 859:Drivers/STM32F7xx_HAL_Driver/Src/stm32f7xx_hal_rcc.c **** 
 860:Drivers/STM32F7xx_HAL_Driver/Src/stm32f7xx_hal_rcc.c **** /**
 861:Drivers/STM32F7xx_HAL_Driver/Src/stm32f7xx_hal_rcc.c ****   * @}
 862:Drivers/STM32F7xx_HAL_Driver/Src/stm32f7xx_hal_rcc.c ****   */
 863:Drivers/STM32F7xx_HAL_Driver/Src/stm32f7xx_hal_rcc.c **** 
 864:Drivers/STM32F7xx_HAL_Driver/Src/stm32f7xx_hal_rcc.c **** /** @defgroup RCC_Exported_Functions_Group2 Peripheral Control functions
 865:Drivers/STM32F7xx_HAL_Driver/Src/stm32f7xx_hal_rcc.c ****   *  @brief   RCC clocks control functions
 866:Drivers/STM32F7xx_HAL_Driver/Src/stm32f7xx_hal_rcc.c ****   *
 867:Drivers/STM32F7xx_HAL_Driver/Src/stm32f7xx_hal_rcc.c ****   @verbatim
 868:Drivers/STM32F7xx_HAL_Driver/Src/stm32f7xx_hal_rcc.c ****   ===============================================================================
 869:Drivers/STM32F7xx_HAL_Driver/Src/stm32f7xx_hal_rcc.c ****                   ##### Peripheral Control functions #####
 870:Drivers/STM32F7xx_HAL_Driver/Src/stm32f7xx_hal_rcc.c ****   ===============================================================================
 871:Drivers/STM32F7xx_HAL_Driver/Src/stm32f7xx_hal_rcc.c ****     [..]
 872:Drivers/STM32F7xx_HAL_Driver/Src/stm32f7xx_hal_rcc.c ****     This subsection provides a set of functions allowing to control the RCC Clocks
 873:Drivers/STM32F7xx_HAL_Driver/Src/stm32f7xx_hal_rcc.c ****     frequencies.
 874:Drivers/STM32F7xx_HAL_Driver/Src/stm32f7xx_hal_rcc.c **** 
 875:Drivers/STM32F7xx_HAL_Driver/Src/stm32f7xx_hal_rcc.c **** @endverbatim
 876:Drivers/STM32F7xx_HAL_Driver/Src/stm32f7xx_hal_rcc.c ****   * @{
 877:Drivers/STM32F7xx_HAL_Driver/Src/stm32f7xx_hal_rcc.c ****   */
 878:Drivers/STM32F7xx_HAL_Driver/Src/stm32f7xx_hal_rcc.c **** 
 879:Drivers/STM32F7xx_HAL_Driver/Src/stm32f7xx_hal_rcc.c **** /**
 880:Drivers/STM32F7xx_HAL_Driver/Src/stm32f7xx_hal_rcc.c ****   * @brief  Selects the clock source to output on MCO1 pin(PA8) or on MCO2 pin(PC9).
 881:Drivers/STM32F7xx_HAL_Driver/Src/stm32f7xx_hal_rcc.c ****   * @note   PA8/PC9 should be configured in alternate function mode.
 882:Drivers/STM32F7xx_HAL_Driver/Src/stm32f7xx_hal_rcc.c ****   * @param  RCC_MCOx specifies the output direction for the clock source.
ARM GAS  /tmp/cc4OTmQk.s 			page 36


 883:Drivers/STM32F7xx_HAL_Driver/Src/stm32f7xx_hal_rcc.c ****   *          This parameter can be one of the following values:
 884:Drivers/STM32F7xx_HAL_Driver/Src/stm32f7xx_hal_rcc.c ****   *            @arg RCC_MCO1: Clock source to output on MCO1 pin(PA8).
 885:Drivers/STM32F7xx_HAL_Driver/Src/stm32f7xx_hal_rcc.c ****   *            @arg RCC_MCO2: Clock source to output on MCO2 pin(PC9).
 886:Drivers/STM32F7xx_HAL_Driver/Src/stm32f7xx_hal_rcc.c ****   * @param  RCC_MCOSource specifies the clock source to output.
 887:Drivers/STM32F7xx_HAL_Driver/Src/stm32f7xx_hal_rcc.c ****   *          This parameter can be one of the following values:
 888:Drivers/STM32F7xx_HAL_Driver/Src/stm32f7xx_hal_rcc.c ****   *            @arg RCC_MCO1SOURCE_HSI: HSI clock selected as MCO1 source
 889:Drivers/STM32F7xx_HAL_Driver/Src/stm32f7xx_hal_rcc.c ****   *            @arg RCC_MCO1SOURCE_LSE: LSE clock selected as MCO1 source
 890:Drivers/STM32F7xx_HAL_Driver/Src/stm32f7xx_hal_rcc.c ****   *            @arg RCC_MCO1SOURCE_HSE: HSE clock selected as MCO1 source
 891:Drivers/STM32F7xx_HAL_Driver/Src/stm32f7xx_hal_rcc.c ****   *            @arg RCC_MCO1SOURCE_PLLCLK: main PLL clock selected as MCO1 source
 892:Drivers/STM32F7xx_HAL_Driver/Src/stm32f7xx_hal_rcc.c ****   *            @arg RCC_MCO2SOURCE_SYSCLK: System clock (SYSCLK) selected as MCO2 source
 893:Drivers/STM32F7xx_HAL_Driver/Src/stm32f7xx_hal_rcc.c ****   *            @arg RCC_MCO2SOURCE_PLLI2SCLK: PLLI2S clock selected as MCO2 source
 894:Drivers/STM32F7xx_HAL_Driver/Src/stm32f7xx_hal_rcc.c ****   *            @arg RCC_MCO2SOURCE_HSE: HSE clock selected as MCO2 source
 895:Drivers/STM32F7xx_HAL_Driver/Src/stm32f7xx_hal_rcc.c ****   *            @arg RCC_MCO2SOURCE_PLLCLK: main PLL clock selected as MCO2 source
 896:Drivers/STM32F7xx_HAL_Driver/Src/stm32f7xx_hal_rcc.c ****   * @param  RCC_MCODiv specifies the MCOx prescaler.
 897:Drivers/STM32F7xx_HAL_Driver/Src/stm32f7xx_hal_rcc.c ****   *          This parameter can be one of the following values:
 898:Drivers/STM32F7xx_HAL_Driver/Src/stm32f7xx_hal_rcc.c ****   *            @arg RCC_MCODIV_1: no division applied to MCOx clock
 899:Drivers/STM32F7xx_HAL_Driver/Src/stm32f7xx_hal_rcc.c ****   *            @arg RCC_MCODIV_2: division by 2 applied to MCOx clock
 900:Drivers/STM32F7xx_HAL_Driver/Src/stm32f7xx_hal_rcc.c ****   *            @arg RCC_MCODIV_3: division by 3 applied to MCOx clock
 901:Drivers/STM32F7xx_HAL_Driver/Src/stm32f7xx_hal_rcc.c ****   *            @arg RCC_MCODIV_4: division by 4 applied to MCOx clock
 902:Drivers/STM32F7xx_HAL_Driver/Src/stm32f7xx_hal_rcc.c ****   *            @arg RCC_MCODIV_5: division by 5 applied to MCOx clock
 903:Drivers/STM32F7xx_HAL_Driver/Src/stm32f7xx_hal_rcc.c ****   * @retval None
 904:Drivers/STM32F7xx_HAL_Driver/Src/stm32f7xx_hal_rcc.c ****   */
 905:Drivers/STM32F7xx_HAL_Driver/Src/stm32f7xx_hal_rcc.c **** void HAL_RCC_MCOConfig(uint32_t RCC_MCOx, uint32_t RCC_MCOSource, uint32_t RCC_MCODiv)
 906:Drivers/STM32F7xx_HAL_Driver/Src/stm32f7xx_hal_rcc.c **** {
 1014              		.loc 1 906 0
 1015              		.cfi_startproc
 1016              		@ args = 0, pretend = 0, frame = 32
 1017              		@ frame_needed = 0, uses_anonymous_args = 0
 1018              	.LVL89:
 1019 0000 70B5     		push	{r4, r5, r6, lr}
 1020              	.LCFI7:
 1021              		.cfi_def_cfa_offset 16
 1022              		.cfi_offset 4, -16
 1023              		.cfi_offset 5, -12
 1024              		.cfi_offset 6, -8
 1025              		.cfi_offset 14, -4
 1026 0002 88B0     		sub	sp, sp, #32
 1027              	.LCFI8:
 1028              		.cfi_def_cfa_offset 48
 1029 0004 0C46     		mov	r4, r1
 1030 0006 1646     		mov	r6, r2
 907:Drivers/STM32F7xx_HAL_Driver/Src/stm32f7xx_hal_rcc.c ****   GPIO_InitTypeDef GPIO_InitStruct;
 908:Drivers/STM32F7xx_HAL_Driver/Src/stm32f7xx_hal_rcc.c ****   /* Check the parameters */
 909:Drivers/STM32F7xx_HAL_Driver/Src/stm32f7xx_hal_rcc.c ****   assert_param(IS_RCC_MCO(RCC_MCOx));
 910:Drivers/STM32F7xx_HAL_Driver/Src/stm32f7xx_hal_rcc.c ****   assert_param(IS_RCC_MCODIV(RCC_MCODiv));
 911:Drivers/STM32F7xx_HAL_Driver/Src/stm32f7xx_hal_rcc.c ****   /* RCC_MCO1 */
 912:Drivers/STM32F7xx_HAL_Driver/Src/stm32f7xx_hal_rcc.c ****   if (RCC_MCOx == RCC_MCO1)
 1031              		.loc 1 912 0
 1032 0008 00B3     		cbz	r0, .L137
 1033              	.LBB5:
 913:Drivers/STM32F7xx_HAL_Driver/Src/stm32f7xx_hal_rcc.c ****   {
 914:Drivers/STM32F7xx_HAL_Driver/Src/stm32f7xx_hal_rcc.c ****     assert_param(IS_RCC_MCO1SOURCE(RCC_MCOSource));
 915:Drivers/STM32F7xx_HAL_Driver/Src/stm32f7xx_hal_rcc.c **** 
 916:Drivers/STM32F7xx_HAL_Driver/Src/stm32f7xx_hal_rcc.c ****     /* MCO1 Clock Enable */
 917:Drivers/STM32F7xx_HAL_Driver/Src/stm32f7xx_hal_rcc.c ****     MCO1_CLK_ENABLE();
 918:Drivers/STM32F7xx_HAL_Driver/Src/stm32f7xx_hal_rcc.c **** 
 919:Drivers/STM32F7xx_HAL_Driver/Src/stm32f7xx_hal_rcc.c ****     /* Configure the MCO1 pin in alternate function mode */
ARM GAS  /tmp/cc4OTmQk.s 			page 37


 920:Drivers/STM32F7xx_HAL_Driver/Src/stm32f7xx_hal_rcc.c ****     GPIO_InitStruct.Pin = MCO1_PIN;
 921:Drivers/STM32F7xx_HAL_Driver/Src/stm32f7xx_hal_rcc.c ****     GPIO_InitStruct.Mode = GPIO_MODE_AF_PP;
 922:Drivers/STM32F7xx_HAL_Driver/Src/stm32f7xx_hal_rcc.c ****     GPIO_InitStruct.Speed = GPIO_SPEED_HIGH;
 923:Drivers/STM32F7xx_HAL_Driver/Src/stm32f7xx_hal_rcc.c ****     GPIO_InitStruct.Pull = GPIO_NOPULL;
 924:Drivers/STM32F7xx_HAL_Driver/Src/stm32f7xx_hal_rcc.c ****     GPIO_InitStruct.Alternate = GPIO_AF0_MCO;
 925:Drivers/STM32F7xx_HAL_Driver/Src/stm32f7xx_hal_rcc.c ****     HAL_GPIO_Init(MCO1_GPIO_PORT, &GPIO_InitStruct);
 926:Drivers/STM32F7xx_HAL_Driver/Src/stm32f7xx_hal_rcc.c **** 
 927:Drivers/STM32F7xx_HAL_Driver/Src/stm32f7xx_hal_rcc.c ****     /* Mask MCO1 and MCO1PRE[2:0] bits then Select MCO1 clock source and prescaler */
 928:Drivers/STM32F7xx_HAL_Driver/Src/stm32f7xx_hal_rcc.c ****     MODIFY_REG(RCC->CFGR, (RCC_CFGR_MCO1 | RCC_CFGR_MCO1PRE), (RCC_MCOSource | RCC_MCODiv));
 929:Drivers/STM32F7xx_HAL_Driver/Src/stm32f7xx_hal_rcc.c ****   }
 930:Drivers/STM32F7xx_HAL_Driver/Src/stm32f7xx_hal_rcc.c ****   else
 931:Drivers/STM32F7xx_HAL_Driver/Src/stm32f7xx_hal_rcc.c ****   {
 932:Drivers/STM32F7xx_HAL_Driver/Src/stm32f7xx_hal_rcc.c ****     assert_param(IS_RCC_MCO2SOURCE(RCC_MCOSource));
 933:Drivers/STM32F7xx_HAL_Driver/Src/stm32f7xx_hal_rcc.c **** 
 934:Drivers/STM32F7xx_HAL_Driver/Src/stm32f7xx_hal_rcc.c ****     /* MCO2 Clock Enable */
 935:Drivers/STM32F7xx_HAL_Driver/Src/stm32f7xx_hal_rcc.c ****     MCO2_CLK_ENABLE();
 1034              		.loc 1 935 0
 1035 000a 204D     		ldr	r5, .L138
 1036 000c 2B6B     		ldr	r3, [r5, #48]
 1037 000e 43F00403 		orr	r3, r3, #4
 1038 0012 2B63     		str	r3, [r5, #48]
 1039 0014 2B6B     		ldr	r3, [r5, #48]
 1040 0016 03F00403 		and	r3, r3, #4
 1041 001a 0293     		str	r3, [sp, #8]
 1042 001c 029B     		ldr	r3, [sp, #8]
 1043              	.LBE5:
 936:Drivers/STM32F7xx_HAL_Driver/Src/stm32f7xx_hal_rcc.c **** 
 937:Drivers/STM32F7xx_HAL_Driver/Src/stm32f7xx_hal_rcc.c ****     /* Configure the MCO2 pin in alternate function mode */
 938:Drivers/STM32F7xx_HAL_Driver/Src/stm32f7xx_hal_rcc.c ****     GPIO_InitStruct.Pin = MCO2_PIN;
 1044              		.loc 1 938 0
 1045 001e 4FF40073 		mov	r3, #512
 1046 0022 0393     		str	r3, [sp, #12]
 939:Drivers/STM32F7xx_HAL_Driver/Src/stm32f7xx_hal_rcc.c ****     GPIO_InitStruct.Mode = GPIO_MODE_AF_PP;
 1047              		.loc 1 939 0
 1048 0024 0223     		movs	r3, #2
 1049 0026 0493     		str	r3, [sp, #16]
 940:Drivers/STM32F7xx_HAL_Driver/Src/stm32f7xx_hal_rcc.c ****     GPIO_InitStruct.Speed = GPIO_SPEED_HIGH;
 1050              		.loc 1 940 0
 1051 0028 0323     		movs	r3, #3
 1052 002a 0693     		str	r3, [sp, #24]
 941:Drivers/STM32F7xx_HAL_Driver/Src/stm32f7xx_hal_rcc.c ****     GPIO_InitStruct.Pull = GPIO_NOPULL;
 1053              		.loc 1 941 0
 1054 002c 0023     		movs	r3, #0
 1055 002e 0593     		str	r3, [sp, #20]
 942:Drivers/STM32F7xx_HAL_Driver/Src/stm32f7xx_hal_rcc.c ****     GPIO_InitStruct.Alternate = GPIO_AF0_MCO;
 1056              		.loc 1 942 0
 1057 0030 0793     		str	r3, [sp, #28]
 943:Drivers/STM32F7xx_HAL_Driver/Src/stm32f7xx_hal_rcc.c ****     HAL_GPIO_Init(MCO2_GPIO_PORT, &GPIO_InitStruct);
 1058              		.loc 1 943 0
 1059 0032 03A9     		add	r1, sp, #12
 1060              	.LVL90:
 1061 0034 1648     		ldr	r0, .L138+4
 1062              	.LVL91:
 1063 0036 FFF7FEFF 		bl	HAL_GPIO_Init
 1064              	.LVL92:
 944:Drivers/STM32F7xx_HAL_Driver/Src/stm32f7xx_hal_rcc.c **** 
 945:Drivers/STM32F7xx_HAL_Driver/Src/stm32f7xx_hal_rcc.c ****     /* Mask MCO2 and MCO2PRE[2:0] bits then Select MCO2 clock source and prescaler */
ARM GAS  /tmp/cc4OTmQk.s 			page 38


 946:Drivers/STM32F7xx_HAL_Driver/Src/stm32f7xx_hal_rcc.c ****     MODIFY_REG(RCC->CFGR, (RCC_CFGR_MCO2 | RCC_CFGR_MCO2PRE), (RCC_MCOSource | (RCC_MCODiv << 3)));
 1065              		.loc 1 946 0
 1066 003a AB68     		ldr	r3, [r5, #8]
 1067 003c 23F07843 		bic	r3, r3, #-134217728
 1068 0040 44EAC604 		orr	r4, r4, r6, lsl #3
 1069              	.LVL93:
 1070 0044 1C43     		orrs	r4, r4, r3
 1071 0046 AC60     		str	r4, [r5, #8]
 1072              	.L133:
 947:Drivers/STM32F7xx_HAL_Driver/Src/stm32f7xx_hal_rcc.c ****   }
 948:Drivers/STM32F7xx_HAL_Driver/Src/stm32f7xx_hal_rcc.c **** }
 1073              		.loc 1 948 0
 1074 0048 08B0     		add	sp, sp, #32
 1075              	.LCFI9:
 1076              		.cfi_remember_state
 1077              		.cfi_def_cfa_offset 16
 1078              		@ sp needed
 1079 004a 70BD     		pop	{r4, r5, r6, pc}
 1080              	.LVL94:
 1081              	.L137:
 1082              	.LCFI10:
 1083              		.cfi_restore_state
 1084              	.LBB6:
 917:Drivers/STM32F7xx_HAL_Driver/Src/stm32f7xx_hal_rcc.c **** 
 1085              		.loc 1 917 0
 1086 004c 0F4D     		ldr	r5, .L138
 1087 004e 2B6B     		ldr	r3, [r5, #48]
 1088 0050 43F00103 		orr	r3, r3, #1
 1089 0054 2B63     		str	r3, [r5, #48]
 1090 0056 2B6B     		ldr	r3, [r5, #48]
 1091 0058 03F00103 		and	r3, r3, #1
 1092 005c 0193     		str	r3, [sp, #4]
 1093 005e 019B     		ldr	r3, [sp, #4]
 1094              	.LBE6:
 920:Drivers/STM32F7xx_HAL_Driver/Src/stm32f7xx_hal_rcc.c ****     GPIO_InitStruct.Mode = GPIO_MODE_AF_PP;
 1095              		.loc 1 920 0
 1096 0060 4FF48073 		mov	r3, #256
 1097 0064 0393     		str	r3, [sp, #12]
 921:Drivers/STM32F7xx_HAL_Driver/Src/stm32f7xx_hal_rcc.c ****     GPIO_InitStruct.Speed = GPIO_SPEED_HIGH;
 1098              		.loc 1 921 0
 1099 0066 0223     		movs	r3, #2
 1100 0068 0493     		str	r3, [sp, #16]
 922:Drivers/STM32F7xx_HAL_Driver/Src/stm32f7xx_hal_rcc.c ****     GPIO_InitStruct.Pull = GPIO_NOPULL;
 1101              		.loc 1 922 0
 1102 006a 0323     		movs	r3, #3
 1103 006c 0693     		str	r3, [sp, #24]
 923:Drivers/STM32F7xx_HAL_Driver/Src/stm32f7xx_hal_rcc.c ****     GPIO_InitStruct.Alternate = GPIO_AF0_MCO;
 1104              		.loc 1 923 0
 1105 006e 0023     		movs	r3, #0
 1106 0070 0593     		str	r3, [sp, #20]
 924:Drivers/STM32F7xx_HAL_Driver/Src/stm32f7xx_hal_rcc.c ****     HAL_GPIO_Init(MCO1_GPIO_PORT, &GPIO_InitStruct);
 1107              		.loc 1 924 0
 1108 0072 0793     		str	r3, [sp, #28]
 925:Drivers/STM32F7xx_HAL_Driver/Src/stm32f7xx_hal_rcc.c **** 
 1109              		.loc 1 925 0
 1110 0074 03A9     		add	r1, sp, #12
 1111              	.LVL95:
ARM GAS  /tmp/cc4OTmQk.s 			page 39


 1112 0076 0748     		ldr	r0, .L138+8
 1113              	.LVL96:
 1114 0078 FFF7FEFF 		bl	HAL_GPIO_Init
 1115              	.LVL97:
 928:Drivers/STM32F7xx_HAL_Driver/Src/stm32f7xx_hal_rcc.c ****   }
 1116              		.loc 1 928 0
 1117 007c AB68     		ldr	r3, [r5, #8]
 1118 007e 23F0EC63 		bic	r3, r3, #123731968
 1119 0082 3443     		orrs	r4, r4, r6
 1120              	.LVL98:
 1121 0084 1C43     		orrs	r4, r4, r3
 1122 0086 AC60     		str	r4, [r5, #8]
 1123 0088 DEE7     		b	.L133
 1124              	.L139:
 1125 008a 00BF     		.align	2
 1126              	.L138:
 1127 008c 00380240 		.word	1073887232
 1128 0090 00080240 		.word	1073874944
 1129 0094 00000240 		.word	1073872896
 1130              		.cfi_endproc
 1131              	.LFE144:
 1133              		.section	.text.HAL_RCC_EnableCSS,"ax",%progbits
 1134              		.align	1
 1135              		.global	HAL_RCC_EnableCSS
 1136              		.syntax unified
 1137              		.thumb
 1138              		.thumb_func
 1139              		.fpu fpv5-d16
 1141              	HAL_RCC_EnableCSS:
 1142              	.LFB145:
 949:Drivers/STM32F7xx_HAL_Driver/Src/stm32f7xx_hal_rcc.c **** 
 950:Drivers/STM32F7xx_HAL_Driver/Src/stm32f7xx_hal_rcc.c **** /**
 951:Drivers/STM32F7xx_HAL_Driver/Src/stm32f7xx_hal_rcc.c ****   * @brief  Enables the Clock Security System.
 952:Drivers/STM32F7xx_HAL_Driver/Src/stm32f7xx_hal_rcc.c ****   * @note   If a failure is detected on the HSE oscillator clock, this oscillator
 953:Drivers/STM32F7xx_HAL_Driver/Src/stm32f7xx_hal_rcc.c ****   *         is automatically disabled and an interrupt is generated to inform the
 954:Drivers/STM32F7xx_HAL_Driver/Src/stm32f7xx_hal_rcc.c ****   *         software about the failure (Clock Security System Interrupt, CSSI),
 955:Drivers/STM32F7xx_HAL_Driver/Src/stm32f7xx_hal_rcc.c ****   *         allowing the MCU to perform rescue operations. The CSSI is linked to
 956:Drivers/STM32F7xx_HAL_Driver/Src/stm32f7xx_hal_rcc.c ****   *         the Cortex-M7 NMI (Non-Maskable Interrupt) exception vector.
 957:Drivers/STM32F7xx_HAL_Driver/Src/stm32f7xx_hal_rcc.c ****   * @retval None
 958:Drivers/STM32F7xx_HAL_Driver/Src/stm32f7xx_hal_rcc.c ****   */
 959:Drivers/STM32F7xx_HAL_Driver/Src/stm32f7xx_hal_rcc.c **** void HAL_RCC_EnableCSS(void)
 960:Drivers/STM32F7xx_HAL_Driver/Src/stm32f7xx_hal_rcc.c **** {
 1143              		.loc 1 960 0
 1144              		.cfi_startproc
 1145              		@ args = 0, pretend = 0, frame = 0
 1146              		@ frame_needed = 0, uses_anonymous_args = 0
 1147              		@ link register save eliminated.
 961:Drivers/STM32F7xx_HAL_Driver/Src/stm32f7xx_hal_rcc.c ****   SET_BIT(RCC->CR, RCC_CR_CSSON);
 1148              		.loc 1 961 0
 1149 0000 024A     		ldr	r2, .L141
 1150 0002 1368     		ldr	r3, [r2]
 1151 0004 43F40023 		orr	r3, r3, #524288
 1152 0008 1360     		str	r3, [r2]
 1153 000a 7047     		bx	lr
 1154              	.L142:
 1155              		.align	2
 1156              	.L141:
ARM GAS  /tmp/cc4OTmQk.s 			page 40


 1157 000c 00380240 		.word	1073887232
 1158              		.cfi_endproc
 1159              	.LFE145:
 1161              		.section	.text.HAL_RCC_DisableCSS,"ax",%progbits
 1162              		.align	1
 1163              		.global	HAL_RCC_DisableCSS
 1164              		.syntax unified
 1165              		.thumb
 1166              		.thumb_func
 1167              		.fpu fpv5-d16
 1169              	HAL_RCC_DisableCSS:
 1170              	.LFB146:
 962:Drivers/STM32F7xx_HAL_Driver/Src/stm32f7xx_hal_rcc.c **** }
 963:Drivers/STM32F7xx_HAL_Driver/Src/stm32f7xx_hal_rcc.c **** 
 964:Drivers/STM32F7xx_HAL_Driver/Src/stm32f7xx_hal_rcc.c **** /**
 965:Drivers/STM32F7xx_HAL_Driver/Src/stm32f7xx_hal_rcc.c ****   * @brief  Disables the Clock Security System.
 966:Drivers/STM32F7xx_HAL_Driver/Src/stm32f7xx_hal_rcc.c ****   * @retval None
 967:Drivers/STM32F7xx_HAL_Driver/Src/stm32f7xx_hal_rcc.c ****   */
 968:Drivers/STM32F7xx_HAL_Driver/Src/stm32f7xx_hal_rcc.c **** void HAL_RCC_DisableCSS(void)
 969:Drivers/STM32F7xx_HAL_Driver/Src/stm32f7xx_hal_rcc.c **** {
 1171              		.loc 1 969 0
 1172              		.cfi_startproc
 1173              		@ args = 0, pretend = 0, frame = 0
 1174              		@ frame_needed = 0, uses_anonymous_args = 0
 1175              		@ link register save eliminated.
 970:Drivers/STM32F7xx_HAL_Driver/Src/stm32f7xx_hal_rcc.c ****   CLEAR_BIT(RCC->CR, RCC_CR_CSSON);
 1176              		.loc 1 970 0
 1177 0000 024A     		ldr	r2, .L144
 1178 0002 1368     		ldr	r3, [r2]
 1179 0004 23F40023 		bic	r3, r3, #524288
 1180 0008 1360     		str	r3, [r2]
 1181 000a 7047     		bx	lr
 1182              	.L145:
 1183              		.align	2
 1184              	.L144:
 1185 000c 00380240 		.word	1073887232
 1186              		.cfi_endproc
 1187              	.LFE146:
 1189              		.global	__aeabi_uldivmod
 1190              		.section	.text.HAL_RCC_GetSysClockFreq,"ax",%progbits
 1191              		.align	1
 1192              		.global	HAL_RCC_GetSysClockFreq
 1193              		.syntax unified
 1194              		.thumb
 1195              		.thumb_func
 1196              		.fpu fpv5-d16
 1198              	HAL_RCC_GetSysClockFreq:
 1199              	.LFB147:
 971:Drivers/STM32F7xx_HAL_Driver/Src/stm32f7xx_hal_rcc.c **** }
 972:Drivers/STM32F7xx_HAL_Driver/Src/stm32f7xx_hal_rcc.c **** 
 973:Drivers/STM32F7xx_HAL_Driver/Src/stm32f7xx_hal_rcc.c **** /**
 974:Drivers/STM32F7xx_HAL_Driver/Src/stm32f7xx_hal_rcc.c ****   * @brief  Returns the SYSCLK frequency
 975:Drivers/STM32F7xx_HAL_Driver/Src/stm32f7xx_hal_rcc.c ****   *
 976:Drivers/STM32F7xx_HAL_Driver/Src/stm32f7xx_hal_rcc.c ****   * @note   The system frequency computed by this function is not the real
 977:Drivers/STM32F7xx_HAL_Driver/Src/stm32f7xx_hal_rcc.c ****   *         frequency in the chip. It is calculated based on the predefined
 978:Drivers/STM32F7xx_HAL_Driver/Src/stm32f7xx_hal_rcc.c ****   *         constant and the selected clock source:
 979:Drivers/STM32F7xx_HAL_Driver/Src/stm32f7xx_hal_rcc.c ****   * @note     If SYSCLK source is HSI, function returns values based on HSI_VALUE(*)
ARM GAS  /tmp/cc4OTmQk.s 			page 41


 980:Drivers/STM32F7xx_HAL_Driver/Src/stm32f7xx_hal_rcc.c ****   * @note     If SYSCLK source is HSE, function returns values based on HSE_VALUE(**)
 981:Drivers/STM32F7xx_HAL_Driver/Src/stm32f7xx_hal_rcc.c ****   * @note     If SYSCLK source is PLL, function returns values based on HSE_VALUE(**)
 982:Drivers/STM32F7xx_HAL_Driver/Src/stm32f7xx_hal_rcc.c ****   *           or HSI_VALUE(*) multiplied/divided by the PLL factors.
 983:Drivers/STM32F7xx_HAL_Driver/Src/stm32f7xx_hal_rcc.c ****   * @note     (*) HSI_VALUE is a constant defined in stm32f7xx_hal_conf.h file (default value
 984:Drivers/STM32F7xx_HAL_Driver/Src/stm32f7xx_hal_rcc.c ****   *               16 MHz) but the real value may vary depending on the variations
 985:Drivers/STM32F7xx_HAL_Driver/Src/stm32f7xx_hal_rcc.c ****   *               in voltage and temperature.
 986:Drivers/STM32F7xx_HAL_Driver/Src/stm32f7xx_hal_rcc.c ****   * @note     (**) HSE_VALUE is a constant defined in stm32f7xx_hal_conf.h file (default value
 987:Drivers/STM32F7xx_HAL_Driver/Src/stm32f7xx_hal_rcc.c ****   *                25 MHz), user has to ensure that HSE_VALUE is same as the real
 988:Drivers/STM32F7xx_HAL_Driver/Src/stm32f7xx_hal_rcc.c ****   *                frequency of the crystal used. Otherwise, this function may
 989:Drivers/STM32F7xx_HAL_Driver/Src/stm32f7xx_hal_rcc.c ****   *                have wrong result.
 990:Drivers/STM32F7xx_HAL_Driver/Src/stm32f7xx_hal_rcc.c ****   *
 991:Drivers/STM32F7xx_HAL_Driver/Src/stm32f7xx_hal_rcc.c ****   * @note   The result of this function could be not correct when using fractional
 992:Drivers/STM32F7xx_HAL_Driver/Src/stm32f7xx_hal_rcc.c ****   *         value for HSE crystal.
 993:Drivers/STM32F7xx_HAL_Driver/Src/stm32f7xx_hal_rcc.c ****   *
 994:Drivers/STM32F7xx_HAL_Driver/Src/stm32f7xx_hal_rcc.c ****   * @note   This function can be used by the user application to compute the
 995:Drivers/STM32F7xx_HAL_Driver/Src/stm32f7xx_hal_rcc.c ****   *         baudrate for the communication peripherals or configure other parameters.
 996:Drivers/STM32F7xx_HAL_Driver/Src/stm32f7xx_hal_rcc.c ****   *
 997:Drivers/STM32F7xx_HAL_Driver/Src/stm32f7xx_hal_rcc.c ****   * @note   Each time SYSCLK changes, this function must be called to update the
 998:Drivers/STM32F7xx_HAL_Driver/Src/stm32f7xx_hal_rcc.c ****   *         right SYSCLK value. Otherwise, any configuration based on this function will be incorre
 999:Drivers/STM32F7xx_HAL_Driver/Src/stm32f7xx_hal_rcc.c ****   *
1000:Drivers/STM32F7xx_HAL_Driver/Src/stm32f7xx_hal_rcc.c ****   *
1001:Drivers/STM32F7xx_HAL_Driver/Src/stm32f7xx_hal_rcc.c ****   * @retval SYSCLK frequency
1002:Drivers/STM32F7xx_HAL_Driver/Src/stm32f7xx_hal_rcc.c ****   */
1003:Drivers/STM32F7xx_HAL_Driver/Src/stm32f7xx_hal_rcc.c **** uint32_t HAL_RCC_GetSysClockFreq(void)
1004:Drivers/STM32F7xx_HAL_Driver/Src/stm32f7xx_hal_rcc.c **** {
 1200              		.loc 1 1004 0
 1201              		.cfi_startproc
 1202              		@ args = 0, pretend = 0, frame = 0
 1203              		@ frame_needed = 0, uses_anonymous_args = 0
 1204 0000 F8B5     		push	{r3, r4, r5, r6, r7, lr}
 1205              	.LCFI11:
 1206              		.cfi_def_cfa_offset 24
 1207              		.cfi_offset 3, -24
 1208              		.cfi_offset 4, -20
 1209              		.cfi_offset 5, -16
 1210              		.cfi_offset 6, -12
 1211              		.cfi_offset 7, -8
 1212              		.cfi_offset 14, -4
 1213              	.LVL99:
1005:Drivers/STM32F7xx_HAL_Driver/Src/stm32f7xx_hal_rcc.c ****   uint32_t pllm = 0, pllvco = 0, pllp = 0;
1006:Drivers/STM32F7xx_HAL_Driver/Src/stm32f7xx_hal_rcc.c ****   uint32_t sysclockfreq = 0;
1007:Drivers/STM32F7xx_HAL_Driver/Src/stm32f7xx_hal_rcc.c **** 
1008:Drivers/STM32F7xx_HAL_Driver/Src/stm32f7xx_hal_rcc.c ****   /* Get SYSCLK source -------------------------------------------------------*/
1009:Drivers/STM32F7xx_HAL_Driver/Src/stm32f7xx_hal_rcc.c ****   switch (RCC->CFGR & RCC_CFGR_SWS)
 1214              		.loc 1 1009 0
 1215 0002 314B     		ldr	r3, .L154
 1216 0004 9B68     		ldr	r3, [r3, #8]
 1217 0006 03F00C03 		and	r3, r3, #12
 1218 000a 042B     		cmp	r3, #4
 1219 000c 59D0     		beq	.L152
 1220 000e 082B     		cmp	r3, #8
 1221 0010 01D0     		beq	.L149
1010:Drivers/STM32F7xx_HAL_Driver/Src/stm32f7xx_hal_rcc.c ****   {
1011:Drivers/STM32F7xx_HAL_Driver/Src/stm32f7xx_hal_rcc.c ****     case RCC_SYSCLKSOURCE_STATUS_HSI:  /* HSI used as system clock source */
1012:Drivers/STM32F7xx_HAL_Driver/Src/stm32f7xx_hal_rcc.c ****     {
1013:Drivers/STM32F7xx_HAL_Driver/Src/stm32f7xx_hal_rcc.c ****       sysclockfreq = HSI_VALUE;
 1222              		.loc 1 1013 0
ARM GAS  /tmp/cc4OTmQk.s 			page 42


 1223 0012 2E48     		ldr	r0, .L154+4
 1224 0014 F8BD     		pop	{r3, r4, r5, r6, r7, pc}
 1225              	.L149:
1014:Drivers/STM32F7xx_HAL_Driver/Src/stm32f7xx_hal_rcc.c ****       break;
1015:Drivers/STM32F7xx_HAL_Driver/Src/stm32f7xx_hal_rcc.c ****     }
1016:Drivers/STM32F7xx_HAL_Driver/Src/stm32f7xx_hal_rcc.c ****     case RCC_SYSCLKSOURCE_STATUS_HSE:  /* HSE used as system clock  source */
1017:Drivers/STM32F7xx_HAL_Driver/Src/stm32f7xx_hal_rcc.c ****     {
1018:Drivers/STM32F7xx_HAL_Driver/Src/stm32f7xx_hal_rcc.c ****       sysclockfreq = HSE_VALUE;
1019:Drivers/STM32F7xx_HAL_Driver/Src/stm32f7xx_hal_rcc.c ****       break;
1020:Drivers/STM32F7xx_HAL_Driver/Src/stm32f7xx_hal_rcc.c ****     }
1021:Drivers/STM32F7xx_HAL_Driver/Src/stm32f7xx_hal_rcc.c ****     case RCC_SYSCLKSOURCE_STATUS_PLLCLK:  /* PLL used as system clock  source */
1022:Drivers/STM32F7xx_HAL_Driver/Src/stm32f7xx_hal_rcc.c ****     {
1023:Drivers/STM32F7xx_HAL_Driver/Src/stm32f7xx_hal_rcc.c ****       /* PLL_VCO = (HSE_VALUE or HSI_VALUE / PLLM) * PLLN
1024:Drivers/STM32F7xx_HAL_Driver/Src/stm32f7xx_hal_rcc.c ****       SYSCLK = PLL_VCO / PLLP */
1025:Drivers/STM32F7xx_HAL_Driver/Src/stm32f7xx_hal_rcc.c ****       pllm = RCC->PLLCFGR & RCC_PLLCFGR_PLLM;
 1226              		.loc 1 1025 0
 1227 0016 2C4B     		ldr	r3, .L154
 1228 0018 5A68     		ldr	r2, [r3, #4]
 1229 001a 02F03F02 		and	r2, r2, #63
 1230              	.LVL100:
1026:Drivers/STM32F7xx_HAL_Driver/Src/stm32f7xx_hal_rcc.c ****       if (__HAL_RCC_GET_PLL_OSCSOURCE() != RCC_PLLCFGR_PLLSRC_HSI)
 1231              		.loc 1 1026 0
 1232 001e 5B68     		ldr	r3, [r3, #4]
 1233 0020 13F4800F 		tst	r3, #4194304
 1234 0024 2AD0     		beq	.L150
1027:Drivers/STM32F7xx_HAL_Driver/Src/stm32f7xx_hal_rcc.c ****       {
1028:Drivers/STM32F7xx_HAL_Driver/Src/stm32f7xx_hal_rcc.c ****         /* HSE used as PLL clock source */
1029:Drivers/STM32F7xx_HAL_Driver/Src/stm32f7xx_hal_rcc.c ****         pllvco = (uint32_t)((((uint64_t) HSE_VALUE * ((uint64_t)((RCC->PLLCFGR & RCC_PLLCFGR_PLLN) 
 1235              		.loc 1 1029 0
 1236 0026 284B     		ldr	r3, .L154
 1237 0028 5B68     		ldr	r3, [r3, #4]
 1238 002a C3F38813 		ubfx	r3, r3, #6, #9
 1239 002e 1E46     		mov	r6, r3
 1240 0030 0027     		movs	r7, #0
 1241 0032 5C01     		lsls	r4, r3, #5
 1242 0034 0025     		movs	r5, #0
 1243 0036 E41A     		subs	r4, r4, r3
 1244 0038 65EB0705 		sbc	r5, r5, r7
 1245 003c A901     		lsls	r1, r5, #6
 1246 003e 41EA9461 		orr	r1, r1, r4, lsr #26
 1247 0042 A001     		lsls	r0, r4, #6
 1248 0044 001B     		subs	r0, r0, r4
 1249 0046 61EB0501 		sbc	r1, r1, r5
 1250 004a CB00     		lsls	r3, r1, #3
 1251 004c 43EA5073 		orr	r3, r3, r0, lsr #29
 1252 0050 C400     		lsls	r4, r0, #3
 1253 0052 A019     		adds	r0, r4, r6
 1254 0054 43EB0701 		adc	r1, r3, r7
 1255 0058 4B02     		lsls	r3, r1, #9
 1256 005a 43EAD053 		orr	r3, r3, r0, lsr #23
 1257 005e 4402     		lsls	r4, r0, #9
 1258 0060 2046     		mov	r0, r4
 1259 0062 1946     		mov	r1, r3
 1260 0064 0023     		movs	r3, #0
 1261 0066 FFF7FEFF 		bl	__aeabi_uldivmod
 1262              	.LVL101:
 1263              	.L151:
ARM GAS  /tmp/cc4OTmQk.s 			page 43


1030:Drivers/STM32F7xx_HAL_Driver/Src/stm32f7xx_hal_rcc.c ****       }
1031:Drivers/STM32F7xx_HAL_Driver/Src/stm32f7xx_hal_rcc.c ****       else
1032:Drivers/STM32F7xx_HAL_Driver/Src/stm32f7xx_hal_rcc.c ****       {
1033:Drivers/STM32F7xx_HAL_Driver/Src/stm32f7xx_hal_rcc.c ****         /* HSI used as PLL clock source */
1034:Drivers/STM32F7xx_HAL_Driver/Src/stm32f7xx_hal_rcc.c ****         pllvco = (uint32_t)((((uint64_t) HSI_VALUE * ((uint64_t)((RCC->PLLCFGR & RCC_PLLCFGR_PLLN) 
1035:Drivers/STM32F7xx_HAL_Driver/Src/stm32f7xx_hal_rcc.c ****       }
1036:Drivers/STM32F7xx_HAL_Driver/Src/stm32f7xx_hal_rcc.c ****       pllp = ((((RCC->PLLCFGR & RCC_PLLCFGR_PLLP) >> RCC_PLLCFGR_PLLP_Pos) + 1) * 2);
 1264              		.loc 1 1036 0
 1265 006a 174B     		ldr	r3, .L154
 1266 006c 5B68     		ldr	r3, [r3, #4]
 1267 006e C3F30143 		ubfx	r3, r3, #16, #2
 1268 0072 0133     		adds	r3, r3, #1
 1269 0074 5B00     		lsls	r3, r3, #1
 1270              	.LVL102:
1037:Drivers/STM32F7xx_HAL_Driver/Src/stm32f7xx_hal_rcc.c **** 
1038:Drivers/STM32F7xx_HAL_Driver/Src/stm32f7xx_hal_rcc.c ****       sysclockfreq = pllvco / pllp;
 1271              		.loc 1 1038 0
 1272 0076 B0FBF3F0 		udiv	r0, r0, r3
 1273              	.LVL103:
1039:Drivers/STM32F7xx_HAL_Driver/Src/stm32f7xx_hal_rcc.c ****       break;
 1274              		.loc 1 1039 0
 1275 007a F8BD     		pop	{r3, r4, r5, r6, r7, pc}
 1276              	.LVL104:
 1277              	.L150:
1034:Drivers/STM32F7xx_HAL_Driver/Src/stm32f7xx_hal_rcc.c ****       }
 1278              		.loc 1 1034 0
 1279 007c 124B     		ldr	r3, .L154
 1280 007e 5B68     		ldr	r3, [r3, #4]
 1281 0080 C3F38813 		ubfx	r3, r3, #6, #9
 1282 0084 1E46     		mov	r6, r3
 1283 0086 0027     		movs	r7, #0
 1284 0088 5C01     		lsls	r4, r3, #5
 1285 008a 0025     		movs	r5, #0
 1286 008c E41A     		subs	r4, r4, r3
 1287 008e 65EB0705 		sbc	r5, r5, r7
 1288 0092 A901     		lsls	r1, r5, #6
 1289 0094 41EA9461 		orr	r1, r1, r4, lsr #26
 1290 0098 A001     		lsls	r0, r4, #6
 1291 009a 001B     		subs	r0, r0, r4
 1292 009c 61EB0501 		sbc	r1, r1, r5
 1293 00a0 CB00     		lsls	r3, r1, #3
 1294 00a2 43EA5073 		orr	r3, r3, r0, lsr #29
 1295 00a6 C400     		lsls	r4, r0, #3
 1296 00a8 A019     		adds	r0, r4, r6
 1297 00aa 43EB0701 		adc	r1, r3, r7
 1298 00ae 8B02     		lsls	r3, r1, #10
 1299 00b0 43EA9053 		orr	r3, r3, r0, lsr #22
 1300 00b4 8402     		lsls	r4, r0, #10
 1301 00b6 2046     		mov	r0, r4
 1302 00b8 1946     		mov	r1, r3
 1303 00ba 0023     		movs	r3, #0
 1304 00bc FFF7FEFF 		bl	__aeabi_uldivmod
 1305              	.LVL105:
 1306 00c0 D3E7     		b	.L151
 1307              	.LVL106:
 1308              	.L152:
1018:Drivers/STM32F7xx_HAL_Driver/Src/stm32f7xx_hal_rcc.c ****       break;
ARM GAS  /tmp/cc4OTmQk.s 			page 44


 1309              		.loc 1 1018 0
 1310 00c2 0348     		ldr	r0, .L154+8
 1311              	.LVL107:
1040:Drivers/STM32F7xx_HAL_Driver/Src/stm32f7xx_hal_rcc.c ****     }
1041:Drivers/STM32F7xx_HAL_Driver/Src/stm32f7xx_hal_rcc.c ****     default:
1042:Drivers/STM32F7xx_HAL_Driver/Src/stm32f7xx_hal_rcc.c ****     {
1043:Drivers/STM32F7xx_HAL_Driver/Src/stm32f7xx_hal_rcc.c ****       sysclockfreq = HSI_VALUE;
1044:Drivers/STM32F7xx_HAL_Driver/Src/stm32f7xx_hal_rcc.c ****       break;
1045:Drivers/STM32F7xx_HAL_Driver/Src/stm32f7xx_hal_rcc.c ****     }
1046:Drivers/STM32F7xx_HAL_Driver/Src/stm32f7xx_hal_rcc.c ****   }
1047:Drivers/STM32F7xx_HAL_Driver/Src/stm32f7xx_hal_rcc.c ****   return sysclockfreq;
1048:Drivers/STM32F7xx_HAL_Driver/Src/stm32f7xx_hal_rcc.c **** }
 1312              		.loc 1 1048 0
 1313 00c4 F8BD     		pop	{r3, r4, r5, r6, r7, pc}
 1314              	.L155:
 1315 00c6 00BF     		.align	2
 1316              	.L154:
 1317 00c8 00380240 		.word	1073887232
 1318 00cc 0024F400 		.word	16000000
 1319 00d0 00127A00 		.word	8000000
 1320              		.cfi_endproc
 1321              	.LFE147:
 1323              		.section	.text.HAL_RCC_ClockConfig,"ax",%progbits
 1324              		.align	1
 1325              		.global	HAL_RCC_ClockConfig
 1326              		.syntax unified
 1327              		.thumb
 1328              		.thumb_func
 1329              		.fpu fpv5-d16
 1331              	HAL_RCC_ClockConfig:
 1332              	.LFB143:
 725:Drivers/STM32F7xx_HAL_Driver/Src/stm32f7xx_hal_rcc.c ****   uint32_t tickstart = 0;
 1333              		.loc 1 725 0
 1334              		.cfi_startproc
 1335              		@ args = 0, pretend = 0, frame = 0
 1336              		@ frame_needed = 0, uses_anonymous_args = 0
 1337              	.LVL108:
 729:Drivers/STM32F7xx_HAL_Driver/Src/stm32f7xx_hal_rcc.c ****   {
 1338              		.loc 1 729 0
 1339 0000 0028     		cmp	r0, #0
 1340 0002 00F0A380 		beq	.L171
 725:Drivers/STM32F7xx_HAL_Driver/Src/stm32f7xx_hal_rcc.c ****   uint32_t tickstart = 0;
 1341              		.loc 1 725 0
 1342 0006 70B5     		push	{r4, r5, r6, lr}
 1343              	.LCFI12:
 1344              		.cfi_def_cfa_offset 16
 1345              		.cfi_offset 4, -16
 1346              		.cfi_offset 5, -12
 1347              		.cfi_offset 6, -8
 1348              		.cfi_offset 14, -4
 1349 0008 0446     		mov	r4, r0
 743:Drivers/STM32F7xx_HAL_Driver/Src/stm32f7xx_hal_rcc.c ****   {
 1350              		.loc 1 743 0
 1351 000a 524B     		ldr	r3, .L184
 1352 000c 1B68     		ldr	r3, [r3]
 1353 000e 03F00F03 		and	r3, r3, #15
 1354 0012 8B42     		cmp	r3, r1
ARM GAS  /tmp/cc4OTmQk.s 			page 45


 1355 0014 0CD2     		bcs	.L158
 746:Drivers/STM32F7xx_HAL_Driver/Src/stm32f7xx_hal_rcc.c **** 
 1356              		.loc 1 746 0
 1357 0016 4F4A     		ldr	r2, .L184
 1358 0018 1368     		ldr	r3, [r2]
 1359 001a 23F00F03 		bic	r3, r3, #15
 1360 001e 0B43     		orrs	r3, r3, r1
 1361 0020 1360     		str	r3, [r2]
 750:Drivers/STM32F7xx_HAL_Driver/Src/stm32f7xx_hal_rcc.c ****     {
 1362              		.loc 1 750 0
 1363 0022 1368     		ldr	r3, [r2]
 1364 0024 03F00F03 		and	r3, r3, #15
 1365 0028 9942     		cmp	r1, r3
 1366 002a 01D0     		beq	.L158
 752:Drivers/STM32F7xx_HAL_Driver/Src/stm32f7xx_hal_rcc.c ****     }
 1367              		.loc 1 752 0
 1368 002c 0120     		movs	r0, #1
 1369              	.LVL109:
 1370 002e 70BD     		pop	{r4, r5, r6, pc}
 1371              	.LVL110:
 1372              	.L158:
 757:Drivers/STM32F7xx_HAL_Driver/Src/stm32f7xx_hal_rcc.c ****   {
 1373              		.loc 1 757 0
 1374 0030 2368     		ldr	r3, [r4]
 1375 0032 13F0020F 		tst	r3, #2
 1376 0036 17D0     		beq	.L159
 761:Drivers/STM32F7xx_HAL_Driver/Src/stm32f7xx_hal_rcc.c ****     {
 1377              		.loc 1 761 0
 1378 0038 13F0040F 		tst	r3, #4
 1379 003c 04D0     		beq	.L160
 763:Drivers/STM32F7xx_HAL_Driver/Src/stm32f7xx_hal_rcc.c ****     }
 1380              		.loc 1 763 0
 1381 003e 464A     		ldr	r2, .L184+4
 1382 0040 9368     		ldr	r3, [r2, #8]
 1383 0042 43F4E053 		orr	r3, r3, #7168
 1384 0046 9360     		str	r3, [r2, #8]
 1385              	.L160:
 766:Drivers/STM32F7xx_HAL_Driver/Src/stm32f7xx_hal_rcc.c ****     {
 1386              		.loc 1 766 0
 1387 0048 2368     		ldr	r3, [r4]
 1388 004a 13F0080F 		tst	r3, #8
 1389 004e 04D0     		beq	.L161
 768:Drivers/STM32F7xx_HAL_Driver/Src/stm32f7xx_hal_rcc.c ****     }
 1390              		.loc 1 768 0
 1391 0050 414A     		ldr	r2, .L184+4
 1392 0052 9368     		ldr	r3, [r2, #8]
 1393 0054 43F46043 		orr	r3, r3, #57344
 1394 0058 9360     		str	r3, [r2, #8]
 1395              	.L161:
 773:Drivers/STM32F7xx_HAL_Driver/Src/stm32f7xx_hal_rcc.c ****   }
 1396              		.loc 1 773 0
 1397 005a 3F4A     		ldr	r2, .L184+4
 1398 005c 9368     		ldr	r3, [r2, #8]
 1399 005e 23F0F003 		bic	r3, r3, #240
 1400 0062 A068     		ldr	r0, [r4, #8]
 1401              	.LVL111:
 1402 0064 0343     		orrs	r3, r3, r0
ARM GAS  /tmp/cc4OTmQk.s 			page 46


 1403 0066 9360     		str	r3, [r2, #8]
 1404              	.L159:
 1405 0068 0D46     		mov	r5, r1
 777:Drivers/STM32F7xx_HAL_Driver/Src/stm32f7xx_hal_rcc.c ****   {
 1406              		.loc 1 777 0
 1407 006a 2368     		ldr	r3, [r4]
 1408 006c 13F0010F 		tst	r3, #1
 1409 0070 31D0     		beq	.L162
 782:Drivers/STM32F7xx_HAL_Driver/Src/stm32f7xx_hal_rcc.c ****     {
 1410              		.loc 1 782 0
 1411 0072 6368     		ldr	r3, [r4, #4]
 1412 0074 012B     		cmp	r3, #1
 1413 0076 20D0     		beq	.L182
 791:Drivers/STM32F7xx_HAL_Driver/Src/stm32f7xx_hal_rcc.c ****     {
 1414              		.loc 1 791 0
 1415 0078 022B     		cmp	r3, #2
 1416 007a 25D0     		beq	.L183
 803:Drivers/STM32F7xx_HAL_Driver/Src/stm32f7xx_hal_rcc.c ****       {
 1417              		.loc 1 803 0
 1418 007c 364A     		ldr	r2, .L184+4
 1419 007e 1268     		ldr	r2, [r2]
 1420 0080 12F0020F 		tst	r2, #2
 1421 0084 64D0     		beq	.L175
 1422              	.L164:
 809:Drivers/STM32F7xx_HAL_Driver/Src/stm32f7xx_hal_rcc.c **** 
 1423              		.loc 1 809 0
 1424 0086 3449     		ldr	r1, .L184+4
 1425              	.LVL112:
 1426 0088 8A68     		ldr	r2, [r1, #8]
 1427 008a 22F00302 		bic	r2, r2, #3
 1428 008e 1343     		orrs	r3, r3, r2
 1429 0090 8B60     		str	r3, [r1, #8]
 812:Drivers/STM32F7xx_HAL_Driver/Src/stm32f7xx_hal_rcc.c **** 
 1430              		.loc 1 812 0
 1431 0092 FFF7FEFF 		bl	HAL_GetTick
 1432              	.LVL113:
 1433 0096 0646     		mov	r6, r0
 1434              	.LVL114:
 1435              	.L166:
 814:Drivers/STM32F7xx_HAL_Driver/Src/stm32f7xx_hal_rcc.c ****     {
 1436              		.loc 1 814 0
 1437 0098 2F4B     		ldr	r3, .L184+4
 1438 009a 9B68     		ldr	r3, [r3, #8]
 1439 009c 03F00C03 		and	r3, r3, #12
 1440 00a0 6268     		ldr	r2, [r4, #4]
 1441 00a2 B3EB820F 		cmp	r3, r2, lsl #2
 1442 00a6 16D0     		beq	.L162
 816:Drivers/STM32F7xx_HAL_Driver/Src/stm32f7xx_hal_rcc.c ****       {
 1443              		.loc 1 816 0
 1444 00a8 FFF7FEFF 		bl	HAL_GetTick
 1445              	.LVL115:
 1446 00ac 801B     		subs	r0, r0, r6
 1447 00ae 41F28833 		movw	r3, #5000
 1448 00b2 9842     		cmp	r0, r3
 1449 00b4 F0D9     		bls	.L166
 818:Drivers/STM32F7xx_HAL_Driver/Src/stm32f7xx_hal_rcc.c ****       }
 1450              		.loc 1 818 0
ARM GAS  /tmp/cc4OTmQk.s 			page 47


 1451 00b6 0320     		movs	r0, #3
 1452 00b8 70BD     		pop	{r4, r5, r6, pc}
 1453              	.LVL116:
 1454              	.L182:
 785:Drivers/STM32F7xx_HAL_Driver/Src/stm32f7xx_hal_rcc.c ****       {
 1455              		.loc 1 785 0
 1456 00ba 274A     		ldr	r2, .L184+4
 1457 00bc 1268     		ldr	r2, [r2]
 1458 00be 12F4003F 		tst	r2, #131072
 1459 00c2 E0D1     		bne	.L164
 787:Drivers/STM32F7xx_HAL_Driver/Src/stm32f7xx_hal_rcc.c ****       }
 1460              		.loc 1 787 0
 1461 00c4 0120     		movs	r0, #1
 1462 00c6 70BD     		pop	{r4, r5, r6, pc}
 1463              	.LVL117:
 1464              	.L183:
 794:Drivers/STM32F7xx_HAL_Driver/Src/stm32f7xx_hal_rcc.c ****       {
 1465              		.loc 1 794 0
 1466 00c8 234A     		ldr	r2, .L184+4
 1467 00ca 1268     		ldr	r2, [r2]
 1468 00cc 12F0007F 		tst	r2, #33554432
 1469 00d0 D9D1     		bne	.L164
 796:Drivers/STM32F7xx_HAL_Driver/Src/stm32f7xx_hal_rcc.c ****       }
 1470              		.loc 1 796 0
 1471 00d2 0120     		movs	r0, #1
 1472 00d4 70BD     		pop	{r4, r5, r6, pc}
 1473              	.LVL118:
 1474              	.L162:
 824:Drivers/STM32F7xx_HAL_Driver/Src/stm32f7xx_hal_rcc.c ****   {
 1475              		.loc 1 824 0
 1476 00d6 1F4B     		ldr	r3, .L184
 1477 00d8 1B68     		ldr	r3, [r3]
 1478 00da 03F00F03 		and	r3, r3, #15
 1479 00de 9D42     		cmp	r5, r3
 1480 00e0 0CD2     		bcs	.L168
 827:Drivers/STM32F7xx_HAL_Driver/Src/stm32f7xx_hal_rcc.c **** 
 1481              		.loc 1 827 0
 1482 00e2 1C4A     		ldr	r2, .L184
 1483 00e4 1368     		ldr	r3, [r2]
 1484 00e6 23F00F03 		bic	r3, r3, #15
 1485 00ea 2B43     		orrs	r3, r3, r5
 1486 00ec 1360     		str	r3, [r2]
 831:Drivers/STM32F7xx_HAL_Driver/Src/stm32f7xx_hal_rcc.c ****     {
 1487              		.loc 1 831 0
 1488 00ee 1368     		ldr	r3, [r2]
 1489 00f0 03F00F03 		and	r3, r3, #15
 1490 00f4 9D42     		cmp	r5, r3
 1491 00f6 01D0     		beq	.L168
 833:Drivers/STM32F7xx_HAL_Driver/Src/stm32f7xx_hal_rcc.c ****     }
 1492              		.loc 1 833 0
 1493 00f8 0120     		movs	r0, #1
 858:Drivers/STM32F7xx_HAL_Driver/Src/stm32f7xx_hal_rcc.c **** 
 1494              		.loc 1 858 0
 1495 00fa 70BD     		pop	{r4, r5, r6, pc}
 1496              	.LVL119:
 1497              	.L168:
 838:Drivers/STM32F7xx_HAL_Driver/Src/stm32f7xx_hal_rcc.c ****   {
ARM GAS  /tmp/cc4OTmQk.s 			page 48


 1498              		.loc 1 838 0
 1499 00fc 2368     		ldr	r3, [r4]
 1500 00fe 13F0040F 		tst	r3, #4
 1501 0102 06D0     		beq	.L169
 841:Drivers/STM32F7xx_HAL_Driver/Src/stm32f7xx_hal_rcc.c ****   }
 1502              		.loc 1 841 0
 1503 0104 144A     		ldr	r2, .L184+4
 1504 0106 9368     		ldr	r3, [r2, #8]
 1505 0108 23F4E053 		bic	r3, r3, #7168
 1506 010c E168     		ldr	r1, [r4, #12]
 1507 010e 0B43     		orrs	r3, r3, r1
 1508 0110 9360     		str	r3, [r2, #8]
 1509              	.L169:
 845:Drivers/STM32F7xx_HAL_Driver/Src/stm32f7xx_hal_rcc.c ****   {
 1510              		.loc 1 845 0
 1511 0112 2368     		ldr	r3, [r4]
 1512 0114 13F0080F 		tst	r3, #8
 1513 0118 07D0     		beq	.L170
 848:Drivers/STM32F7xx_HAL_Driver/Src/stm32f7xx_hal_rcc.c ****   }
 1514              		.loc 1 848 0
 1515 011a 0F4A     		ldr	r2, .L184+4
 1516 011c 9368     		ldr	r3, [r2, #8]
 1517 011e 23F46043 		bic	r3, r3, #57344
 1518 0122 2169     		ldr	r1, [r4, #16]
 1519 0124 43EAC103 		orr	r3, r3, r1, lsl #3
 1520 0128 9360     		str	r3, [r2, #8]
 1521              	.L170:
 852:Drivers/STM32F7xx_HAL_Driver/Src/stm32f7xx_hal_rcc.c **** 
 1522              		.loc 1 852 0
 1523 012a FFF7FEFF 		bl	HAL_RCC_GetSysClockFreq
 1524              	.LVL120:
 1525 012e 0A4B     		ldr	r3, .L184+4
 1526 0130 9B68     		ldr	r3, [r3, #8]
 1527 0132 C3F30313 		ubfx	r3, r3, #4, #4
 1528 0136 094A     		ldr	r2, .L184+8
 1529 0138 D35C     		ldrb	r3, [r2, r3]	@ zero_extendqisi2
 1530 013a D840     		lsrs	r0, r0, r3
 1531 013c 084B     		ldr	r3, .L184+12
 1532 013e 1860     		str	r0, [r3]
 855:Drivers/STM32F7xx_HAL_Driver/Src/stm32f7xx_hal_rcc.c **** 
 1533              		.loc 1 855 0
 1534 0140 084B     		ldr	r3, .L184+16
 1535 0142 1868     		ldr	r0, [r3]
 1536 0144 FFF7FEFF 		bl	HAL_InitTick
 1537              	.LVL121:
 857:Drivers/STM32F7xx_HAL_Driver/Src/stm32f7xx_hal_rcc.c **** }
 1538              		.loc 1 857 0
 1539 0148 0020     		movs	r0, #0
 1540 014a 70BD     		pop	{r4, r5, r6, pc}
 1541              	.LVL122:
 1542              	.L171:
 1543              	.LCFI13:
 1544              		.cfi_def_cfa_offset 0
 1545              		.cfi_restore 4
 1546              		.cfi_restore 5
 1547              		.cfi_restore 6
 1548              		.cfi_restore 14
ARM GAS  /tmp/cc4OTmQk.s 			page 49


 731:Drivers/STM32F7xx_HAL_Driver/Src/stm32f7xx_hal_rcc.c ****   }
 1549              		.loc 1 731 0
 1550 014c 0120     		movs	r0, #1
 1551              	.LVL123:
 1552 014e 7047     		bx	lr
 1553              	.LVL124:
 1554              	.L175:
 1555              	.LCFI14:
 1556              		.cfi_def_cfa_offset 16
 1557              		.cfi_offset 4, -16
 1558              		.cfi_offset 5, -12
 1559              		.cfi_offset 6, -8
 1560              		.cfi_offset 14, -4
 805:Drivers/STM32F7xx_HAL_Driver/Src/stm32f7xx_hal_rcc.c ****       }
 1561              		.loc 1 805 0
 1562 0150 0120     		movs	r0, #1
 1563 0152 70BD     		pop	{r4, r5, r6, pc}
 1564              	.LVL125:
 1565              	.L185:
 1566              		.align	2
 1567              	.L184:
 1568 0154 003C0240 		.word	1073888256
 1569 0158 00380240 		.word	1073887232
 1570 015c 00000000 		.word	AHBPrescTable
 1571 0160 00000000 		.word	SystemCoreClock
 1572 0164 00000000 		.word	uwTickPrio
 1573              		.cfi_endproc
 1574              	.LFE143:
 1576              		.section	.text.HAL_RCC_GetHCLKFreq,"ax",%progbits
 1577              		.align	1
 1578              		.global	HAL_RCC_GetHCLKFreq
 1579              		.syntax unified
 1580              		.thumb
 1581              		.thumb_func
 1582              		.fpu fpv5-d16
 1584              	HAL_RCC_GetHCLKFreq:
 1585              	.LFB148:
1049:Drivers/STM32F7xx_HAL_Driver/Src/stm32f7xx_hal_rcc.c **** 
1050:Drivers/STM32F7xx_HAL_Driver/Src/stm32f7xx_hal_rcc.c **** /**
1051:Drivers/STM32F7xx_HAL_Driver/Src/stm32f7xx_hal_rcc.c ****   * @brief  Returns the HCLK frequency
1052:Drivers/STM32F7xx_HAL_Driver/Src/stm32f7xx_hal_rcc.c ****   * @note   Each time HCLK changes, this function must be called to update the
1053:Drivers/STM32F7xx_HAL_Driver/Src/stm32f7xx_hal_rcc.c ****   *         right HCLK value. Otherwise, any configuration based on this function will be incorrect
1054:Drivers/STM32F7xx_HAL_Driver/Src/stm32f7xx_hal_rcc.c ****   * @note   The SystemCoreClock CMSIS variable is used to store System Clock Frequency.
1055:Drivers/STM32F7xx_HAL_Driver/Src/stm32f7xx_hal_rcc.c ****   * @retval HCLK frequency
1056:Drivers/STM32F7xx_HAL_Driver/Src/stm32f7xx_hal_rcc.c ****   */
1057:Drivers/STM32F7xx_HAL_Driver/Src/stm32f7xx_hal_rcc.c **** uint32_t HAL_RCC_GetHCLKFreq(void)
1058:Drivers/STM32F7xx_HAL_Driver/Src/stm32f7xx_hal_rcc.c **** {
 1586              		.loc 1 1058 0
 1587              		.cfi_startproc
 1588              		@ args = 0, pretend = 0, frame = 0
 1589              		@ frame_needed = 0, uses_anonymous_args = 0
 1590              		@ link register save eliminated.
1059:Drivers/STM32F7xx_HAL_Driver/Src/stm32f7xx_hal_rcc.c ****   return SystemCoreClock;
1060:Drivers/STM32F7xx_HAL_Driver/Src/stm32f7xx_hal_rcc.c **** }
 1591              		.loc 1 1060 0
 1592 0000 014B     		ldr	r3, .L187
 1593 0002 1868     		ldr	r0, [r3]
ARM GAS  /tmp/cc4OTmQk.s 			page 50


 1594 0004 7047     		bx	lr
 1595              	.L188:
 1596 0006 00BF     		.align	2
 1597              	.L187:
 1598 0008 00000000 		.word	SystemCoreClock
 1599              		.cfi_endproc
 1600              	.LFE148:
 1602              		.section	.text.HAL_RCC_GetPCLK1Freq,"ax",%progbits
 1603              		.align	1
 1604              		.global	HAL_RCC_GetPCLK1Freq
 1605              		.syntax unified
 1606              		.thumb
 1607              		.thumb_func
 1608              		.fpu fpv5-d16
 1610              	HAL_RCC_GetPCLK1Freq:
 1611              	.LFB149:
1061:Drivers/STM32F7xx_HAL_Driver/Src/stm32f7xx_hal_rcc.c **** 
1062:Drivers/STM32F7xx_HAL_Driver/Src/stm32f7xx_hal_rcc.c **** /**
1063:Drivers/STM32F7xx_HAL_Driver/Src/stm32f7xx_hal_rcc.c ****   * @brief  Returns the PCLK1 frequency
1064:Drivers/STM32F7xx_HAL_Driver/Src/stm32f7xx_hal_rcc.c ****   * @note   Each time PCLK1 changes, this function must be called to update the
1065:Drivers/STM32F7xx_HAL_Driver/Src/stm32f7xx_hal_rcc.c ****   *         right PCLK1 value. Otherwise, any configuration based on this function will be incorrec
1066:Drivers/STM32F7xx_HAL_Driver/Src/stm32f7xx_hal_rcc.c ****   * @retval PCLK1 frequency
1067:Drivers/STM32F7xx_HAL_Driver/Src/stm32f7xx_hal_rcc.c ****   */
1068:Drivers/STM32F7xx_HAL_Driver/Src/stm32f7xx_hal_rcc.c **** uint32_t HAL_RCC_GetPCLK1Freq(void)
1069:Drivers/STM32F7xx_HAL_Driver/Src/stm32f7xx_hal_rcc.c **** {
 1612              		.loc 1 1069 0
 1613              		.cfi_startproc
 1614              		@ args = 0, pretend = 0, frame = 0
 1615              		@ frame_needed = 0, uses_anonymous_args = 0
 1616 0000 08B5     		push	{r3, lr}
 1617              	.LCFI15:
 1618              		.cfi_def_cfa_offset 8
 1619              		.cfi_offset 3, -8
 1620              		.cfi_offset 14, -4
1070:Drivers/STM32F7xx_HAL_Driver/Src/stm32f7xx_hal_rcc.c ****   /* Get HCLK source and Compute PCLK1 frequency ---------------------------*/
1071:Drivers/STM32F7xx_HAL_Driver/Src/stm32f7xx_hal_rcc.c ****   return (HAL_RCC_GetHCLKFreq() >> APBPrescTable[(RCC->CFGR & RCC_CFGR_PPRE1) >> RCC_CFGR_PPRE1_Pos
 1621              		.loc 1 1071 0
 1622 0002 FFF7FEFF 		bl	HAL_RCC_GetHCLKFreq
 1623              	.LVL126:
 1624 0006 044B     		ldr	r3, .L191
 1625 0008 9B68     		ldr	r3, [r3, #8]
 1626 000a C3F38223 		ubfx	r3, r3, #10, #3
 1627 000e 034A     		ldr	r2, .L191+4
 1628 0010 D35C     		ldrb	r3, [r2, r3]	@ zero_extendqisi2
1072:Drivers/STM32F7xx_HAL_Driver/Src/stm32f7xx_hal_rcc.c **** }
 1629              		.loc 1 1072 0
 1630 0012 D840     		lsrs	r0, r0, r3
 1631 0014 08BD     		pop	{r3, pc}
 1632              	.L192:
 1633 0016 00BF     		.align	2
 1634              	.L191:
 1635 0018 00380240 		.word	1073887232
 1636 001c 00000000 		.word	APBPrescTable
 1637              		.cfi_endproc
 1638              	.LFE149:
 1640              		.section	.text.HAL_RCC_GetPCLK2Freq,"ax",%progbits
 1641              		.align	1
ARM GAS  /tmp/cc4OTmQk.s 			page 51


 1642              		.global	HAL_RCC_GetPCLK2Freq
 1643              		.syntax unified
 1644              		.thumb
 1645              		.thumb_func
 1646              		.fpu fpv5-d16
 1648              	HAL_RCC_GetPCLK2Freq:
 1649              	.LFB150:
1073:Drivers/STM32F7xx_HAL_Driver/Src/stm32f7xx_hal_rcc.c **** 
1074:Drivers/STM32F7xx_HAL_Driver/Src/stm32f7xx_hal_rcc.c **** /**
1075:Drivers/STM32F7xx_HAL_Driver/Src/stm32f7xx_hal_rcc.c ****   * @brief  Returns the PCLK2 frequency
1076:Drivers/STM32F7xx_HAL_Driver/Src/stm32f7xx_hal_rcc.c ****   * @note   Each time PCLK2 changes, this function must be called to update the
1077:Drivers/STM32F7xx_HAL_Driver/Src/stm32f7xx_hal_rcc.c ****   *         right PCLK2 value. Otherwise, any configuration based on this function will be incorrec
1078:Drivers/STM32F7xx_HAL_Driver/Src/stm32f7xx_hal_rcc.c ****   * @retval PCLK2 frequency
1079:Drivers/STM32F7xx_HAL_Driver/Src/stm32f7xx_hal_rcc.c ****   */
1080:Drivers/STM32F7xx_HAL_Driver/Src/stm32f7xx_hal_rcc.c **** uint32_t HAL_RCC_GetPCLK2Freq(void)
1081:Drivers/STM32F7xx_HAL_Driver/Src/stm32f7xx_hal_rcc.c **** {
 1650              		.loc 1 1081 0
 1651              		.cfi_startproc
 1652              		@ args = 0, pretend = 0, frame = 0
 1653              		@ frame_needed = 0, uses_anonymous_args = 0
 1654 0000 08B5     		push	{r3, lr}
 1655              	.LCFI16:
 1656              		.cfi_def_cfa_offset 8
 1657              		.cfi_offset 3, -8
 1658              		.cfi_offset 14, -4
1082:Drivers/STM32F7xx_HAL_Driver/Src/stm32f7xx_hal_rcc.c ****   /* Get HCLK source and Compute PCLK2 frequency ---------------------------*/
1083:Drivers/STM32F7xx_HAL_Driver/Src/stm32f7xx_hal_rcc.c ****   return (HAL_RCC_GetHCLKFreq() >> APBPrescTable[(RCC->CFGR & RCC_CFGR_PPRE2) >> RCC_CFGR_PPRE2_Pos
 1659              		.loc 1 1083 0
 1660 0002 FFF7FEFF 		bl	HAL_RCC_GetHCLKFreq
 1661              	.LVL127:
 1662 0006 044B     		ldr	r3, .L195
 1663 0008 9B68     		ldr	r3, [r3, #8]
 1664 000a C3F34233 		ubfx	r3, r3, #13, #3
 1665 000e 034A     		ldr	r2, .L195+4
 1666 0010 D35C     		ldrb	r3, [r2, r3]	@ zero_extendqisi2
1084:Drivers/STM32F7xx_HAL_Driver/Src/stm32f7xx_hal_rcc.c **** }
 1667              		.loc 1 1084 0
 1668 0012 D840     		lsrs	r0, r0, r3
 1669 0014 08BD     		pop	{r3, pc}
 1670              	.L196:
 1671 0016 00BF     		.align	2
 1672              	.L195:
 1673 0018 00380240 		.word	1073887232
 1674 001c 00000000 		.word	APBPrescTable
 1675              		.cfi_endproc
 1676              	.LFE150:
 1678              		.section	.text.HAL_RCC_GetOscConfig,"ax",%progbits
 1679              		.align	1
 1680              		.global	HAL_RCC_GetOscConfig
 1681              		.syntax unified
 1682              		.thumb
 1683              		.thumb_func
 1684              		.fpu fpv5-d16
 1686              	HAL_RCC_GetOscConfig:
 1687              	.LFB151:
1085:Drivers/STM32F7xx_HAL_Driver/Src/stm32f7xx_hal_rcc.c **** 
1086:Drivers/STM32F7xx_HAL_Driver/Src/stm32f7xx_hal_rcc.c **** /**
ARM GAS  /tmp/cc4OTmQk.s 			page 52


1087:Drivers/STM32F7xx_HAL_Driver/Src/stm32f7xx_hal_rcc.c ****   * @brief  Configures the RCC_OscInitStruct according to the internal
1088:Drivers/STM32F7xx_HAL_Driver/Src/stm32f7xx_hal_rcc.c ****   * RCC configuration registers.
1089:Drivers/STM32F7xx_HAL_Driver/Src/stm32f7xx_hal_rcc.c ****   * @param  RCC_OscInitStruct pointer to an RCC_OscInitTypeDef structure that
1090:Drivers/STM32F7xx_HAL_Driver/Src/stm32f7xx_hal_rcc.c ****   * will be configured.
1091:Drivers/STM32F7xx_HAL_Driver/Src/stm32f7xx_hal_rcc.c ****   * @retval None
1092:Drivers/STM32F7xx_HAL_Driver/Src/stm32f7xx_hal_rcc.c ****   */
1093:Drivers/STM32F7xx_HAL_Driver/Src/stm32f7xx_hal_rcc.c **** void HAL_RCC_GetOscConfig(RCC_OscInitTypeDef  *RCC_OscInitStruct)
1094:Drivers/STM32F7xx_HAL_Driver/Src/stm32f7xx_hal_rcc.c **** {
 1688              		.loc 1 1094 0
 1689              		.cfi_startproc
 1690              		@ args = 0, pretend = 0, frame = 0
 1691              		@ frame_needed = 0, uses_anonymous_args = 0
 1692              		@ link register save eliminated.
 1693              	.LVL128:
1095:Drivers/STM32F7xx_HAL_Driver/Src/stm32f7xx_hal_rcc.c ****   /* Set all possible values for the Oscillator type parameter ---------------*/
1096:Drivers/STM32F7xx_HAL_Driver/Src/stm32f7xx_hal_rcc.c ****   RCC_OscInitStruct->OscillatorType = RCC_OSCILLATORTYPE_HSE | RCC_OSCILLATORTYPE_HSI | RCC_OSCILLA
 1694              		.loc 1 1096 0
 1695 0000 0F23     		movs	r3, #15
 1696 0002 0360     		str	r3, [r0]
1097:Drivers/STM32F7xx_HAL_Driver/Src/stm32f7xx_hal_rcc.c **** 
1098:Drivers/STM32F7xx_HAL_Driver/Src/stm32f7xx_hal_rcc.c ****   /* Get the HSE configuration -----------------------------------------------*/
1099:Drivers/STM32F7xx_HAL_Driver/Src/stm32f7xx_hal_rcc.c ****   if ((RCC->CR & RCC_CR_HSEBYP) == RCC_CR_HSEBYP)
 1697              		.loc 1 1099 0
 1698 0004 364B     		ldr	r3, .L211
 1699 0006 1B68     		ldr	r3, [r3]
 1700 0008 13F4802F 		tst	r3, #262144
 1701 000c 47D0     		beq	.L198
1100:Drivers/STM32F7xx_HAL_Driver/Src/stm32f7xx_hal_rcc.c ****   {
1101:Drivers/STM32F7xx_HAL_Driver/Src/stm32f7xx_hal_rcc.c ****     RCC_OscInitStruct->HSEState = RCC_HSE_BYPASS;
 1702              		.loc 1 1101 0
 1703 000e 4FF4A023 		mov	r3, #327680
 1704 0012 4360     		str	r3, [r0, #4]
 1705              	.L199:
1102:Drivers/STM32F7xx_HAL_Driver/Src/stm32f7xx_hal_rcc.c ****   }
1103:Drivers/STM32F7xx_HAL_Driver/Src/stm32f7xx_hal_rcc.c ****   else if ((RCC->CR & RCC_CR_HSEON) == RCC_CR_HSEON)
1104:Drivers/STM32F7xx_HAL_Driver/Src/stm32f7xx_hal_rcc.c ****   {
1105:Drivers/STM32F7xx_HAL_Driver/Src/stm32f7xx_hal_rcc.c ****     RCC_OscInitStruct->HSEState = RCC_HSE_ON;
1106:Drivers/STM32F7xx_HAL_Driver/Src/stm32f7xx_hal_rcc.c ****   }
1107:Drivers/STM32F7xx_HAL_Driver/Src/stm32f7xx_hal_rcc.c ****   else
1108:Drivers/STM32F7xx_HAL_Driver/Src/stm32f7xx_hal_rcc.c ****   {
1109:Drivers/STM32F7xx_HAL_Driver/Src/stm32f7xx_hal_rcc.c ****     RCC_OscInitStruct->HSEState = RCC_HSE_OFF;
1110:Drivers/STM32F7xx_HAL_Driver/Src/stm32f7xx_hal_rcc.c ****   }
1111:Drivers/STM32F7xx_HAL_Driver/Src/stm32f7xx_hal_rcc.c **** 
1112:Drivers/STM32F7xx_HAL_Driver/Src/stm32f7xx_hal_rcc.c ****   /* Get the HSI configuration -----------------------------------------------*/
1113:Drivers/STM32F7xx_HAL_Driver/Src/stm32f7xx_hal_rcc.c ****   if ((RCC->CR & RCC_CR_HSION) == RCC_CR_HSION)
 1706              		.loc 1 1113 0
 1707 0014 324B     		ldr	r3, .L211
 1708 0016 1B68     		ldr	r3, [r3]
 1709 0018 13F0010F 		tst	r3, #1
 1710 001c 4BD0     		beq	.L201
1114:Drivers/STM32F7xx_HAL_Driver/Src/stm32f7xx_hal_rcc.c ****   {
1115:Drivers/STM32F7xx_HAL_Driver/Src/stm32f7xx_hal_rcc.c ****     RCC_OscInitStruct->HSIState = RCC_HSI_ON;
 1711              		.loc 1 1115 0
 1712 001e 0123     		movs	r3, #1
 1713 0020 C360     		str	r3, [r0, #12]
 1714              	.L202:
1116:Drivers/STM32F7xx_HAL_Driver/Src/stm32f7xx_hal_rcc.c ****   }
ARM GAS  /tmp/cc4OTmQk.s 			page 53


1117:Drivers/STM32F7xx_HAL_Driver/Src/stm32f7xx_hal_rcc.c ****   else
1118:Drivers/STM32F7xx_HAL_Driver/Src/stm32f7xx_hal_rcc.c ****   {
1119:Drivers/STM32F7xx_HAL_Driver/Src/stm32f7xx_hal_rcc.c ****     RCC_OscInitStruct->HSIState = RCC_HSI_OFF;
1120:Drivers/STM32F7xx_HAL_Driver/Src/stm32f7xx_hal_rcc.c ****   }
1121:Drivers/STM32F7xx_HAL_Driver/Src/stm32f7xx_hal_rcc.c **** 
1122:Drivers/STM32F7xx_HAL_Driver/Src/stm32f7xx_hal_rcc.c ****   RCC_OscInitStruct->HSICalibrationValue = (uint32_t)((RCC->CR & RCC_CR_HSITRIM) >> RCC_CR_HSITRIM_
 1715              		.loc 1 1122 0
 1716 0022 2F4A     		ldr	r2, .L211
 1717 0024 1368     		ldr	r3, [r2]
 1718 0026 C3F3C403 		ubfx	r3, r3, #3, #5
 1719 002a 0361     		str	r3, [r0, #16]
1123:Drivers/STM32F7xx_HAL_Driver/Src/stm32f7xx_hal_rcc.c **** 
1124:Drivers/STM32F7xx_HAL_Driver/Src/stm32f7xx_hal_rcc.c ****   /* Get the LSE configuration -----------------------------------------------*/
1125:Drivers/STM32F7xx_HAL_Driver/Src/stm32f7xx_hal_rcc.c ****   if ((RCC->BDCR & RCC_BDCR_LSEBYP) == RCC_BDCR_LSEBYP)
 1720              		.loc 1 1125 0
 1721 002c 136F     		ldr	r3, [r2, #112]
 1722 002e 13F0040F 		tst	r3, #4
 1723 0032 43D0     		beq	.L203
1126:Drivers/STM32F7xx_HAL_Driver/Src/stm32f7xx_hal_rcc.c ****   {
1127:Drivers/STM32F7xx_HAL_Driver/Src/stm32f7xx_hal_rcc.c ****     RCC_OscInitStruct->LSEState = RCC_LSE_BYPASS;
 1724              		.loc 1 1127 0
 1725 0034 0523     		movs	r3, #5
 1726 0036 8360     		str	r3, [r0, #8]
 1727              	.L204:
1128:Drivers/STM32F7xx_HAL_Driver/Src/stm32f7xx_hal_rcc.c ****   }
1129:Drivers/STM32F7xx_HAL_Driver/Src/stm32f7xx_hal_rcc.c ****   else if ((RCC->BDCR & RCC_BDCR_LSEON) == RCC_BDCR_LSEON)
1130:Drivers/STM32F7xx_HAL_Driver/Src/stm32f7xx_hal_rcc.c ****   {
1131:Drivers/STM32F7xx_HAL_Driver/Src/stm32f7xx_hal_rcc.c ****     RCC_OscInitStruct->LSEState = RCC_LSE_ON;
1132:Drivers/STM32F7xx_HAL_Driver/Src/stm32f7xx_hal_rcc.c ****   }
1133:Drivers/STM32F7xx_HAL_Driver/Src/stm32f7xx_hal_rcc.c ****   else
1134:Drivers/STM32F7xx_HAL_Driver/Src/stm32f7xx_hal_rcc.c ****   {
1135:Drivers/STM32F7xx_HAL_Driver/Src/stm32f7xx_hal_rcc.c ****     RCC_OscInitStruct->LSEState = RCC_LSE_OFF;
1136:Drivers/STM32F7xx_HAL_Driver/Src/stm32f7xx_hal_rcc.c ****   }
1137:Drivers/STM32F7xx_HAL_Driver/Src/stm32f7xx_hal_rcc.c **** 
1138:Drivers/STM32F7xx_HAL_Driver/Src/stm32f7xx_hal_rcc.c ****   /* Get the LSI configuration -----------------------------------------------*/
1139:Drivers/STM32F7xx_HAL_Driver/Src/stm32f7xx_hal_rcc.c ****   if ((RCC->CSR & RCC_CSR_LSION) == RCC_CSR_LSION)
 1728              		.loc 1 1139 0
 1729 0038 294B     		ldr	r3, .L211
 1730 003a 5B6F     		ldr	r3, [r3, #116]
 1731 003c 13F0010F 		tst	r3, #1
 1732 0040 47D0     		beq	.L206
1140:Drivers/STM32F7xx_HAL_Driver/Src/stm32f7xx_hal_rcc.c ****   {
1141:Drivers/STM32F7xx_HAL_Driver/Src/stm32f7xx_hal_rcc.c ****     RCC_OscInitStruct->LSIState = RCC_LSI_ON;
 1733              		.loc 1 1141 0
 1734 0042 0123     		movs	r3, #1
 1735 0044 4361     		str	r3, [r0, #20]
 1736              	.L207:
1142:Drivers/STM32F7xx_HAL_Driver/Src/stm32f7xx_hal_rcc.c ****   }
1143:Drivers/STM32F7xx_HAL_Driver/Src/stm32f7xx_hal_rcc.c ****   else
1144:Drivers/STM32F7xx_HAL_Driver/Src/stm32f7xx_hal_rcc.c ****   {
1145:Drivers/STM32F7xx_HAL_Driver/Src/stm32f7xx_hal_rcc.c ****     RCC_OscInitStruct->LSIState = RCC_LSI_OFF;
1146:Drivers/STM32F7xx_HAL_Driver/Src/stm32f7xx_hal_rcc.c ****   }
1147:Drivers/STM32F7xx_HAL_Driver/Src/stm32f7xx_hal_rcc.c **** 
1148:Drivers/STM32F7xx_HAL_Driver/Src/stm32f7xx_hal_rcc.c ****   /* Get the PLL configuration -----------------------------------------------*/
1149:Drivers/STM32F7xx_HAL_Driver/Src/stm32f7xx_hal_rcc.c ****   if ((RCC->CR & RCC_CR_PLLON) == RCC_CR_PLLON)
 1737              		.loc 1 1149 0
 1738 0046 264B     		ldr	r3, .L211
ARM GAS  /tmp/cc4OTmQk.s 			page 54


 1739 0048 1B68     		ldr	r3, [r3]
 1740 004a 13F0807F 		tst	r3, #16777216
 1741 004e 43D1     		bne	.L210
1150:Drivers/STM32F7xx_HAL_Driver/Src/stm32f7xx_hal_rcc.c ****   {
1151:Drivers/STM32F7xx_HAL_Driver/Src/stm32f7xx_hal_rcc.c ****     RCC_OscInitStruct->PLL.PLLState = RCC_PLL_ON;
1152:Drivers/STM32F7xx_HAL_Driver/Src/stm32f7xx_hal_rcc.c ****   }
1153:Drivers/STM32F7xx_HAL_Driver/Src/stm32f7xx_hal_rcc.c ****   else
1154:Drivers/STM32F7xx_HAL_Driver/Src/stm32f7xx_hal_rcc.c ****   {
1155:Drivers/STM32F7xx_HAL_Driver/Src/stm32f7xx_hal_rcc.c ****     RCC_OscInitStruct->PLL.PLLState = RCC_PLL_OFF;
 1742              		.loc 1 1155 0
 1743 0050 0123     		movs	r3, #1
 1744 0052 8361     		str	r3, [r0, #24]
 1745              	.L209:
1156:Drivers/STM32F7xx_HAL_Driver/Src/stm32f7xx_hal_rcc.c ****   }
1157:Drivers/STM32F7xx_HAL_Driver/Src/stm32f7xx_hal_rcc.c ****   RCC_OscInitStruct->PLL.PLLSource = (uint32_t)(RCC->PLLCFGR & RCC_PLLCFGR_PLLSRC);
 1746              		.loc 1 1157 0
 1747 0054 224A     		ldr	r2, .L211
 1748 0056 5368     		ldr	r3, [r2, #4]
 1749 0058 03F48003 		and	r3, r3, #4194304
 1750 005c C361     		str	r3, [r0, #28]
1158:Drivers/STM32F7xx_HAL_Driver/Src/stm32f7xx_hal_rcc.c ****   RCC_OscInitStruct->PLL.PLLM = (uint32_t)(RCC->PLLCFGR & RCC_PLLCFGR_PLLM);
 1751              		.loc 1 1158 0
 1752 005e 5368     		ldr	r3, [r2, #4]
 1753 0060 03F03F03 		and	r3, r3, #63
 1754 0064 0362     		str	r3, [r0, #32]
1159:Drivers/STM32F7xx_HAL_Driver/Src/stm32f7xx_hal_rcc.c ****   RCC_OscInitStruct->PLL.PLLN = (uint32_t)((RCC->PLLCFGR & RCC_PLLCFGR_PLLN) >> RCC_PLLCFGR_PLLN_Po
 1755              		.loc 1 1159 0
 1756 0066 5368     		ldr	r3, [r2, #4]
 1757 0068 C3F38813 		ubfx	r3, r3, #6, #9
 1758 006c 4362     		str	r3, [r0, #36]
1160:Drivers/STM32F7xx_HAL_Driver/Src/stm32f7xx_hal_rcc.c ****   RCC_OscInitStruct->PLL.PLLP = (uint32_t)((((RCC->PLLCFGR & RCC_PLLCFGR_PLLP) + RCC_PLLCFGR_PLLP_0
 1759              		.loc 1 1160 0
 1760 006e 5368     		ldr	r3, [r2, #4]
 1761 0070 03F44033 		and	r3, r3, #196608
 1762 0074 03F58033 		add	r3, r3, #65536
 1763 0078 5B00     		lsls	r3, r3, #1
 1764 007a 1B0C     		lsrs	r3, r3, #16
 1765 007c 8362     		str	r3, [r0, #40]
1161:Drivers/STM32F7xx_HAL_Driver/Src/stm32f7xx_hal_rcc.c ****   RCC_OscInitStruct->PLL.PLLQ = (uint32_t)((RCC->PLLCFGR & RCC_PLLCFGR_PLLQ) >> RCC_PLLCFGR_PLLQ_Po
 1766              		.loc 1 1161 0
 1767 007e 5368     		ldr	r3, [r2, #4]
 1768 0080 C3F30363 		ubfx	r3, r3, #24, #4
 1769 0084 C362     		str	r3, [r0, #44]
1162:Drivers/STM32F7xx_HAL_Driver/Src/stm32f7xx_hal_rcc.c **** #if defined (RCC_PLLCFGR_PLLR)
1163:Drivers/STM32F7xx_HAL_Driver/Src/stm32f7xx_hal_rcc.c ****   RCC_OscInitStruct->PLL.PLLR = (uint32_t)((RCC->PLLCFGR & RCC_PLLCFGR_PLLR) >> POSITION_VAL(RCC_PL
 1770              		.loc 1 1163 0
 1771 0086 5368     		ldr	r3, [r2, #4]
 1772 0088 03F0E043 		and	r3, r3, #1879048192
 1773              	.LVL129:
 1774              	.LBB7:
 1775              	.LBB8:
 1776              		.file 2 "Drivers/CMSIS/Include/cmsis_gcc.h"
   1:Drivers/CMSIS/Include/cmsis_gcc.h **** /**************************************************************************//**
   2:Drivers/CMSIS/Include/cmsis_gcc.h ****  * @file     cmsis_gcc.h
   3:Drivers/CMSIS/Include/cmsis_gcc.h ****  * @brief    CMSIS compiler GCC header file
   4:Drivers/CMSIS/Include/cmsis_gcc.h ****  * @version  V5.0.4
   5:Drivers/CMSIS/Include/cmsis_gcc.h ****  * @date     09. April 2018
ARM GAS  /tmp/cc4OTmQk.s 			page 55


   6:Drivers/CMSIS/Include/cmsis_gcc.h ****  ******************************************************************************/
   7:Drivers/CMSIS/Include/cmsis_gcc.h **** /*
   8:Drivers/CMSIS/Include/cmsis_gcc.h ****  * Copyright (c) 2009-2018 Arm Limited. All rights reserved.
   9:Drivers/CMSIS/Include/cmsis_gcc.h ****  *
  10:Drivers/CMSIS/Include/cmsis_gcc.h ****  * SPDX-License-Identifier: Apache-2.0
  11:Drivers/CMSIS/Include/cmsis_gcc.h ****  *
  12:Drivers/CMSIS/Include/cmsis_gcc.h ****  * Licensed under the Apache License, Version 2.0 (the License); you may
  13:Drivers/CMSIS/Include/cmsis_gcc.h ****  * not use this file except in compliance with the License.
  14:Drivers/CMSIS/Include/cmsis_gcc.h ****  * You may obtain a copy of the License at
  15:Drivers/CMSIS/Include/cmsis_gcc.h ****  *
  16:Drivers/CMSIS/Include/cmsis_gcc.h ****  * www.apache.org/licenses/LICENSE-2.0
  17:Drivers/CMSIS/Include/cmsis_gcc.h ****  *
  18:Drivers/CMSIS/Include/cmsis_gcc.h ****  * Unless required by applicable law or agreed to in writing, software
  19:Drivers/CMSIS/Include/cmsis_gcc.h ****  * distributed under the License is distributed on an AS IS BASIS, WITHOUT
  20:Drivers/CMSIS/Include/cmsis_gcc.h ****  * WARRANTIES OR CONDITIONS OF ANY KIND, either express or implied.
  21:Drivers/CMSIS/Include/cmsis_gcc.h ****  * See the License for the specific language governing permissions and
  22:Drivers/CMSIS/Include/cmsis_gcc.h ****  * limitations under the License.
  23:Drivers/CMSIS/Include/cmsis_gcc.h ****  */
  24:Drivers/CMSIS/Include/cmsis_gcc.h **** 
  25:Drivers/CMSIS/Include/cmsis_gcc.h **** #ifndef __CMSIS_GCC_H
  26:Drivers/CMSIS/Include/cmsis_gcc.h **** #define __CMSIS_GCC_H
  27:Drivers/CMSIS/Include/cmsis_gcc.h **** 
  28:Drivers/CMSIS/Include/cmsis_gcc.h **** /* ignore some GCC warnings */
  29:Drivers/CMSIS/Include/cmsis_gcc.h **** #pragma GCC diagnostic push
  30:Drivers/CMSIS/Include/cmsis_gcc.h **** #pragma GCC diagnostic ignored "-Wsign-conversion"
  31:Drivers/CMSIS/Include/cmsis_gcc.h **** #pragma GCC diagnostic ignored "-Wconversion"
  32:Drivers/CMSIS/Include/cmsis_gcc.h **** #pragma GCC diagnostic ignored "-Wunused-parameter"
  33:Drivers/CMSIS/Include/cmsis_gcc.h **** 
  34:Drivers/CMSIS/Include/cmsis_gcc.h **** /* Fallback for __has_builtin */
  35:Drivers/CMSIS/Include/cmsis_gcc.h **** #ifndef __has_builtin
  36:Drivers/CMSIS/Include/cmsis_gcc.h ****   #define __has_builtin(x) (0)
  37:Drivers/CMSIS/Include/cmsis_gcc.h **** #endif
  38:Drivers/CMSIS/Include/cmsis_gcc.h **** 
  39:Drivers/CMSIS/Include/cmsis_gcc.h **** /* CMSIS compiler specific defines */
  40:Drivers/CMSIS/Include/cmsis_gcc.h **** #ifndef   __ASM
  41:Drivers/CMSIS/Include/cmsis_gcc.h ****   #define __ASM                                  __asm
  42:Drivers/CMSIS/Include/cmsis_gcc.h **** #endif
  43:Drivers/CMSIS/Include/cmsis_gcc.h **** #ifndef   __INLINE
  44:Drivers/CMSIS/Include/cmsis_gcc.h ****   #define __INLINE                               inline
  45:Drivers/CMSIS/Include/cmsis_gcc.h **** #endif
  46:Drivers/CMSIS/Include/cmsis_gcc.h **** #ifndef   __STATIC_INLINE
  47:Drivers/CMSIS/Include/cmsis_gcc.h ****   #define __STATIC_INLINE                        static inline
  48:Drivers/CMSIS/Include/cmsis_gcc.h **** #endif
  49:Drivers/CMSIS/Include/cmsis_gcc.h **** #ifndef   __STATIC_FORCEINLINE                 
  50:Drivers/CMSIS/Include/cmsis_gcc.h ****   #define __STATIC_FORCEINLINE                   __attribute__((always_inline)) static inline
  51:Drivers/CMSIS/Include/cmsis_gcc.h **** #endif                                           
  52:Drivers/CMSIS/Include/cmsis_gcc.h **** #ifndef   __NO_RETURN
  53:Drivers/CMSIS/Include/cmsis_gcc.h ****   #define __NO_RETURN                            __attribute__((__noreturn__))
  54:Drivers/CMSIS/Include/cmsis_gcc.h **** #endif
  55:Drivers/CMSIS/Include/cmsis_gcc.h **** #ifndef   __USED
  56:Drivers/CMSIS/Include/cmsis_gcc.h ****   #define __USED                                 __attribute__((used))
  57:Drivers/CMSIS/Include/cmsis_gcc.h **** #endif
  58:Drivers/CMSIS/Include/cmsis_gcc.h **** #ifndef   __WEAK
  59:Drivers/CMSIS/Include/cmsis_gcc.h ****   #define __WEAK                                 __attribute__((weak))
  60:Drivers/CMSIS/Include/cmsis_gcc.h **** #endif
  61:Drivers/CMSIS/Include/cmsis_gcc.h **** #ifndef   __PACKED
  62:Drivers/CMSIS/Include/cmsis_gcc.h ****   #define __PACKED                               __attribute__((packed, aligned(1)))
ARM GAS  /tmp/cc4OTmQk.s 			page 56


  63:Drivers/CMSIS/Include/cmsis_gcc.h **** #endif
  64:Drivers/CMSIS/Include/cmsis_gcc.h **** #ifndef   __PACKED_STRUCT
  65:Drivers/CMSIS/Include/cmsis_gcc.h ****   #define __PACKED_STRUCT                        struct __attribute__((packed, aligned(1)))
  66:Drivers/CMSIS/Include/cmsis_gcc.h **** #endif
  67:Drivers/CMSIS/Include/cmsis_gcc.h **** #ifndef   __PACKED_UNION
  68:Drivers/CMSIS/Include/cmsis_gcc.h ****   #define __PACKED_UNION                         union __attribute__((packed, aligned(1)))
  69:Drivers/CMSIS/Include/cmsis_gcc.h **** #endif
  70:Drivers/CMSIS/Include/cmsis_gcc.h **** #ifndef   __UNALIGNED_UINT32        /* deprecated */
  71:Drivers/CMSIS/Include/cmsis_gcc.h ****   #pragma GCC diagnostic push
  72:Drivers/CMSIS/Include/cmsis_gcc.h ****   #pragma GCC diagnostic ignored "-Wpacked"
  73:Drivers/CMSIS/Include/cmsis_gcc.h ****   #pragma GCC diagnostic ignored "-Wattributes"
  74:Drivers/CMSIS/Include/cmsis_gcc.h ****   struct __attribute__((packed)) T_UINT32 { uint32_t v; };
  75:Drivers/CMSIS/Include/cmsis_gcc.h ****   #pragma GCC diagnostic pop
  76:Drivers/CMSIS/Include/cmsis_gcc.h ****   #define __UNALIGNED_UINT32(x)                  (((struct T_UINT32 *)(x))->v)
  77:Drivers/CMSIS/Include/cmsis_gcc.h **** #endif
  78:Drivers/CMSIS/Include/cmsis_gcc.h **** #ifndef   __UNALIGNED_UINT16_WRITE
  79:Drivers/CMSIS/Include/cmsis_gcc.h ****   #pragma GCC diagnostic push
  80:Drivers/CMSIS/Include/cmsis_gcc.h ****   #pragma GCC diagnostic ignored "-Wpacked"
  81:Drivers/CMSIS/Include/cmsis_gcc.h ****   #pragma GCC diagnostic ignored "-Wattributes"
  82:Drivers/CMSIS/Include/cmsis_gcc.h ****   __PACKED_STRUCT T_UINT16_WRITE { uint16_t v; };
  83:Drivers/CMSIS/Include/cmsis_gcc.h ****   #pragma GCC diagnostic pop
  84:Drivers/CMSIS/Include/cmsis_gcc.h ****   #define __UNALIGNED_UINT16_WRITE(addr, val)    (void)((((struct T_UINT16_WRITE *)(void *)(addr))-
  85:Drivers/CMSIS/Include/cmsis_gcc.h **** #endif
  86:Drivers/CMSIS/Include/cmsis_gcc.h **** #ifndef   __UNALIGNED_UINT16_READ
  87:Drivers/CMSIS/Include/cmsis_gcc.h ****   #pragma GCC diagnostic push
  88:Drivers/CMSIS/Include/cmsis_gcc.h ****   #pragma GCC diagnostic ignored "-Wpacked"
  89:Drivers/CMSIS/Include/cmsis_gcc.h ****   #pragma GCC diagnostic ignored "-Wattributes"
  90:Drivers/CMSIS/Include/cmsis_gcc.h ****   __PACKED_STRUCT T_UINT16_READ { uint16_t v; };
  91:Drivers/CMSIS/Include/cmsis_gcc.h ****   #pragma GCC diagnostic pop
  92:Drivers/CMSIS/Include/cmsis_gcc.h ****   #define __UNALIGNED_UINT16_READ(addr)          (((const struct T_UINT16_READ *)(const void *)(add
  93:Drivers/CMSIS/Include/cmsis_gcc.h **** #endif
  94:Drivers/CMSIS/Include/cmsis_gcc.h **** #ifndef   __UNALIGNED_UINT32_WRITE
  95:Drivers/CMSIS/Include/cmsis_gcc.h ****   #pragma GCC diagnostic push
  96:Drivers/CMSIS/Include/cmsis_gcc.h ****   #pragma GCC diagnostic ignored "-Wpacked"
  97:Drivers/CMSIS/Include/cmsis_gcc.h ****   #pragma GCC diagnostic ignored "-Wattributes"
  98:Drivers/CMSIS/Include/cmsis_gcc.h ****   __PACKED_STRUCT T_UINT32_WRITE { uint32_t v; };
  99:Drivers/CMSIS/Include/cmsis_gcc.h ****   #pragma GCC diagnostic pop
 100:Drivers/CMSIS/Include/cmsis_gcc.h ****   #define __UNALIGNED_UINT32_WRITE(addr, val)    (void)((((struct T_UINT32_WRITE *)(void *)(addr))-
 101:Drivers/CMSIS/Include/cmsis_gcc.h **** #endif
 102:Drivers/CMSIS/Include/cmsis_gcc.h **** #ifndef   __UNALIGNED_UINT32_READ
 103:Drivers/CMSIS/Include/cmsis_gcc.h ****   #pragma GCC diagnostic push
 104:Drivers/CMSIS/Include/cmsis_gcc.h ****   #pragma GCC diagnostic ignored "-Wpacked"
 105:Drivers/CMSIS/Include/cmsis_gcc.h ****   #pragma GCC diagnostic ignored "-Wattributes"
 106:Drivers/CMSIS/Include/cmsis_gcc.h ****   __PACKED_STRUCT T_UINT32_READ { uint32_t v; };
 107:Drivers/CMSIS/Include/cmsis_gcc.h ****   #pragma GCC diagnostic pop
 108:Drivers/CMSIS/Include/cmsis_gcc.h ****   #define __UNALIGNED_UINT32_READ(addr)          (((const struct T_UINT32_READ *)(const void *)(add
 109:Drivers/CMSIS/Include/cmsis_gcc.h **** #endif
 110:Drivers/CMSIS/Include/cmsis_gcc.h **** #ifndef   __ALIGNED
 111:Drivers/CMSIS/Include/cmsis_gcc.h ****   #define __ALIGNED(x)                           __attribute__((aligned(x)))
 112:Drivers/CMSIS/Include/cmsis_gcc.h **** #endif
 113:Drivers/CMSIS/Include/cmsis_gcc.h **** #ifndef   __RESTRICT
 114:Drivers/CMSIS/Include/cmsis_gcc.h ****   #define __RESTRICT                             __restrict
 115:Drivers/CMSIS/Include/cmsis_gcc.h **** #endif
 116:Drivers/CMSIS/Include/cmsis_gcc.h **** 
 117:Drivers/CMSIS/Include/cmsis_gcc.h **** 
 118:Drivers/CMSIS/Include/cmsis_gcc.h **** /* ###########################  Core Function Access  ########################### */
 119:Drivers/CMSIS/Include/cmsis_gcc.h **** /** \ingroup  CMSIS_Core_FunctionInterface
ARM GAS  /tmp/cc4OTmQk.s 			page 57


 120:Drivers/CMSIS/Include/cmsis_gcc.h ****     \defgroup CMSIS_Core_RegAccFunctions CMSIS Core Register Access Functions
 121:Drivers/CMSIS/Include/cmsis_gcc.h ****   @{
 122:Drivers/CMSIS/Include/cmsis_gcc.h ****  */
 123:Drivers/CMSIS/Include/cmsis_gcc.h **** 
 124:Drivers/CMSIS/Include/cmsis_gcc.h **** /**
 125:Drivers/CMSIS/Include/cmsis_gcc.h ****   \brief   Enable IRQ Interrupts
 126:Drivers/CMSIS/Include/cmsis_gcc.h ****   \details Enables IRQ interrupts by clearing the I-bit in the CPSR.
 127:Drivers/CMSIS/Include/cmsis_gcc.h ****            Can only be executed in Privileged modes.
 128:Drivers/CMSIS/Include/cmsis_gcc.h ****  */
 129:Drivers/CMSIS/Include/cmsis_gcc.h **** __STATIC_FORCEINLINE void __enable_irq(void)
 130:Drivers/CMSIS/Include/cmsis_gcc.h **** {
 131:Drivers/CMSIS/Include/cmsis_gcc.h ****   __ASM volatile ("cpsie i" : : : "memory");
 132:Drivers/CMSIS/Include/cmsis_gcc.h **** }
 133:Drivers/CMSIS/Include/cmsis_gcc.h **** 
 134:Drivers/CMSIS/Include/cmsis_gcc.h **** 
 135:Drivers/CMSIS/Include/cmsis_gcc.h **** /**
 136:Drivers/CMSIS/Include/cmsis_gcc.h ****   \brief   Disable IRQ Interrupts
 137:Drivers/CMSIS/Include/cmsis_gcc.h ****   \details Disables IRQ interrupts by setting the I-bit in the CPSR.
 138:Drivers/CMSIS/Include/cmsis_gcc.h ****            Can only be executed in Privileged modes.
 139:Drivers/CMSIS/Include/cmsis_gcc.h ****  */
 140:Drivers/CMSIS/Include/cmsis_gcc.h **** __STATIC_FORCEINLINE void __disable_irq(void)
 141:Drivers/CMSIS/Include/cmsis_gcc.h **** {
 142:Drivers/CMSIS/Include/cmsis_gcc.h ****   __ASM volatile ("cpsid i" : : : "memory");
 143:Drivers/CMSIS/Include/cmsis_gcc.h **** }
 144:Drivers/CMSIS/Include/cmsis_gcc.h **** 
 145:Drivers/CMSIS/Include/cmsis_gcc.h **** 
 146:Drivers/CMSIS/Include/cmsis_gcc.h **** /**
 147:Drivers/CMSIS/Include/cmsis_gcc.h ****   \brief   Get Control Register
 148:Drivers/CMSIS/Include/cmsis_gcc.h ****   \details Returns the content of the Control Register.
 149:Drivers/CMSIS/Include/cmsis_gcc.h ****   \return               Control Register value
 150:Drivers/CMSIS/Include/cmsis_gcc.h ****  */
 151:Drivers/CMSIS/Include/cmsis_gcc.h **** __STATIC_FORCEINLINE uint32_t __get_CONTROL(void)
 152:Drivers/CMSIS/Include/cmsis_gcc.h **** {
 153:Drivers/CMSIS/Include/cmsis_gcc.h ****   uint32_t result;
 154:Drivers/CMSIS/Include/cmsis_gcc.h **** 
 155:Drivers/CMSIS/Include/cmsis_gcc.h ****   __ASM volatile ("MRS %0, control" : "=r" (result) );
 156:Drivers/CMSIS/Include/cmsis_gcc.h ****   return(result);
 157:Drivers/CMSIS/Include/cmsis_gcc.h **** }
 158:Drivers/CMSIS/Include/cmsis_gcc.h **** 
 159:Drivers/CMSIS/Include/cmsis_gcc.h **** 
 160:Drivers/CMSIS/Include/cmsis_gcc.h **** #if (defined (__ARM_FEATURE_CMSE ) && (__ARM_FEATURE_CMSE == 3))
 161:Drivers/CMSIS/Include/cmsis_gcc.h **** /**
 162:Drivers/CMSIS/Include/cmsis_gcc.h ****   \brief   Get Control Register (non-secure)
 163:Drivers/CMSIS/Include/cmsis_gcc.h ****   \details Returns the content of the non-secure Control Register when in secure mode.
 164:Drivers/CMSIS/Include/cmsis_gcc.h ****   \return               non-secure Control Register value
 165:Drivers/CMSIS/Include/cmsis_gcc.h ****  */
 166:Drivers/CMSIS/Include/cmsis_gcc.h **** __STATIC_FORCEINLINE uint32_t __TZ_get_CONTROL_NS(void)
 167:Drivers/CMSIS/Include/cmsis_gcc.h **** {
 168:Drivers/CMSIS/Include/cmsis_gcc.h ****   uint32_t result;
 169:Drivers/CMSIS/Include/cmsis_gcc.h **** 
 170:Drivers/CMSIS/Include/cmsis_gcc.h ****   __ASM volatile ("MRS %0, control_ns" : "=r" (result) );
 171:Drivers/CMSIS/Include/cmsis_gcc.h ****   return(result);
 172:Drivers/CMSIS/Include/cmsis_gcc.h **** }
 173:Drivers/CMSIS/Include/cmsis_gcc.h **** #endif
 174:Drivers/CMSIS/Include/cmsis_gcc.h **** 
 175:Drivers/CMSIS/Include/cmsis_gcc.h **** 
 176:Drivers/CMSIS/Include/cmsis_gcc.h **** /**
ARM GAS  /tmp/cc4OTmQk.s 			page 58


 177:Drivers/CMSIS/Include/cmsis_gcc.h ****   \brief   Set Control Register
 178:Drivers/CMSIS/Include/cmsis_gcc.h ****   \details Writes the given value to the Control Register.
 179:Drivers/CMSIS/Include/cmsis_gcc.h ****   \param [in]    control  Control Register value to set
 180:Drivers/CMSIS/Include/cmsis_gcc.h ****  */
 181:Drivers/CMSIS/Include/cmsis_gcc.h **** __STATIC_FORCEINLINE void __set_CONTROL(uint32_t control)
 182:Drivers/CMSIS/Include/cmsis_gcc.h **** {
 183:Drivers/CMSIS/Include/cmsis_gcc.h ****   __ASM volatile ("MSR control, %0" : : "r" (control) : "memory");
 184:Drivers/CMSIS/Include/cmsis_gcc.h **** }
 185:Drivers/CMSIS/Include/cmsis_gcc.h **** 
 186:Drivers/CMSIS/Include/cmsis_gcc.h **** 
 187:Drivers/CMSIS/Include/cmsis_gcc.h **** #if (defined (__ARM_FEATURE_CMSE ) && (__ARM_FEATURE_CMSE == 3))
 188:Drivers/CMSIS/Include/cmsis_gcc.h **** /**
 189:Drivers/CMSIS/Include/cmsis_gcc.h ****   \brief   Set Control Register (non-secure)
 190:Drivers/CMSIS/Include/cmsis_gcc.h ****   \details Writes the given value to the non-secure Control Register when in secure state.
 191:Drivers/CMSIS/Include/cmsis_gcc.h ****   \param [in]    control  Control Register value to set
 192:Drivers/CMSIS/Include/cmsis_gcc.h ****  */
 193:Drivers/CMSIS/Include/cmsis_gcc.h **** __STATIC_FORCEINLINE void __TZ_set_CONTROL_NS(uint32_t control)
 194:Drivers/CMSIS/Include/cmsis_gcc.h **** {
 195:Drivers/CMSIS/Include/cmsis_gcc.h ****   __ASM volatile ("MSR control_ns, %0" : : "r" (control) : "memory");
 196:Drivers/CMSIS/Include/cmsis_gcc.h **** }
 197:Drivers/CMSIS/Include/cmsis_gcc.h **** #endif
 198:Drivers/CMSIS/Include/cmsis_gcc.h **** 
 199:Drivers/CMSIS/Include/cmsis_gcc.h **** 
 200:Drivers/CMSIS/Include/cmsis_gcc.h **** /**
 201:Drivers/CMSIS/Include/cmsis_gcc.h ****   \brief   Get IPSR Register
 202:Drivers/CMSIS/Include/cmsis_gcc.h ****   \details Returns the content of the IPSR Register.
 203:Drivers/CMSIS/Include/cmsis_gcc.h ****   \return               IPSR Register value
 204:Drivers/CMSIS/Include/cmsis_gcc.h ****  */
 205:Drivers/CMSIS/Include/cmsis_gcc.h **** __STATIC_FORCEINLINE uint32_t __get_IPSR(void)
 206:Drivers/CMSIS/Include/cmsis_gcc.h **** {
 207:Drivers/CMSIS/Include/cmsis_gcc.h ****   uint32_t result;
 208:Drivers/CMSIS/Include/cmsis_gcc.h **** 
 209:Drivers/CMSIS/Include/cmsis_gcc.h ****   __ASM volatile ("MRS %0, ipsr" : "=r" (result) );
 210:Drivers/CMSIS/Include/cmsis_gcc.h ****   return(result);
 211:Drivers/CMSIS/Include/cmsis_gcc.h **** }
 212:Drivers/CMSIS/Include/cmsis_gcc.h **** 
 213:Drivers/CMSIS/Include/cmsis_gcc.h **** 
 214:Drivers/CMSIS/Include/cmsis_gcc.h **** /**
 215:Drivers/CMSIS/Include/cmsis_gcc.h ****   \brief   Get APSR Register
 216:Drivers/CMSIS/Include/cmsis_gcc.h ****   \details Returns the content of the APSR Register.
 217:Drivers/CMSIS/Include/cmsis_gcc.h ****   \return               APSR Register value
 218:Drivers/CMSIS/Include/cmsis_gcc.h ****  */
 219:Drivers/CMSIS/Include/cmsis_gcc.h **** __STATIC_FORCEINLINE uint32_t __get_APSR(void)
 220:Drivers/CMSIS/Include/cmsis_gcc.h **** {
 221:Drivers/CMSIS/Include/cmsis_gcc.h ****   uint32_t result;
 222:Drivers/CMSIS/Include/cmsis_gcc.h **** 
 223:Drivers/CMSIS/Include/cmsis_gcc.h ****   __ASM volatile ("MRS %0, apsr" : "=r" (result) );
 224:Drivers/CMSIS/Include/cmsis_gcc.h ****   return(result);
 225:Drivers/CMSIS/Include/cmsis_gcc.h **** }
 226:Drivers/CMSIS/Include/cmsis_gcc.h **** 
 227:Drivers/CMSIS/Include/cmsis_gcc.h **** 
 228:Drivers/CMSIS/Include/cmsis_gcc.h **** /**
 229:Drivers/CMSIS/Include/cmsis_gcc.h ****   \brief   Get xPSR Register
 230:Drivers/CMSIS/Include/cmsis_gcc.h ****   \details Returns the content of the xPSR Register.
 231:Drivers/CMSIS/Include/cmsis_gcc.h ****   \return               xPSR Register value
 232:Drivers/CMSIS/Include/cmsis_gcc.h ****  */
 233:Drivers/CMSIS/Include/cmsis_gcc.h **** __STATIC_FORCEINLINE uint32_t __get_xPSR(void)
ARM GAS  /tmp/cc4OTmQk.s 			page 59


 234:Drivers/CMSIS/Include/cmsis_gcc.h **** {
 235:Drivers/CMSIS/Include/cmsis_gcc.h ****   uint32_t result;
 236:Drivers/CMSIS/Include/cmsis_gcc.h **** 
 237:Drivers/CMSIS/Include/cmsis_gcc.h ****   __ASM volatile ("MRS %0, xpsr" : "=r" (result) );
 238:Drivers/CMSIS/Include/cmsis_gcc.h ****   return(result);
 239:Drivers/CMSIS/Include/cmsis_gcc.h **** }
 240:Drivers/CMSIS/Include/cmsis_gcc.h **** 
 241:Drivers/CMSIS/Include/cmsis_gcc.h **** 
 242:Drivers/CMSIS/Include/cmsis_gcc.h **** /**
 243:Drivers/CMSIS/Include/cmsis_gcc.h ****   \brief   Get Process Stack Pointer
 244:Drivers/CMSIS/Include/cmsis_gcc.h ****   \details Returns the current value of the Process Stack Pointer (PSP).
 245:Drivers/CMSIS/Include/cmsis_gcc.h ****   \return               PSP Register value
 246:Drivers/CMSIS/Include/cmsis_gcc.h ****  */
 247:Drivers/CMSIS/Include/cmsis_gcc.h **** __STATIC_FORCEINLINE uint32_t __get_PSP(void)
 248:Drivers/CMSIS/Include/cmsis_gcc.h **** {
 249:Drivers/CMSIS/Include/cmsis_gcc.h ****   uint32_t result;
 250:Drivers/CMSIS/Include/cmsis_gcc.h **** 
 251:Drivers/CMSIS/Include/cmsis_gcc.h ****   __ASM volatile ("MRS %0, psp"  : "=r" (result) );
 252:Drivers/CMSIS/Include/cmsis_gcc.h ****   return(result);
 253:Drivers/CMSIS/Include/cmsis_gcc.h **** }
 254:Drivers/CMSIS/Include/cmsis_gcc.h **** 
 255:Drivers/CMSIS/Include/cmsis_gcc.h **** 
 256:Drivers/CMSIS/Include/cmsis_gcc.h **** #if (defined (__ARM_FEATURE_CMSE ) && (__ARM_FEATURE_CMSE == 3))
 257:Drivers/CMSIS/Include/cmsis_gcc.h **** /**
 258:Drivers/CMSIS/Include/cmsis_gcc.h ****   \brief   Get Process Stack Pointer (non-secure)
 259:Drivers/CMSIS/Include/cmsis_gcc.h ****   \details Returns the current value of the non-secure Process Stack Pointer (PSP) when in secure s
 260:Drivers/CMSIS/Include/cmsis_gcc.h ****   \return               PSP Register value
 261:Drivers/CMSIS/Include/cmsis_gcc.h ****  */
 262:Drivers/CMSIS/Include/cmsis_gcc.h **** __STATIC_FORCEINLINE uint32_t __TZ_get_PSP_NS(void)
 263:Drivers/CMSIS/Include/cmsis_gcc.h **** {
 264:Drivers/CMSIS/Include/cmsis_gcc.h ****   uint32_t result;
 265:Drivers/CMSIS/Include/cmsis_gcc.h **** 
 266:Drivers/CMSIS/Include/cmsis_gcc.h ****   __ASM volatile ("MRS %0, psp_ns"  : "=r" (result) );
 267:Drivers/CMSIS/Include/cmsis_gcc.h ****   return(result);
 268:Drivers/CMSIS/Include/cmsis_gcc.h **** }
 269:Drivers/CMSIS/Include/cmsis_gcc.h **** #endif
 270:Drivers/CMSIS/Include/cmsis_gcc.h **** 
 271:Drivers/CMSIS/Include/cmsis_gcc.h **** 
 272:Drivers/CMSIS/Include/cmsis_gcc.h **** /**
 273:Drivers/CMSIS/Include/cmsis_gcc.h ****   \brief   Set Process Stack Pointer
 274:Drivers/CMSIS/Include/cmsis_gcc.h ****   \details Assigns the given value to the Process Stack Pointer (PSP).
 275:Drivers/CMSIS/Include/cmsis_gcc.h ****   \param [in]    topOfProcStack  Process Stack Pointer value to set
 276:Drivers/CMSIS/Include/cmsis_gcc.h ****  */
 277:Drivers/CMSIS/Include/cmsis_gcc.h **** __STATIC_FORCEINLINE void __set_PSP(uint32_t topOfProcStack)
 278:Drivers/CMSIS/Include/cmsis_gcc.h **** {
 279:Drivers/CMSIS/Include/cmsis_gcc.h ****   __ASM volatile ("MSR psp, %0" : : "r" (topOfProcStack) : );
 280:Drivers/CMSIS/Include/cmsis_gcc.h **** }
 281:Drivers/CMSIS/Include/cmsis_gcc.h **** 
 282:Drivers/CMSIS/Include/cmsis_gcc.h **** 
 283:Drivers/CMSIS/Include/cmsis_gcc.h **** #if (defined (__ARM_FEATURE_CMSE ) && (__ARM_FEATURE_CMSE == 3))
 284:Drivers/CMSIS/Include/cmsis_gcc.h **** /**
 285:Drivers/CMSIS/Include/cmsis_gcc.h ****   \brief   Set Process Stack Pointer (non-secure)
 286:Drivers/CMSIS/Include/cmsis_gcc.h ****   \details Assigns the given value to the non-secure Process Stack Pointer (PSP) when in secure sta
 287:Drivers/CMSIS/Include/cmsis_gcc.h ****   \param [in]    topOfProcStack  Process Stack Pointer value to set
 288:Drivers/CMSIS/Include/cmsis_gcc.h ****  */
 289:Drivers/CMSIS/Include/cmsis_gcc.h **** __STATIC_FORCEINLINE void __TZ_set_PSP_NS(uint32_t topOfProcStack)
 290:Drivers/CMSIS/Include/cmsis_gcc.h **** {
ARM GAS  /tmp/cc4OTmQk.s 			page 60


 291:Drivers/CMSIS/Include/cmsis_gcc.h ****   __ASM volatile ("MSR psp_ns, %0" : : "r" (topOfProcStack) : );
 292:Drivers/CMSIS/Include/cmsis_gcc.h **** }
 293:Drivers/CMSIS/Include/cmsis_gcc.h **** #endif
 294:Drivers/CMSIS/Include/cmsis_gcc.h **** 
 295:Drivers/CMSIS/Include/cmsis_gcc.h **** 
 296:Drivers/CMSIS/Include/cmsis_gcc.h **** /**
 297:Drivers/CMSIS/Include/cmsis_gcc.h ****   \brief   Get Main Stack Pointer
 298:Drivers/CMSIS/Include/cmsis_gcc.h ****   \details Returns the current value of the Main Stack Pointer (MSP).
 299:Drivers/CMSIS/Include/cmsis_gcc.h ****   \return               MSP Register value
 300:Drivers/CMSIS/Include/cmsis_gcc.h ****  */
 301:Drivers/CMSIS/Include/cmsis_gcc.h **** __STATIC_FORCEINLINE uint32_t __get_MSP(void)
 302:Drivers/CMSIS/Include/cmsis_gcc.h **** {
 303:Drivers/CMSIS/Include/cmsis_gcc.h ****   uint32_t result;
 304:Drivers/CMSIS/Include/cmsis_gcc.h **** 
 305:Drivers/CMSIS/Include/cmsis_gcc.h ****   __ASM volatile ("MRS %0, msp" : "=r" (result) );
 306:Drivers/CMSIS/Include/cmsis_gcc.h ****   return(result);
 307:Drivers/CMSIS/Include/cmsis_gcc.h **** }
 308:Drivers/CMSIS/Include/cmsis_gcc.h **** 
 309:Drivers/CMSIS/Include/cmsis_gcc.h **** 
 310:Drivers/CMSIS/Include/cmsis_gcc.h **** #if (defined (__ARM_FEATURE_CMSE ) && (__ARM_FEATURE_CMSE == 3))
 311:Drivers/CMSIS/Include/cmsis_gcc.h **** /**
 312:Drivers/CMSIS/Include/cmsis_gcc.h ****   \brief   Get Main Stack Pointer (non-secure)
 313:Drivers/CMSIS/Include/cmsis_gcc.h ****   \details Returns the current value of the non-secure Main Stack Pointer (MSP) when in secure stat
 314:Drivers/CMSIS/Include/cmsis_gcc.h ****   \return               MSP Register value
 315:Drivers/CMSIS/Include/cmsis_gcc.h ****  */
 316:Drivers/CMSIS/Include/cmsis_gcc.h **** __STATIC_FORCEINLINE uint32_t __TZ_get_MSP_NS(void)
 317:Drivers/CMSIS/Include/cmsis_gcc.h **** {
 318:Drivers/CMSIS/Include/cmsis_gcc.h ****   uint32_t result;
 319:Drivers/CMSIS/Include/cmsis_gcc.h **** 
 320:Drivers/CMSIS/Include/cmsis_gcc.h ****   __ASM volatile ("MRS %0, msp_ns" : "=r" (result) );
 321:Drivers/CMSIS/Include/cmsis_gcc.h ****   return(result);
 322:Drivers/CMSIS/Include/cmsis_gcc.h **** }
 323:Drivers/CMSIS/Include/cmsis_gcc.h **** #endif
 324:Drivers/CMSIS/Include/cmsis_gcc.h **** 
 325:Drivers/CMSIS/Include/cmsis_gcc.h **** 
 326:Drivers/CMSIS/Include/cmsis_gcc.h **** /**
 327:Drivers/CMSIS/Include/cmsis_gcc.h ****   \brief   Set Main Stack Pointer
 328:Drivers/CMSIS/Include/cmsis_gcc.h ****   \details Assigns the given value to the Main Stack Pointer (MSP).
 329:Drivers/CMSIS/Include/cmsis_gcc.h ****   \param [in]    topOfMainStack  Main Stack Pointer value to set
 330:Drivers/CMSIS/Include/cmsis_gcc.h ****  */
 331:Drivers/CMSIS/Include/cmsis_gcc.h **** __STATIC_FORCEINLINE void __set_MSP(uint32_t topOfMainStack)
 332:Drivers/CMSIS/Include/cmsis_gcc.h **** {
 333:Drivers/CMSIS/Include/cmsis_gcc.h ****   __ASM volatile ("MSR msp, %0" : : "r" (topOfMainStack) : );
 334:Drivers/CMSIS/Include/cmsis_gcc.h **** }
 335:Drivers/CMSIS/Include/cmsis_gcc.h **** 
 336:Drivers/CMSIS/Include/cmsis_gcc.h **** 
 337:Drivers/CMSIS/Include/cmsis_gcc.h **** #if (defined (__ARM_FEATURE_CMSE ) && (__ARM_FEATURE_CMSE == 3))
 338:Drivers/CMSIS/Include/cmsis_gcc.h **** /**
 339:Drivers/CMSIS/Include/cmsis_gcc.h ****   \brief   Set Main Stack Pointer (non-secure)
 340:Drivers/CMSIS/Include/cmsis_gcc.h ****   \details Assigns the given value to the non-secure Main Stack Pointer (MSP) when in secure state.
 341:Drivers/CMSIS/Include/cmsis_gcc.h ****   \param [in]    topOfMainStack  Main Stack Pointer value to set
 342:Drivers/CMSIS/Include/cmsis_gcc.h ****  */
 343:Drivers/CMSIS/Include/cmsis_gcc.h **** __STATIC_FORCEINLINE void __TZ_set_MSP_NS(uint32_t topOfMainStack)
 344:Drivers/CMSIS/Include/cmsis_gcc.h **** {
 345:Drivers/CMSIS/Include/cmsis_gcc.h ****   __ASM volatile ("MSR msp_ns, %0" : : "r" (topOfMainStack) : );
 346:Drivers/CMSIS/Include/cmsis_gcc.h **** }
 347:Drivers/CMSIS/Include/cmsis_gcc.h **** #endif
ARM GAS  /tmp/cc4OTmQk.s 			page 61


 348:Drivers/CMSIS/Include/cmsis_gcc.h **** 
 349:Drivers/CMSIS/Include/cmsis_gcc.h **** 
 350:Drivers/CMSIS/Include/cmsis_gcc.h **** #if (defined (__ARM_FEATURE_CMSE ) && (__ARM_FEATURE_CMSE == 3))
 351:Drivers/CMSIS/Include/cmsis_gcc.h **** /**
 352:Drivers/CMSIS/Include/cmsis_gcc.h ****   \brief   Get Stack Pointer (non-secure)
 353:Drivers/CMSIS/Include/cmsis_gcc.h ****   \details Returns the current value of the non-secure Stack Pointer (SP) when in secure state.
 354:Drivers/CMSIS/Include/cmsis_gcc.h ****   \return               SP Register value
 355:Drivers/CMSIS/Include/cmsis_gcc.h ****  */
 356:Drivers/CMSIS/Include/cmsis_gcc.h **** __STATIC_FORCEINLINE uint32_t __TZ_get_SP_NS(void)
 357:Drivers/CMSIS/Include/cmsis_gcc.h **** {
 358:Drivers/CMSIS/Include/cmsis_gcc.h ****   uint32_t result;
 359:Drivers/CMSIS/Include/cmsis_gcc.h **** 
 360:Drivers/CMSIS/Include/cmsis_gcc.h ****   __ASM volatile ("MRS %0, sp_ns" : "=r" (result) );
 361:Drivers/CMSIS/Include/cmsis_gcc.h ****   return(result);
 362:Drivers/CMSIS/Include/cmsis_gcc.h **** }
 363:Drivers/CMSIS/Include/cmsis_gcc.h **** 
 364:Drivers/CMSIS/Include/cmsis_gcc.h **** 
 365:Drivers/CMSIS/Include/cmsis_gcc.h **** /**
 366:Drivers/CMSIS/Include/cmsis_gcc.h ****   \brief   Set Stack Pointer (non-secure)
 367:Drivers/CMSIS/Include/cmsis_gcc.h ****   \details Assigns the given value to the non-secure Stack Pointer (SP) when in secure state.
 368:Drivers/CMSIS/Include/cmsis_gcc.h ****   \param [in]    topOfStack  Stack Pointer value to set
 369:Drivers/CMSIS/Include/cmsis_gcc.h ****  */
 370:Drivers/CMSIS/Include/cmsis_gcc.h **** __STATIC_FORCEINLINE void __TZ_set_SP_NS(uint32_t topOfStack)
 371:Drivers/CMSIS/Include/cmsis_gcc.h **** {
 372:Drivers/CMSIS/Include/cmsis_gcc.h ****   __ASM volatile ("MSR sp_ns, %0" : : "r" (topOfStack) : );
 373:Drivers/CMSIS/Include/cmsis_gcc.h **** }
 374:Drivers/CMSIS/Include/cmsis_gcc.h **** #endif
 375:Drivers/CMSIS/Include/cmsis_gcc.h **** 
 376:Drivers/CMSIS/Include/cmsis_gcc.h **** 
 377:Drivers/CMSIS/Include/cmsis_gcc.h **** /**
 378:Drivers/CMSIS/Include/cmsis_gcc.h ****   \brief   Get Priority Mask
 379:Drivers/CMSIS/Include/cmsis_gcc.h ****   \details Returns the current state of the priority mask bit from the Priority Mask Register.
 380:Drivers/CMSIS/Include/cmsis_gcc.h ****   \return               Priority Mask value
 381:Drivers/CMSIS/Include/cmsis_gcc.h ****  */
 382:Drivers/CMSIS/Include/cmsis_gcc.h **** __STATIC_FORCEINLINE uint32_t __get_PRIMASK(void)
 383:Drivers/CMSIS/Include/cmsis_gcc.h **** {
 384:Drivers/CMSIS/Include/cmsis_gcc.h ****   uint32_t result;
 385:Drivers/CMSIS/Include/cmsis_gcc.h **** 
 386:Drivers/CMSIS/Include/cmsis_gcc.h ****   __ASM volatile ("MRS %0, primask" : "=r" (result) :: "memory");
 387:Drivers/CMSIS/Include/cmsis_gcc.h ****   return(result);
 388:Drivers/CMSIS/Include/cmsis_gcc.h **** }
 389:Drivers/CMSIS/Include/cmsis_gcc.h **** 
 390:Drivers/CMSIS/Include/cmsis_gcc.h **** 
 391:Drivers/CMSIS/Include/cmsis_gcc.h **** #if (defined (__ARM_FEATURE_CMSE ) && (__ARM_FEATURE_CMSE == 3))
 392:Drivers/CMSIS/Include/cmsis_gcc.h **** /**
 393:Drivers/CMSIS/Include/cmsis_gcc.h ****   \brief   Get Priority Mask (non-secure)
 394:Drivers/CMSIS/Include/cmsis_gcc.h ****   \details Returns the current state of the non-secure priority mask bit from the Priority Mask Reg
 395:Drivers/CMSIS/Include/cmsis_gcc.h ****   \return               Priority Mask value
 396:Drivers/CMSIS/Include/cmsis_gcc.h ****  */
 397:Drivers/CMSIS/Include/cmsis_gcc.h **** __STATIC_FORCEINLINE uint32_t __TZ_get_PRIMASK_NS(void)
 398:Drivers/CMSIS/Include/cmsis_gcc.h **** {
 399:Drivers/CMSIS/Include/cmsis_gcc.h ****   uint32_t result;
 400:Drivers/CMSIS/Include/cmsis_gcc.h **** 
 401:Drivers/CMSIS/Include/cmsis_gcc.h ****   __ASM volatile ("MRS %0, primask_ns" : "=r" (result) :: "memory");
 402:Drivers/CMSIS/Include/cmsis_gcc.h ****   return(result);
 403:Drivers/CMSIS/Include/cmsis_gcc.h **** }
 404:Drivers/CMSIS/Include/cmsis_gcc.h **** #endif
ARM GAS  /tmp/cc4OTmQk.s 			page 62


 405:Drivers/CMSIS/Include/cmsis_gcc.h **** 
 406:Drivers/CMSIS/Include/cmsis_gcc.h **** 
 407:Drivers/CMSIS/Include/cmsis_gcc.h **** /**
 408:Drivers/CMSIS/Include/cmsis_gcc.h ****   \brief   Set Priority Mask
 409:Drivers/CMSIS/Include/cmsis_gcc.h ****   \details Assigns the given value to the Priority Mask Register.
 410:Drivers/CMSIS/Include/cmsis_gcc.h ****   \param [in]    priMask  Priority Mask
 411:Drivers/CMSIS/Include/cmsis_gcc.h ****  */
 412:Drivers/CMSIS/Include/cmsis_gcc.h **** __STATIC_FORCEINLINE void __set_PRIMASK(uint32_t priMask)
 413:Drivers/CMSIS/Include/cmsis_gcc.h **** {
 414:Drivers/CMSIS/Include/cmsis_gcc.h ****   __ASM volatile ("MSR primask, %0" : : "r" (priMask) : "memory");
 415:Drivers/CMSIS/Include/cmsis_gcc.h **** }
 416:Drivers/CMSIS/Include/cmsis_gcc.h **** 
 417:Drivers/CMSIS/Include/cmsis_gcc.h **** 
 418:Drivers/CMSIS/Include/cmsis_gcc.h **** #if (defined (__ARM_FEATURE_CMSE ) && (__ARM_FEATURE_CMSE == 3))
 419:Drivers/CMSIS/Include/cmsis_gcc.h **** /**
 420:Drivers/CMSIS/Include/cmsis_gcc.h ****   \brief   Set Priority Mask (non-secure)
 421:Drivers/CMSIS/Include/cmsis_gcc.h ****   \details Assigns the given value to the non-secure Priority Mask Register when in secure state.
 422:Drivers/CMSIS/Include/cmsis_gcc.h ****   \param [in]    priMask  Priority Mask
 423:Drivers/CMSIS/Include/cmsis_gcc.h ****  */
 424:Drivers/CMSIS/Include/cmsis_gcc.h **** __STATIC_FORCEINLINE void __TZ_set_PRIMASK_NS(uint32_t priMask)
 425:Drivers/CMSIS/Include/cmsis_gcc.h **** {
 426:Drivers/CMSIS/Include/cmsis_gcc.h ****   __ASM volatile ("MSR primask_ns, %0" : : "r" (priMask) : "memory");
 427:Drivers/CMSIS/Include/cmsis_gcc.h **** }
 428:Drivers/CMSIS/Include/cmsis_gcc.h **** #endif
 429:Drivers/CMSIS/Include/cmsis_gcc.h **** 
 430:Drivers/CMSIS/Include/cmsis_gcc.h **** 
 431:Drivers/CMSIS/Include/cmsis_gcc.h **** #if ((defined (__ARM_ARCH_7M__      ) && (__ARM_ARCH_7M__      == 1)) || \
 432:Drivers/CMSIS/Include/cmsis_gcc.h ****      (defined (__ARM_ARCH_7EM__     ) && (__ARM_ARCH_7EM__     == 1)) || \
 433:Drivers/CMSIS/Include/cmsis_gcc.h ****      (defined (__ARM_ARCH_8M_MAIN__ ) && (__ARM_ARCH_8M_MAIN__ == 1))    )
 434:Drivers/CMSIS/Include/cmsis_gcc.h **** /**
 435:Drivers/CMSIS/Include/cmsis_gcc.h ****   \brief   Enable FIQ
 436:Drivers/CMSIS/Include/cmsis_gcc.h ****   \details Enables FIQ interrupts by clearing the F-bit in the CPSR.
 437:Drivers/CMSIS/Include/cmsis_gcc.h ****            Can only be executed in Privileged modes.
 438:Drivers/CMSIS/Include/cmsis_gcc.h ****  */
 439:Drivers/CMSIS/Include/cmsis_gcc.h **** __STATIC_FORCEINLINE void __enable_fault_irq(void)
 440:Drivers/CMSIS/Include/cmsis_gcc.h **** {
 441:Drivers/CMSIS/Include/cmsis_gcc.h ****   __ASM volatile ("cpsie f" : : : "memory");
 442:Drivers/CMSIS/Include/cmsis_gcc.h **** }
 443:Drivers/CMSIS/Include/cmsis_gcc.h **** 
 444:Drivers/CMSIS/Include/cmsis_gcc.h **** 
 445:Drivers/CMSIS/Include/cmsis_gcc.h **** /**
 446:Drivers/CMSIS/Include/cmsis_gcc.h ****   \brief   Disable FIQ
 447:Drivers/CMSIS/Include/cmsis_gcc.h ****   \details Disables FIQ interrupts by setting the F-bit in the CPSR.
 448:Drivers/CMSIS/Include/cmsis_gcc.h ****            Can only be executed in Privileged modes.
 449:Drivers/CMSIS/Include/cmsis_gcc.h ****  */
 450:Drivers/CMSIS/Include/cmsis_gcc.h **** __STATIC_FORCEINLINE void __disable_fault_irq(void)
 451:Drivers/CMSIS/Include/cmsis_gcc.h **** {
 452:Drivers/CMSIS/Include/cmsis_gcc.h ****   __ASM volatile ("cpsid f" : : : "memory");
 453:Drivers/CMSIS/Include/cmsis_gcc.h **** }
 454:Drivers/CMSIS/Include/cmsis_gcc.h **** 
 455:Drivers/CMSIS/Include/cmsis_gcc.h **** 
 456:Drivers/CMSIS/Include/cmsis_gcc.h **** /**
 457:Drivers/CMSIS/Include/cmsis_gcc.h ****   \brief   Get Base Priority
 458:Drivers/CMSIS/Include/cmsis_gcc.h ****   \details Returns the current value of the Base Priority register.
 459:Drivers/CMSIS/Include/cmsis_gcc.h ****   \return               Base Priority register value
 460:Drivers/CMSIS/Include/cmsis_gcc.h ****  */
 461:Drivers/CMSIS/Include/cmsis_gcc.h **** __STATIC_FORCEINLINE uint32_t __get_BASEPRI(void)
ARM GAS  /tmp/cc4OTmQk.s 			page 63


 462:Drivers/CMSIS/Include/cmsis_gcc.h **** {
 463:Drivers/CMSIS/Include/cmsis_gcc.h ****   uint32_t result;
 464:Drivers/CMSIS/Include/cmsis_gcc.h **** 
 465:Drivers/CMSIS/Include/cmsis_gcc.h ****   __ASM volatile ("MRS %0, basepri" : "=r" (result) );
 466:Drivers/CMSIS/Include/cmsis_gcc.h ****   return(result);
 467:Drivers/CMSIS/Include/cmsis_gcc.h **** }
 468:Drivers/CMSIS/Include/cmsis_gcc.h **** 
 469:Drivers/CMSIS/Include/cmsis_gcc.h **** 
 470:Drivers/CMSIS/Include/cmsis_gcc.h **** #if (defined (__ARM_FEATURE_CMSE ) && (__ARM_FEATURE_CMSE == 3))
 471:Drivers/CMSIS/Include/cmsis_gcc.h **** /**
 472:Drivers/CMSIS/Include/cmsis_gcc.h ****   \brief   Get Base Priority (non-secure)
 473:Drivers/CMSIS/Include/cmsis_gcc.h ****   \details Returns the current value of the non-secure Base Priority register when in secure state.
 474:Drivers/CMSIS/Include/cmsis_gcc.h ****   \return               Base Priority register value
 475:Drivers/CMSIS/Include/cmsis_gcc.h ****  */
 476:Drivers/CMSIS/Include/cmsis_gcc.h **** __STATIC_FORCEINLINE uint32_t __TZ_get_BASEPRI_NS(void)
 477:Drivers/CMSIS/Include/cmsis_gcc.h **** {
 478:Drivers/CMSIS/Include/cmsis_gcc.h ****   uint32_t result;
 479:Drivers/CMSIS/Include/cmsis_gcc.h **** 
 480:Drivers/CMSIS/Include/cmsis_gcc.h ****   __ASM volatile ("MRS %0, basepri_ns" : "=r" (result) );
 481:Drivers/CMSIS/Include/cmsis_gcc.h ****   return(result);
 482:Drivers/CMSIS/Include/cmsis_gcc.h **** }
 483:Drivers/CMSIS/Include/cmsis_gcc.h **** #endif
 484:Drivers/CMSIS/Include/cmsis_gcc.h **** 
 485:Drivers/CMSIS/Include/cmsis_gcc.h **** 
 486:Drivers/CMSIS/Include/cmsis_gcc.h **** /**
 487:Drivers/CMSIS/Include/cmsis_gcc.h ****   \brief   Set Base Priority
 488:Drivers/CMSIS/Include/cmsis_gcc.h ****   \details Assigns the given value to the Base Priority register.
 489:Drivers/CMSIS/Include/cmsis_gcc.h ****   \param [in]    basePri  Base Priority value to set
 490:Drivers/CMSIS/Include/cmsis_gcc.h ****  */
 491:Drivers/CMSIS/Include/cmsis_gcc.h **** __STATIC_FORCEINLINE void __set_BASEPRI(uint32_t basePri)
 492:Drivers/CMSIS/Include/cmsis_gcc.h **** {
 493:Drivers/CMSIS/Include/cmsis_gcc.h ****   __ASM volatile ("MSR basepri, %0" : : "r" (basePri) : "memory");
 494:Drivers/CMSIS/Include/cmsis_gcc.h **** }
 495:Drivers/CMSIS/Include/cmsis_gcc.h **** 
 496:Drivers/CMSIS/Include/cmsis_gcc.h **** 
 497:Drivers/CMSIS/Include/cmsis_gcc.h **** #if (defined (__ARM_FEATURE_CMSE ) && (__ARM_FEATURE_CMSE == 3))
 498:Drivers/CMSIS/Include/cmsis_gcc.h **** /**
 499:Drivers/CMSIS/Include/cmsis_gcc.h ****   \brief   Set Base Priority (non-secure)
 500:Drivers/CMSIS/Include/cmsis_gcc.h ****   \details Assigns the given value to the non-secure Base Priority register when in secure state.
 501:Drivers/CMSIS/Include/cmsis_gcc.h ****   \param [in]    basePri  Base Priority value to set
 502:Drivers/CMSIS/Include/cmsis_gcc.h ****  */
 503:Drivers/CMSIS/Include/cmsis_gcc.h **** __STATIC_FORCEINLINE void __TZ_set_BASEPRI_NS(uint32_t basePri)
 504:Drivers/CMSIS/Include/cmsis_gcc.h **** {
 505:Drivers/CMSIS/Include/cmsis_gcc.h ****   __ASM volatile ("MSR basepri_ns, %0" : : "r" (basePri) : "memory");
 506:Drivers/CMSIS/Include/cmsis_gcc.h **** }
 507:Drivers/CMSIS/Include/cmsis_gcc.h **** #endif
 508:Drivers/CMSIS/Include/cmsis_gcc.h **** 
 509:Drivers/CMSIS/Include/cmsis_gcc.h **** 
 510:Drivers/CMSIS/Include/cmsis_gcc.h **** /**
 511:Drivers/CMSIS/Include/cmsis_gcc.h ****   \brief   Set Base Priority with condition
 512:Drivers/CMSIS/Include/cmsis_gcc.h ****   \details Assigns the given value to the Base Priority register only if BASEPRI masking is disable
 513:Drivers/CMSIS/Include/cmsis_gcc.h ****            or the new value increases the BASEPRI priority level.
 514:Drivers/CMSIS/Include/cmsis_gcc.h ****   \param [in]    basePri  Base Priority value to set
 515:Drivers/CMSIS/Include/cmsis_gcc.h ****  */
 516:Drivers/CMSIS/Include/cmsis_gcc.h **** __STATIC_FORCEINLINE void __set_BASEPRI_MAX(uint32_t basePri)
 517:Drivers/CMSIS/Include/cmsis_gcc.h **** {
 518:Drivers/CMSIS/Include/cmsis_gcc.h ****   __ASM volatile ("MSR basepri_max, %0" : : "r" (basePri) : "memory");
ARM GAS  /tmp/cc4OTmQk.s 			page 64


 519:Drivers/CMSIS/Include/cmsis_gcc.h **** }
 520:Drivers/CMSIS/Include/cmsis_gcc.h **** 
 521:Drivers/CMSIS/Include/cmsis_gcc.h **** 
 522:Drivers/CMSIS/Include/cmsis_gcc.h **** /**
 523:Drivers/CMSIS/Include/cmsis_gcc.h ****   \brief   Get Fault Mask
 524:Drivers/CMSIS/Include/cmsis_gcc.h ****   \details Returns the current value of the Fault Mask register.
 525:Drivers/CMSIS/Include/cmsis_gcc.h ****   \return               Fault Mask register value
 526:Drivers/CMSIS/Include/cmsis_gcc.h ****  */
 527:Drivers/CMSIS/Include/cmsis_gcc.h **** __STATIC_FORCEINLINE uint32_t __get_FAULTMASK(void)
 528:Drivers/CMSIS/Include/cmsis_gcc.h **** {
 529:Drivers/CMSIS/Include/cmsis_gcc.h ****   uint32_t result;
 530:Drivers/CMSIS/Include/cmsis_gcc.h **** 
 531:Drivers/CMSIS/Include/cmsis_gcc.h ****   __ASM volatile ("MRS %0, faultmask" : "=r" (result) );
 532:Drivers/CMSIS/Include/cmsis_gcc.h ****   return(result);
 533:Drivers/CMSIS/Include/cmsis_gcc.h **** }
 534:Drivers/CMSIS/Include/cmsis_gcc.h **** 
 535:Drivers/CMSIS/Include/cmsis_gcc.h **** 
 536:Drivers/CMSIS/Include/cmsis_gcc.h **** #if (defined (__ARM_FEATURE_CMSE ) && (__ARM_FEATURE_CMSE == 3))
 537:Drivers/CMSIS/Include/cmsis_gcc.h **** /**
 538:Drivers/CMSIS/Include/cmsis_gcc.h ****   \brief   Get Fault Mask (non-secure)
 539:Drivers/CMSIS/Include/cmsis_gcc.h ****   \details Returns the current value of the non-secure Fault Mask register when in secure state.
 540:Drivers/CMSIS/Include/cmsis_gcc.h ****   \return               Fault Mask register value
 541:Drivers/CMSIS/Include/cmsis_gcc.h ****  */
 542:Drivers/CMSIS/Include/cmsis_gcc.h **** __STATIC_FORCEINLINE uint32_t __TZ_get_FAULTMASK_NS(void)
 543:Drivers/CMSIS/Include/cmsis_gcc.h **** {
 544:Drivers/CMSIS/Include/cmsis_gcc.h ****   uint32_t result;
 545:Drivers/CMSIS/Include/cmsis_gcc.h **** 
 546:Drivers/CMSIS/Include/cmsis_gcc.h ****   __ASM volatile ("MRS %0, faultmask_ns" : "=r" (result) );
 547:Drivers/CMSIS/Include/cmsis_gcc.h ****   return(result);
 548:Drivers/CMSIS/Include/cmsis_gcc.h **** }
 549:Drivers/CMSIS/Include/cmsis_gcc.h **** #endif
 550:Drivers/CMSIS/Include/cmsis_gcc.h **** 
 551:Drivers/CMSIS/Include/cmsis_gcc.h **** 
 552:Drivers/CMSIS/Include/cmsis_gcc.h **** /**
 553:Drivers/CMSIS/Include/cmsis_gcc.h ****   \brief   Set Fault Mask
 554:Drivers/CMSIS/Include/cmsis_gcc.h ****   \details Assigns the given value to the Fault Mask register.
 555:Drivers/CMSIS/Include/cmsis_gcc.h ****   \param [in]    faultMask  Fault Mask value to set
 556:Drivers/CMSIS/Include/cmsis_gcc.h ****  */
 557:Drivers/CMSIS/Include/cmsis_gcc.h **** __STATIC_FORCEINLINE void __set_FAULTMASK(uint32_t faultMask)
 558:Drivers/CMSIS/Include/cmsis_gcc.h **** {
 559:Drivers/CMSIS/Include/cmsis_gcc.h ****   __ASM volatile ("MSR faultmask, %0" : : "r" (faultMask) : "memory");
 560:Drivers/CMSIS/Include/cmsis_gcc.h **** }
 561:Drivers/CMSIS/Include/cmsis_gcc.h **** 
 562:Drivers/CMSIS/Include/cmsis_gcc.h **** 
 563:Drivers/CMSIS/Include/cmsis_gcc.h **** #if (defined (__ARM_FEATURE_CMSE ) && (__ARM_FEATURE_CMSE == 3))
 564:Drivers/CMSIS/Include/cmsis_gcc.h **** /**
 565:Drivers/CMSIS/Include/cmsis_gcc.h ****   \brief   Set Fault Mask (non-secure)
 566:Drivers/CMSIS/Include/cmsis_gcc.h ****   \details Assigns the given value to the non-secure Fault Mask register when in secure state.
 567:Drivers/CMSIS/Include/cmsis_gcc.h ****   \param [in]    faultMask  Fault Mask value to set
 568:Drivers/CMSIS/Include/cmsis_gcc.h ****  */
 569:Drivers/CMSIS/Include/cmsis_gcc.h **** __STATIC_FORCEINLINE void __TZ_set_FAULTMASK_NS(uint32_t faultMask)
 570:Drivers/CMSIS/Include/cmsis_gcc.h **** {
 571:Drivers/CMSIS/Include/cmsis_gcc.h ****   __ASM volatile ("MSR faultmask_ns, %0" : : "r" (faultMask) : "memory");
 572:Drivers/CMSIS/Include/cmsis_gcc.h **** }
 573:Drivers/CMSIS/Include/cmsis_gcc.h **** #endif
 574:Drivers/CMSIS/Include/cmsis_gcc.h **** 
 575:Drivers/CMSIS/Include/cmsis_gcc.h **** #endif /* ((defined (__ARM_ARCH_7M__      ) && (__ARM_ARCH_7M__      == 1)) || \
ARM GAS  /tmp/cc4OTmQk.s 			page 65


 576:Drivers/CMSIS/Include/cmsis_gcc.h ****            (defined (__ARM_ARCH_7EM__     ) && (__ARM_ARCH_7EM__     == 1)) || \
 577:Drivers/CMSIS/Include/cmsis_gcc.h ****            (defined (__ARM_ARCH_8M_MAIN__ ) && (__ARM_ARCH_8M_MAIN__ == 1))    ) */
 578:Drivers/CMSIS/Include/cmsis_gcc.h **** 
 579:Drivers/CMSIS/Include/cmsis_gcc.h **** 
 580:Drivers/CMSIS/Include/cmsis_gcc.h **** #if ((defined (__ARM_ARCH_8M_MAIN__ ) && (__ARM_ARCH_8M_MAIN__ == 1)) || \
 581:Drivers/CMSIS/Include/cmsis_gcc.h ****      (defined (__ARM_ARCH_8M_BASE__ ) && (__ARM_ARCH_8M_BASE__ == 1))    )
 582:Drivers/CMSIS/Include/cmsis_gcc.h **** 
 583:Drivers/CMSIS/Include/cmsis_gcc.h **** /**
 584:Drivers/CMSIS/Include/cmsis_gcc.h ****   \brief   Get Process Stack Pointer Limit
 585:Drivers/CMSIS/Include/cmsis_gcc.h ****   Devices without ARMv8-M Main Extensions (i.e. Cortex-M23) lack the non-secure
 586:Drivers/CMSIS/Include/cmsis_gcc.h ****   Stack Pointer Limit register hence zero is returned always in non-secure
 587:Drivers/CMSIS/Include/cmsis_gcc.h ****   mode.
 588:Drivers/CMSIS/Include/cmsis_gcc.h ****   
 589:Drivers/CMSIS/Include/cmsis_gcc.h ****   \details Returns the current value of the Process Stack Pointer Limit (PSPLIM).
 590:Drivers/CMSIS/Include/cmsis_gcc.h ****   \return               PSPLIM Register value
 591:Drivers/CMSIS/Include/cmsis_gcc.h ****  */
 592:Drivers/CMSIS/Include/cmsis_gcc.h **** __STATIC_FORCEINLINE uint32_t __get_PSPLIM(void)
 593:Drivers/CMSIS/Include/cmsis_gcc.h **** {
 594:Drivers/CMSIS/Include/cmsis_gcc.h **** #if (!(defined (__ARM_ARCH_8M_MAIN__ ) && (__ARM_ARCH_8M_MAIN__ == 1)) && \
 595:Drivers/CMSIS/Include/cmsis_gcc.h ****     (!defined (__ARM_FEATURE_CMSE) || (__ARM_FEATURE_CMSE < 3)))
 596:Drivers/CMSIS/Include/cmsis_gcc.h ****     // without main extensions, the non-secure PSPLIM is RAZ/WI
 597:Drivers/CMSIS/Include/cmsis_gcc.h ****   return 0U;
 598:Drivers/CMSIS/Include/cmsis_gcc.h **** #else
 599:Drivers/CMSIS/Include/cmsis_gcc.h ****   uint32_t result;
 600:Drivers/CMSIS/Include/cmsis_gcc.h ****   __ASM volatile ("MRS %0, psplim"  : "=r" (result) );
 601:Drivers/CMSIS/Include/cmsis_gcc.h ****   return result;
 602:Drivers/CMSIS/Include/cmsis_gcc.h **** #endif
 603:Drivers/CMSIS/Include/cmsis_gcc.h **** }
 604:Drivers/CMSIS/Include/cmsis_gcc.h **** 
 605:Drivers/CMSIS/Include/cmsis_gcc.h **** #if (defined (__ARM_FEATURE_CMSE) && (__ARM_FEATURE_CMSE == 3))
 606:Drivers/CMSIS/Include/cmsis_gcc.h **** /**
 607:Drivers/CMSIS/Include/cmsis_gcc.h ****   \brief   Get Process Stack Pointer Limit (non-secure)
 608:Drivers/CMSIS/Include/cmsis_gcc.h ****   Devices without ARMv8-M Main Extensions (i.e. Cortex-M23) lack the non-secure
 609:Drivers/CMSIS/Include/cmsis_gcc.h ****   Stack Pointer Limit register hence zero is returned always.
 610:Drivers/CMSIS/Include/cmsis_gcc.h **** 
 611:Drivers/CMSIS/Include/cmsis_gcc.h ****   \details Returns the current value of the non-secure Process Stack Pointer Limit (PSPLIM) when in
 612:Drivers/CMSIS/Include/cmsis_gcc.h ****   \return               PSPLIM Register value
 613:Drivers/CMSIS/Include/cmsis_gcc.h ****  */
 614:Drivers/CMSIS/Include/cmsis_gcc.h **** __STATIC_FORCEINLINE uint32_t __TZ_get_PSPLIM_NS(void)
 615:Drivers/CMSIS/Include/cmsis_gcc.h **** {
 616:Drivers/CMSIS/Include/cmsis_gcc.h **** #if (!(defined (__ARM_ARCH_8M_MAIN__ ) && (__ARM_ARCH_8M_MAIN__ == 1)))
 617:Drivers/CMSIS/Include/cmsis_gcc.h ****   // without main extensions, the non-secure PSPLIM is RAZ/WI
 618:Drivers/CMSIS/Include/cmsis_gcc.h ****   return 0U;
 619:Drivers/CMSIS/Include/cmsis_gcc.h **** #else
 620:Drivers/CMSIS/Include/cmsis_gcc.h ****   uint32_t result;
 621:Drivers/CMSIS/Include/cmsis_gcc.h ****   __ASM volatile ("MRS %0, psplim_ns"  : "=r" (result) );
 622:Drivers/CMSIS/Include/cmsis_gcc.h ****   return result;
 623:Drivers/CMSIS/Include/cmsis_gcc.h **** #endif
 624:Drivers/CMSIS/Include/cmsis_gcc.h **** }
 625:Drivers/CMSIS/Include/cmsis_gcc.h **** #endif
 626:Drivers/CMSIS/Include/cmsis_gcc.h **** 
 627:Drivers/CMSIS/Include/cmsis_gcc.h **** 
 628:Drivers/CMSIS/Include/cmsis_gcc.h **** /**
 629:Drivers/CMSIS/Include/cmsis_gcc.h ****   \brief   Set Process Stack Pointer Limit
 630:Drivers/CMSIS/Include/cmsis_gcc.h ****   Devices without ARMv8-M Main Extensions (i.e. Cortex-M23) lack the non-secure
 631:Drivers/CMSIS/Include/cmsis_gcc.h ****   Stack Pointer Limit register hence the write is silently ignored in non-secure
 632:Drivers/CMSIS/Include/cmsis_gcc.h ****   mode.
ARM GAS  /tmp/cc4OTmQk.s 			page 66


 633:Drivers/CMSIS/Include/cmsis_gcc.h ****   
 634:Drivers/CMSIS/Include/cmsis_gcc.h ****   \details Assigns the given value to the Process Stack Pointer Limit (PSPLIM).
 635:Drivers/CMSIS/Include/cmsis_gcc.h ****   \param [in]    ProcStackPtrLimit  Process Stack Pointer Limit value to set
 636:Drivers/CMSIS/Include/cmsis_gcc.h ****  */
 637:Drivers/CMSIS/Include/cmsis_gcc.h **** __STATIC_FORCEINLINE void __set_PSPLIM(uint32_t ProcStackPtrLimit)
 638:Drivers/CMSIS/Include/cmsis_gcc.h **** {
 639:Drivers/CMSIS/Include/cmsis_gcc.h **** #if (!(defined (__ARM_ARCH_8M_MAIN__ ) && (__ARM_ARCH_8M_MAIN__ == 1)) && \
 640:Drivers/CMSIS/Include/cmsis_gcc.h ****     (!defined (__ARM_FEATURE_CMSE) || (__ARM_FEATURE_CMSE < 3)))
 641:Drivers/CMSIS/Include/cmsis_gcc.h ****   // without main extensions, the non-secure PSPLIM is RAZ/WI
 642:Drivers/CMSIS/Include/cmsis_gcc.h ****   (void)ProcStackPtrLimit;
 643:Drivers/CMSIS/Include/cmsis_gcc.h **** #else
 644:Drivers/CMSIS/Include/cmsis_gcc.h ****   __ASM volatile ("MSR psplim, %0" : : "r" (ProcStackPtrLimit));
 645:Drivers/CMSIS/Include/cmsis_gcc.h **** #endif
 646:Drivers/CMSIS/Include/cmsis_gcc.h **** }
 647:Drivers/CMSIS/Include/cmsis_gcc.h **** 
 648:Drivers/CMSIS/Include/cmsis_gcc.h **** 
 649:Drivers/CMSIS/Include/cmsis_gcc.h **** #if (defined (__ARM_FEATURE_CMSE  ) && (__ARM_FEATURE_CMSE   == 3))
 650:Drivers/CMSIS/Include/cmsis_gcc.h **** /**
 651:Drivers/CMSIS/Include/cmsis_gcc.h ****   \brief   Set Process Stack Pointer (non-secure)
 652:Drivers/CMSIS/Include/cmsis_gcc.h ****   Devices without ARMv8-M Main Extensions (i.e. Cortex-M23) lack the non-secure
 653:Drivers/CMSIS/Include/cmsis_gcc.h ****   Stack Pointer Limit register hence the write is silently ignored.
 654:Drivers/CMSIS/Include/cmsis_gcc.h **** 
 655:Drivers/CMSIS/Include/cmsis_gcc.h ****   \details Assigns the given value to the non-secure Process Stack Pointer Limit (PSPLIM) when in s
 656:Drivers/CMSIS/Include/cmsis_gcc.h ****   \param [in]    ProcStackPtrLimit  Process Stack Pointer Limit value to set
 657:Drivers/CMSIS/Include/cmsis_gcc.h ****  */
 658:Drivers/CMSIS/Include/cmsis_gcc.h **** __STATIC_FORCEINLINE void __TZ_set_PSPLIM_NS(uint32_t ProcStackPtrLimit)
 659:Drivers/CMSIS/Include/cmsis_gcc.h **** {
 660:Drivers/CMSIS/Include/cmsis_gcc.h **** #if (!(defined (__ARM_ARCH_8M_MAIN__ ) && (__ARM_ARCH_8M_MAIN__ == 1)))
 661:Drivers/CMSIS/Include/cmsis_gcc.h ****   // without main extensions, the non-secure PSPLIM is RAZ/WI
 662:Drivers/CMSIS/Include/cmsis_gcc.h ****   (void)ProcStackPtrLimit;
 663:Drivers/CMSIS/Include/cmsis_gcc.h **** #else
 664:Drivers/CMSIS/Include/cmsis_gcc.h ****   __ASM volatile ("MSR psplim_ns, %0\n" : : "r" (ProcStackPtrLimit));
 665:Drivers/CMSIS/Include/cmsis_gcc.h **** #endif
 666:Drivers/CMSIS/Include/cmsis_gcc.h **** }
 667:Drivers/CMSIS/Include/cmsis_gcc.h **** #endif
 668:Drivers/CMSIS/Include/cmsis_gcc.h **** 
 669:Drivers/CMSIS/Include/cmsis_gcc.h **** 
 670:Drivers/CMSIS/Include/cmsis_gcc.h **** /**
 671:Drivers/CMSIS/Include/cmsis_gcc.h ****   \brief   Get Main Stack Pointer Limit
 672:Drivers/CMSIS/Include/cmsis_gcc.h ****   Devices without ARMv8-M Main Extensions (i.e. Cortex-M23) lack the non-secure
 673:Drivers/CMSIS/Include/cmsis_gcc.h ****   Stack Pointer Limit register hence zero is returned always in non-secure
 674:Drivers/CMSIS/Include/cmsis_gcc.h ****   mode.
 675:Drivers/CMSIS/Include/cmsis_gcc.h **** 
 676:Drivers/CMSIS/Include/cmsis_gcc.h ****   \details Returns the current value of the Main Stack Pointer Limit (MSPLIM).
 677:Drivers/CMSIS/Include/cmsis_gcc.h ****   \return               MSPLIM Register value
 678:Drivers/CMSIS/Include/cmsis_gcc.h ****  */
 679:Drivers/CMSIS/Include/cmsis_gcc.h **** __STATIC_FORCEINLINE uint32_t __get_MSPLIM(void)
 680:Drivers/CMSIS/Include/cmsis_gcc.h **** {
 681:Drivers/CMSIS/Include/cmsis_gcc.h **** #if (!(defined (__ARM_ARCH_8M_MAIN__ ) && (__ARM_ARCH_8M_MAIN__ == 1)) && \
 682:Drivers/CMSIS/Include/cmsis_gcc.h ****     (!defined (__ARM_FEATURE_CMSE) || (__ARM_FEATURE_CMSE < 3)))
 683:Drivers/CMSIS/Include/cmsis_gcc.h ****   // without main extensions, the non-secure MSPLIM is RAZ/WI
 684:Drivers/CMSIS/Include/cmsis_gcc.h ****   return 0U;
 685:Drivers/CMSIS/Include/cmsis_gcc.h **** #else
 686:Drivers/CMSIS/Include/cmsis_gcc.h ****   uint32_t result;
 687:Drivers/CMSIS/Include/cmsis_gcc.h ****   __ASM volatile ("MRS %0, msplim" : "=r" (result) );
 688:Drivers/CMSIS/Include/cmsis_gcc.h ****   return result;
 689:Drivers/CMSIS/Include/cmsis_gcc.h **** #endif
ARM GAS  /tmp/cc4OTmQk.s 			page 67


 690:Drivers/CMSIS/Include/cmsis_gcc.h **** }
 691:Drivers/CMSIS/Include/cmsis_gcc.h **** 
 692:Drivers/CMSIS/Include/cmsis_gcc.h **** 
 693:Drivers/CMSIS/Include/cmsis_gcc.h **** #if (defined (__ARM_FEATURE_CMSE  ) && (__ARM_FEATURE_CMSE   == 3))
 694:Drivers/CMSIS/Include/cmsis_gcc.h **** /**
 695:Drivers/CMSIS/Include/cmsis_gcc.h ****   \brief   Get Main Stack Pointer Limit (non-secure)
 696:Drivers/CMSIS/Include/cmsis_gcc.h ****   Devices without ARMv8-M Main Extensions (i.e. Cortex-M23) lack the non-secure
 697:Drivers/CMSIS/Include/cmsis_gcc.h ****   Stack Pointer Limit register hence zero is returned always.
 698:Drivers/CMSIS/Include/cmsis_gcc.h **** 
 699:Drivers/CMSIS/Include/cmsis_gcc.h ****   \details Returns the current value of the non-secure Main Stack Pointer Limit(MSPLIM) when in sec
 700:Drivers/CMSIS/Include/cmsis_gcc.h ****   \return               MSPLIM Register value
 701:Drivers/CMSIS/Include/cmsis_gcc.h ****  */
 702:Drivers/CMSIS/Include/cmsis_gcc.h **** __STATIC_FORCEINLINE uint32_t __TZ_get_MSPLIM_NS(void)
 703:Drivers/CMSIS/Include/cmsis_gcc.h **** {
 704:Drivers/CMSIS/Include/cmsis_gcc.h **** #if (!(defined (__ARM_ARCH_8M_MAIN__ ) && (__ARM_ARCH_8M_MAIN__ == 1)))
 705:Drivers/CMSIS/Include/cmsis_gcc.h ****   // without main extensions, the non-secure MSPLIM is RAZ/WI
 706:Drivers/CMSIS/Include/cmsis_gcc.h ****   return 0U;
 707:Drivers/CMSIS/Include/cmsis_gcc.h **** #else
 708:Drivers/CMSIS/Include/cmsis_gcc.h ****   uint32_t result;
 709:Drivers/CMSIS/Include/cmsis_gcc.h ****   __ASM volatile ("MRS %0, msplim_ns" : "=r" (result) );
 710:Drivers/CMSIS/Include/cmsis_gcc.h ****   return result;
 711:Drivers/CMSIS/Include/cmsis_gcc.h **** #endif
 712:Drivers/CMSIS/Include/cmsis_gcc.h **** }
 713:Drivers/CMSIS/Include/cmsis_gcc.h **** #endif
 714:Drivers/CMSIS/Include/cmsis_gcc.h **** 
 715:Drivers/CMSIS/Include/cmsis_gcc.h **** 
 716:Drivers/CMSIS/Include/cmsis_gcc.h **** /**
 717:Drivers/CMSIS/Include/cmsis_gcc.h ****   \brief   Set Main Stack Pointer Limit
 718:Drivers/CMSIS/Include/cmsis_gcc.h ****   Devices without ARMv8-M Main Extensions (i.e. Cortex-M23) lack the non-secure
 719:Drivers/CMSIS/Include/cmsis_gcc.h ****   Stack Pointer Limit register hence the write is silently ignored in non-secure
 720:Drivers/CMSIS/Include/cmsis_gcc.h ****   mode.
 721:Drivers/CMSIS/Include/cmsis_gcc.h **** 
 722:Drivers/CMSIS/Include/cmsis_gcc.h ****   \details Assigns the given value to the Main Stack Pointer Limit (MSPLIM).
 723:Drivers/CMSIS/Include/cmsis_gcc.h ****   \param [in]    MainStackPtrLimit  Main Stack Pointer Limit value to set
 724:Drivers/CMSIS/Include/cmsis_gcc.h ****  */
 725:Drivers/CMSIS/Include/cmsis_gcc.h **** __STATIC_FORCEINLINE void __set_MSPLIM(uint32_t MainStackPtrLimit)
 726:Drivers/CMSIS/Include/cmsis_gcc.h **** {
 727:Drivers/CMSIS/Include/cmsis_gcc.h **** #if (!(defined (__ARM_ARCH_8M_MAIN__ ) && (__ARM_ARCH_8M_MAIN__ == 1)) && \
 728:Drivers/CMSIS/Include/cmsis_gcc.h ****     (!defined (__ARM_FEATURE_CMSE) || (__ARM_FEATURE_CMSE < 3)))
 729:Drivers/CMSIS/Include/cmsis_gcc.h ****   // without main extensions, the non-secure MSPLIM is RAZ/WI
 730:Drivers/CMSIS/Include/cmsis_gcc.h ****   (void)MainStackPtrLimit;
 731:Drivers/CMSIS/Include/cmsis_gcc.h **** #else
 732:Drivers/CMSIS/Include/cmsis_gcc.h ****   __ASM volatile ("MSR msplim, %0" : : "r" (MainStackPtrLimit));
 733:Drivers/CMSIS/Include/cmsis_gcc.h **** #endif
 734:Drivers/CMSIS/Include/cmsis_gcc.h **** }
 735:Drivers/CMSIS/Include/cmsis_gcc.h **** 
 736:Drivers/CMSIS/Include/cmsis_gcc.h **** 
 737:Drivers/CMSIS/Include/cmsis_gcc.h **** #if (defined (__ARM_FEATURE_CMSE  ) && (__ARM_FEATURE_CMSE   == 3))
 738:Drivers/CMSIS/Include/cmsis_gcc.h **** /**
 739:Drivers/CMSIS/Include/cmsis_gcc.h ****   \brief   Set Main Stack Pointer Limit (non-secure)
 740:Drivers/CMSIS/Include/cmsis_gcc.h ****   Devices without ARMv8-M Main Extensions (i.e. Cortex-M23) lack the non-secure
 741:Drivers/CMSIS/Include/cmsis_gcc.h ****   Stack Pointer Limit register hence the write is silently ignored.
 742:Drivers/CMSIS/Include/cmsis_gcc.h **** 
 743:Drivers/CMSIS/Include/cmsis_gcc.h ****   \details Assigns the given value to the non-secure Main Stack Pointer Limit (MSPLIM) when in secu
 744:Drivers/CMSIS/Include/cmsis_gcc.h ****   \param [in]    MainStackPtrLimit  Main Stack Pointer value to set
 745:Drivers/CMSIS/Include/cmsis_gcc.h ****  */
 746:Drivers/CMSIS/Include/cmsis_gcc.h **** __STATIC_FORCEINLINE void __TZ_set_MSPLIM_NS(uint32_t MainStackPtrLimit)
ARM GAS  /tmp/cc4OTmQk.s 			page 68


 747:Drivers/CMSIS/Include/cmsis_gcc.h **** {
 748:Drivers/CMSIS/Include/cmsis_gcc.h **** #if (!(defined (__ARM_ARCH_8M_MAIN__ ) && (__ARM_ARCH_8M_MAIN__ == 1)))
 749:Drivers/CMSIS/Include/cmsis_gcc.h ****   // without main extensions, the non-secure MSPLIM is RAZ/WI
 750:Drivers/CMSIS/Include/cmsis_gcc.h ****   (void)MainStackPtrLimit;
 751:Drivers/CMSIS/Include/cmsis_gcc.h **** #else
 752:Drivers/CMSIS/Include/cmsis_gcc.h ****   __ASM volatile ("MSR msplim_ns, %0" : : "r" (MainStackPtrLimit));
 753:Drivers/CMSIS/Include/cmsis_gcc.h **** #endif
 754:Drivers/CMSIS/Include/cmsis_gcc.h **** }
 755:Drivers/CMSIS/Include/cmsis_gcc.h **** #endif
 756:Drivers/CMSIS/Include/cmsis_gcc.h **** 
 757:Drivers/CMSIS/Include/cmsis_gcc.h **** #endif /* ((defined (__ARM_ARCH_8M_MAIN__ ) && (__ARM_ARCH_8M_MAIN__ == 1)) || \
 758:Drivers/CMSIS/Include/cmsis_gcc.h ****            (defined (__ARM_ARCH_8M_BASE__ ) && (__ARM_ARCH_8M_BASE__ == 1))    ) */
 759:Drivers/CMSIS/Include/cmsis_gcc.h **** 
 760:Drivers/CMSIS/Include/cmsis_gcc.h **** 
 761:Drivers/CMSIS/Include/cmsis_gcc.h **** /**
 762:Drivers/CMSIS/Include/cmsis_gcc.h ****   \brief   Get FPSCR
 763:Drivers/CMSIS/Include/cmsis_gcc.h ****   \details Returns the current value of the Floating Point Status/Control register.
 764:Drivers/CMSIS/Include/cmsis_gcc.h ****   \return               Floating Point Status/Control register value
 765:Drivers/CMSIS/Include/cmsis_gcc.h ****  */
 766:Drivers/CMSIS/Include/cmsis_gcc.h **** __STATIC_FORCEINLINE uint32_t __get_FPSCR(void)
 767:Drivers/CMSIS/Include/cmsis_gcc.h **** {
 768:Drivers/CMSIS/Include/cmsis_gcc.h **** #if ((defined (__FPU_PRESENT) && (__FPU_PRESENT == 1U)) && \
 769:Drivers/CMSIS/Include/cmsis_gcc.h ****      (defined (__FPU_USED   ) && (__FPU_USED    == 1U))     )
 770:Drivers/CMSIS/Include/cmsis_gcc.h **** #if __has_builtin(__builtin_arm_get_fpscr) 
 771:Drivers/CMSIS/Include/cmsis_gcc.h **** // Re-enable using built-in when GCC has been fixed
 772:Drivers/CMSIS/Include/cmsis_gcc.h **** // || (__GNUC__ > 7) || (__GNUC__ == 7 && __GNUC_MINOR__ >= 2)
 773:Drivers/CMSIS/Include/cmsis_gcc.h ****   /* see https://gcc.gnu.org/ml/gcc-patches/2017-04/msg00443.html */
 774:Drivers/CMSIS/Include/cmsis_gcc.h ****   return __builtin_arm_get_fpscr();
 775:Drivers/CMSIS/Include/cmsis_gcc.h **** #else
 776:Drivers/CMSIS/Include/cmsis_gcc.h ****   uint32_t result;
 777:Drivers/CMSIS/Include/cmsis_gcc.h **** 
 778:Drivers/CMSIS/Include/cmsis_gcc.h ****   __ASM volatile ("VMRS %0, fpscr" : "=r" (result) );
 779:Drivers/CMSIS/Include/cmsis_gcc.h ****   return(result);
 780:Drivers/CMSIS/Include/cmsis_gcc.h **** #endif
 781:Drivers/CMSIS/Include/cmsis_gcc.h **** #else
 782:Drivers/CMSIS/Include/cmsis_gcc.h ****   return(0U);
 783:Drivers/CMSIS/Include/cmsis_gcc.h **** #endif
 784:Drivers/CMSIS/Include/cmsis_gcc.h **** }
 785:Drivers/CMSIS/Include/cmsis_gcc.h **** 
 786:Drivers/CMSIS/Include/cmsis_gcc.h **** 
 787:Drivers/CMSIS/Include/cmsis_gcc.h **** /**
