ARM GAS  /tmp/ccMjT2X9.s 			page 1


   1              		.cpu cortex-m7
   2              		.eabi_attribute 28, 1
   3              		.eabi_attribute 20, 1
   4              		.eabi_attribute 21, 1
   5              		.eabi_attribute 23, 3
   6              		.eabi_attribute 24, 1
   7              		.eabi_attribute 25, 1
   8              		.eabi_attribute 26, 1
   9              		.eabi_attribute 30, 1
  10              		.eabi_attribute 34, 1
  11              		.eabi_attribute 18, 4
  12              		.file	"tcp_out.c"
  13              		.text
  14              	.Ltext0:
  15              		.cfi_sections	.debug_frame
  16              		.section	.text.tcp_write_checks,"ax",%progbits
  17              		.align	1
  18              		.syntax unified
  19              		.thumb
  20              		.thumb_func
  21              		.fpu fpv5-d16
  23              	tcp_write_checks:
  24              	.LFB161:
  25              		.file 1 "Middlewares/Third_Party/LwIP/src/core/tcp_out.c"
   1:Middlewares/Third_Party/LwIP/src/core/tcp_out.c **** /**
   2:Middlewares/Third_Party/LwIP/src/core/tcp_out.c ****  * @file
   3:Middlewares/Third_Party/LwIP/src/core/tcp_out.c ****  * Transmission Control Protocol, outgoing traffic
   4:Middlewares/Third_Party/LwIP/src/core/tcp_out.c ****  *
   5:Middlewares/Third_Party/LwIP/src/core/tcp_out.c ****  * The output functions of TCP.
   6:Middlewares/Third_Party/LwIP/src/core/tcp_out.c ****  *
   7:Middlewares/Third_Party/LwIP/src/core/tcp_out.c ****  * There are two distinct ways for TCP segments to get sent:
   8:Middlewares/Third_Party/LwIP/src/core/tcp_out.c ****  * - queued data: these are segments transferring data or segments containing
   9:Middlewares/Third_Party/LwIP/src/core/tcp_out.c ****  *   SYN or FIN (which both count as one sequence number). They are created as
  10:Middlewares/Third_Party/LwIP/src/core/tcp_out.c ****  *   struct @ref pbuf together with a struct tcp_seg and enqueue to the
  11:Middlewares/Third_Party/LwIP/src/core/tcp_out.c ****  *   unsent list of the pcb. They are sent by tcp_output:
  12:Middlewares/Third_Party/LwIP/src/core/tcp_out.c ****  *   - @ref tcp_write : creates data segments
  13:Middlewares/Third_Party/LwIP/src/core/tcp_out.c ****  *   - @ref tcp_split_unsent_seg : splits a data segment
  14:Middlewares/Third_Party/LwIP/src/core/tcp_out.c ****  *   - @ref tcp_enqueue_flags : creates SYN-only or FIN-only segments
  15:Middlewares/Third_Party/LwIP/src/core/tcp_out.c ****  *   - @ref tcp_output / tcp_output_segment : finalize the tcp header
  16:Middlewares/Third_Party/LwIP/src/core/tcp_out.c ****  *      (e.g. sequence numbers, options, checksum) and output to IP
  17:Middlewares/Third_Party/LwIP/src/core/tcp_out.c ****  *   - the various tcp_rexmit functions shuffle around segments between the
  18:Middlewares/Third_Party/LwIP/src/core/tcp_out.c ****  *     unsent an unacked lists to retransmit them
  19:Middlewares/Third_Party/LwIP/src/core/tcp_out.c ****  *   - tcp_create_segment and tcp_pbuf_prealloc allocate pbuf and
  20:Middlewares/Third_Party/LwIP/src/core/tcp_out.c ****  *     segment for these functions
  21:Middlewares/Third_Party/LwIP/src/core/tcp_out.c ****  * - direct send: these segments don't contain data but control the connection
  22:Middlewares/Third_Party/LwIP/src/core/tcp_out.c ****  *   behaviour. They are created as pbuf only and sent directly without
  23:Middlewares/Third_Party/LwIP/src/core/tcp_out.c ****  *   enqueueing them:
  24:Middlewares/Third_Party/LwIP/src/core/tcp_out.c ****  *   - @ref tcp_send_empty_ack sends an ACK-only segment
  25:Middlewares/Third_Party/LwIP/src/core/tcp_out.c ****  *   - @ref tcp_rst sends a RST segment
  26:Middlewares/Third_Party/LwIP/src/core/tcp_out.c ****  *   - @ref tcp_keepalive sends a keepalive segment
  27:Middlewares/Third_Party/LwIP/src/core/tcp_out.c ****  *   - @ref tcp_zero_window_probe sends a window probe segment
  28:Middlewares/Third_Party/LwIP/src/core/tcp_out.c ****  *   - tcp_output_alloc_header allocates a header-only pbuf for these functions
  29:Middlewares/Third_Party/LwIP/src/core/tcp_out.c ****  */
  30:Middlewares/Third_Party/LwIP/src/core/tcp_out.c **** 
  31:Middlewares/Third_Party/LwIP/src/core/tcp_out.c **** /*
  32:Middlewares/Third_Party/LwIP/src/core/tcp_out.c ****  * Copyright (c) 2001-2004 Swedish Institute of Computer Science.
  33:Middlewares/Third_Party/LwIP/src/core/tcp_out.c ****  * All rights reserved.
ARM GAS  /tmp/ccMjT2X9.s 			page 2


  34:Middlewares/Third_Party/LwIP/src/core/tcp_out.c ****  *
  35:Middlewares/Third_Party/LwIP/src/core/tcp_out.c ****  * Redistribution and use in source and binary forms, with or without modification,
  36:Middlewares/Third_Party/LwIP/src/core/tcp_out.c ****  * are permitted provided that the following conditions are met:
  37:Middlewares/Third_Party/LwIP/src/core/tcp_out.c ****  *
  38:Middlewares/Third_Party/LwIP/src/core/tcp_out.c ****  * 1. Redistributions of source code must retain the above copyright notice,
  39:Middlewares/Third_Party/LwIP/src/core/tcp_out.c ****  *    this list of conditions and the following disclaimer.
  40:Middlewares/Third_Party/LwIP/src/core/tcp_out.c ****  * 2. Redistributions in binary form must reproduce the above copyright notice,
  41:Middlewares/Third_Party/LwIP/src/core/tcp_out.c ****  *    this list of conditions and the following disclaimer in the documentation
  42:Middlewares/Third_Party/LwIP/src/core/tcp_out.c ****  *    and/or other materials provided with the distribution.
  43:Middlewares/Third_Party/LwIP/src/core/tcp_out.c ****  * 3. The name of the author may not be used to endorse or promote products
  44:Middlewares/Third_Party/LwIP/src/core/tcp_out.c ****  *    derived from this software without specific prior written permission.
  45:Middlewares/Third_Party/LwIP/src/core/tcp_out.c ****  *
  46:Middlewares/Third_Party/LwIP/src/core/tcp_out.c ****  * THIS SOFTWARE IS PROVIDED BY THE AUTHOR ``AS IS'' AND ANY EXPRESS OR IMPLIED
  47:Middlewares/Third_Party/LwIP/src/core/tcp_out.c ****  * WARRANTIES, INCLUDING, BUT NOT LIMITED TO, THE IMPLIED WARRANTIES OF
  48:Middlewares/Third_Party/LwIP/src/core/tcp_out.c ****  * MERCHANTABILITY AND FITNESS FOR A PARTICULAR PURPOSE ARE DISCLAIMED. IN NO EVENT
  49:Middlewares/Third_Party/LwIP/src/core/tcp_out.c ****  * SHALL THE AUTHOR BE LIABLE FOR ANY DIRECT, INDIRECT, INCIDENTAL, SPECIAL,
  50:Middlewares/Third_Party/LwIP/src/core/tcp_out.c ****  * EXEMPLARY, OR CONSEQUENTIAL DAMAGES (INCLUDING, BUT NOT LIMITED TO, PROCUREMENT
  51:Middlewares/Third_Party/LwIP/src/core/tcp_out.c ****  * OF SUBSTITUTE GOODS OR SERVICES; LOSS OF USE, DATA, OR PROFITS; OR BUSINESS
  52:Middlewares/Third_Party/LwIP/src/core/tcp_out.c ****  * INTERRUPTION) HOWEVER CAUSED AND ON ANY THEORY OF LIABILITY, WHETHER IN
  53:Middlewares/Third_Party/LwIP/src/core/tcp_out.c ****  * CONTRACT, STRICT LIABILITY, OR TORT (INCLUDING NEGLIGENCE OR OTHERWISE) ARISING
  54:Middlewares/Third_Party/LwIP/src/core/tcp_out.c ****  * IN ANY WAY OUT OF THE USE OF THIS SOFTWARE, EVEN IF ADVISED OF THE POSSIBILITY
  55:Middlewares/Third_Party/LwIP/src/core/tcp_out.c ****  * OF SUCH DAMAGE.
  56:Middlewares/Third_Party/LwIP/src/core/tcp_out.c ****  *
  57:Middlewares/Third_Party/LwIP/src/core/tcp_out.c ****  * This file is part of the lwIP TCP/IP stack.
  58:Middlewares/Third_Party/LwIP/src/core/tcp_out.c ****  *
  59:Middlewares/Third_Party/LwIP/src/core/tcp_out.c ****  * Author: Adam Dunkels <adam@sics.se>
  60:Middlewares/Third_Party/LwIP/src/core/tcp_out.c ****  *
  61:Middlewares/Third_Party/LwIP/src/core/tcp_out.c ****  */
  62:Middlewares/Third_Party/LwIP/src/core/tcp_out.c **** 
  63:Middlewares/Third_Party/LwIP/src/core/tcp_out.c **** #include "lwip/opt.h"
  64:Middlewares/Third_Party/LwIP/src/core/tcp_out.c **** 
  65:Middlewares/Third_Party/LwIP/src/core/tcp_out.c **** #if LWIP_TCP /* don't build if not configured for use in lwipopts.h */
  66:Middlewares/Third_Party/LwIP/src/core/tcp_out.c **** 
  67:Middlewares/Third_Party/LwIP/src/core/tcp_out.c **** #include "lwip/priv/tcp_priv.h"
  68:Middlewares/Third_Party/LwIP/src/core/tcp_out.c **** #include "lwip/def.h"
  69:Middlewares/Third_Party/LwIP/src/core/tcp_out.c **** #include "lwip/mem.h"
  70:Middlewares/Third_Party/LwIP/src/core/tcp_out.c **** #include "lwip/memp.h"
  71:Middlewares/Third_Party/LwIP/src/core/tcp_out.c **** #include "lwip/ip_addr.h"
  72:Middlewares/Third_Party/LwIP/src/core/tcp_out.c **** #include "lwip/netif.h"
  73:Middlewares/Third_Party/LwIP/src/core/tcp_out.c **** #include "lwip/inet_chksum.h"
  74:Middlewares/Third_Party/LwIP/src/core/tcp_out.c **** #include "lwip/stats.h"
  75:Middlewares/Third_Party/LwIP/src/core/tcp_out.c **** #include "lwip/ip6.h"
  76:Middlewares/Third_Party/LwIP/src/core/tcp_out.c **** #include "lwip/ip6_addr.h"
  77:Middlewares/Third_Party/LwIP/src/core/tcp_out.c **** #if LWIP_TCP_TIMESTAMPS
  78:Middlewares/Third_Party/LwIP/src/core/tcp_out.c **** #include "lwip/sys.h"
  79:Middlewares/Third_Party/LwIP/src/core/tcp_out.c **** #endif
  80:Middlewares/Third_Party/LwIP/src/core/tcp_out.c **** 
  81:Middlewares/Third_Party/LwIP/src/core/tcp_out.c **** #include <string.h>
  82:Middlewares/Third_Party/LwIP/src/core/tcp_out.c **** 
  83:Middlewares/Third_Party/LwIP/src/core/tcp_out.c **** #ifdef LWIP_HOOK_FILENAME
  84:Middlewares/Third_Party/LwIP/src/core/tcp_out.c **** #include LWIP_HOOK_FILENAME
  85:Middlewares/Third_Party/LwIP/src/core/tcp_out.c **** #endif
  86:Middlewares/Third_Party/LwIP/src/core/tcp_out.c **** 
  87:Middlewares/Third_Party/LwIP/src/core/tcp_out.c **** /* Allow to add custom TCP header options by defining this hook */
  88:Middlewares/Third_Party/LwIP/src/core/tcp_out.c **** #ifdef LWIP_HOOK_TCP_OUT_TCPOPT_LENGTH
  89:Middlewares/Third_Party/LwIP/src/core/tcp_out.c **** #define LWIP_TCP_OPT_LENGTH_SEGMENT(flags, pcb) LWIP_HOOK_TCP_OUT_TCPOPT_LENGTH(pcb, LWIP_TCP_OPT_L
  90:Middlewares/Third_Party/LwIP/src/core/tcp_out.c **** #else
ARM GAS  /tmp/ccMjT2X9.s 			page 3


  91:Middlewares/Third_Party/LwIP/src/core/tcp_out.c **** #define LWIP_TCP_OPT_LENGTH_SEGMENT(flags, pcb) LWIP_TCP_OPT_LENGTH(flags)
  92:Middlewares/Third_Party/LwIP/src/core/tcp_out.c **** #endif
  93:Middlewares/Third_Party/LwIP/src/core/tcp_out.c **** 
  94:Middlewares/Third_Party/LwIP/src/core/tcp_out.c **** /* Define some copy-macros for checksum-on-copy so that the code looks
  95:Middlewares/Third_Party/LwIP/src/core/tcp_out.c ****    nicer by preventing too many ifdef's. */
  96:Middlewares/Third_Party/LwIP/src/core/tcp_out.c **** #if TCP_CHECKSUM_ON_COPY
  97:Middlewares/Third_Party/LwIP/src/core/tcp_out.c **** #define TCP_DATA_COPY(dst, src, len, seg) do { \
  98:Middlewares/Third_Party/LwIP/src/core/tcp_out.c ****   tcp_seg_add_chksum(LWIP_CHKSUM_COPY(dst, src, len), \
  99:Middlewares/Third_Party/LwIP/src/core/tcp_out.c ****                      len, &seg->chksum, &seg->chksum_swapped); \
 100:Middlewares/Third_Party/LwIP/src/core/tcp_out.c ****   seg->flags |= TF_SEG_DATA_CHECKSUMMED; } while(0)
 101:Middlewares/Third_Party/LwIP/src/core/tcp_out.c **** #define TCP_DATA_COPY2(dst, src, len, chksum, chksum_swapped)  \
 102:Middlewares/Third_Party/LwIP/src/core/tcp_out.c ****   tcp_seg_add_chksum(LWIP_CHKSUM_COPY(dst, src, len), len, chksum, chksum_swapped);
 103:Middlewares/Third_Party/LwIP/src/core/tcp_out.c **** #else /* TCP_CHECKSUM_ON_COPY*/
 104:Middlewares/Third_Party/LwIP/src/core/tcp_out.c **** #define TCP_DATA_COPY(dst, src, len, seg)                     MEMCPY(dst, src, len)
 105:Middlewares/Third_Party/LwIP/src/core/tcp_out.c **** #define TCP_DATA_COPY2(dst, src, len, chksum, chksum_swapped) MEMCPY(dst, src, len)
 106:Middlewares/Third_Party/LwIP/src/core/tcp_out.c **** #endif /* TCP_CHECKSUM_ON_COPY*/
 107:Middlewares/Third_Party/LwIP/src/core/tcp_out.c **** 
 108:Middlewares/Third_Party/LwIP/src/core/tcp_out.c **** /** Define this to 1 for an extra check that the output checksum is valid
 109:Middlewares/Third_Party/LwIP/src/core/tcp_out.c ****  * (usefule when the checksum is generated by the application, not the stack) */
 110:Middlewares/Third_Party/LwIP/src/core/tcp_out.c **** #ifndef TCP_CHECKSUM_ON_COPY_SANITY_CHECK
 111:Middlewares/Third_Party/LwIP/src/core/tcp_out.c **** #define TCP_CHECKSUM_ON_COPY_SANITY_CHECK   0
 112:Middlewares/Third_Party/LwIP/src/core/tcp_out.c **** #endif
 113:Middlewares/Third_Party/LwIP/src/core/tcp_out.c **** /* Allow to override the failure of sanity check from warning to e.g. hard failure */
 114:Middlewares/Third_Party/LwIP/src/core/tcp_out.c **** #if TCP_CHECKSUM_ON_COPY_SANITY_CHECK
 115:Middlewares/Third_Party/LwIP/src/core/tcp_out.c **** #ifndef TCP_CHECKSUM_ON_COPY_SANITY_CHECK_FAIL
 116:Middlewares/Third_Party/LwIP/src/core/tcp_out.c **** #define TCP_CHECKSUM_ON_COPY_SANITY_CHECK_FAIL(msg) LWIP_DEBUGF(TCP_DEBUG | LWIP_DBG_LEVEL_WARNING,
 117:Middlewares/Third_Party/LwIP/src/core/tcp_out.c **** #endif
 118:Middlewares/Third_Party/LwIP/src/core/tcp_out.c **** #endif
 119:Middlewares/Third_Party/LwIP/src/core/tcp_out.c **** 
 120:Middlewares/Third_Party/LwIP/src/core/tcp_out.c **** #if TCP_OVERSIZE
 121:Middlewares/Third_Party/LwIP/src/core/tcp_out.c **** /** The size of segment pbufs created when TCP_OVERSIZE is enabled */
 122:Middlewares/Third_Party/LwIP/src/core/tcp_out.c **** #ifndef TCP_OVERSIZE_CALC_LENGTH
 123:Middlewares/Third_Party/LwIP/src/core/tcp_out.c **** #define TCP_OVERSIZE_CALC_LENGTH(length) ((length) + TCP_OVERSIZE)
 124:Middlewares/Third_Party/LwIP/src/core/tcp_out.c **** #endif
 125:Middlewares/Third_Party/LwIP/src/core/tcp_out.c **** #endif
 126:Middlewares/Third_Party/LwIP/src/core/tcp_out.c **** 
 127:Middlewares/Third_Party/LwIP/src/core/tcp_out.c **** /* Forward declarations.*/
 128:Middlewares/Third_Party/LwIP/src/core/tcp_out.c **** static err_t tcp_output_segment(struct tcp_seg *seg, struct tcp_pcb *pcb, struct netif *netif);
 129:Middlewares/Third_Party/LwIP/src/core/tcp_out.c **** 
 130:Middlewares/Third_Party/LwIP/src/core/tcp_out.c **** /* tcp_route: common code that returns a fixed bound netif or calls ip_route */
 131:Middlewares/Third_Party/LwIP/src/core/tcp_out.c **** static struct netif *
 132:Middlewares/Third_Party/LwIP/src/core/tcp_out.c **** tcp_route(const struct tcp_pcb *pcb, const ip_addr_t *src, const ip_addr_t *dst)
 133:Middlewares/Third_Party/LwIP/src/core/tcp_out.c **** {
 134:Middlewares/Third_Party/LwIP/src/core/tcp_out.c ****   LWIP_UNUSED_ARG(src); /* in case IPv4-only and source-based routing is disabled */
 135:Middlewares/Third_Party/LwIP/src/core/tcp_out.c **** 
 136:Middlewares/Third_Party/LwIP/src/core/tcp_out.c ****   if ((pcb != NULL) && (pcb->netif_idx != NETIF_NO_INDEX)) {
 137:Middlewares/Third_Party/LwIP/src/core/tcp_out.c ****     return netif_get_by_index(pcb->netif_idx);
 138:Middlewares/Third_Party/LwIP/src/core/tcp_out.c ****   } else {
 139:Middlewares/Third_Party/LwIP/src/core/tcp_out.c ****     return ip_route(src, dst);
 140:Middlewares/Third_Party/LwIP/src/core/tcp_out.c ****   }
 141:Middlewares/Third_Party/LwIP/src/core/tcp_out.c **** }
 142:Middlewares/Third_Party/LwIP/src/core/tcp_out.c **** 
 143:Middlewares/Third_Party/LwIP/src/core/tcp_out.c **** /**
 144:Middlewares/Third_Party/LwIP/src/core/tcp_out.c ****  * Create a TCP segment with prefilled header.
 145:Middlewares/Third_Party/LwIP/src/core/tcp_out.c ****  *
 146:Middlewares/Third_Party/LwIP/src/core/tcp_out.c ****  * Called by @ref tcp_write, @ref tcp_enqueue_flags and @ref tcp_split_unsent_seg
 147:Middlewares/Third_Party/LwIP/src/core/tcp_out.c ****  *
ARM GAS  /tmp/ccMjT2X9.s 			page 4


 148:Middlewares/Third_Party/LwIP/src/core/tcp_out.c ****  * @param pcb Protocol control block for the TCP connection.
 149:Middlewares/Third_Party/LwIP/src/core/tcp_out.c ****  * @param p pbuf that is used to hold the TCP header.
 150:Middlewares/Third_Party/LwIP/src/core/tcp_out.c ****  * @param hdrflags TCP flags for header.
 151:Middlewares/Third_Party/LwIP/src/core/tcp_out.c ****  * @param seqno TCP sequence number of this packet
 152:Middlewares/Third_Party/LwIP/src/core/tcp_out.c ****  * @param optflags options to include in TCP header
 153:Middlewares/Third_Party/LwIP/src/core/tcp_out.c ****  * @return a new tcp_seg pointing to p, or NULL.
 154:Middlewares/Third_Party/LwIP/src/core/tcp_out.c ****  * The TCP header is filled in except ackno and wnd.
 155:Middlewares/Third_Party/LwIP/src/core/tcp_out.c ****  * p is freed on failure.
 156:Middlewares/Third_Party/LwIP/src/core/tcp_out.c ****  */
 157:Middlewares/Third_Party/LwIP/src/core/tcp_out.c **** static struct tcp_seg *
 158:Middlewares/Third_Party/LwIP/src/core/tcp_out.c **** tcp_create_segment(const struct tcp_pcb *pcb, struct pbuf *p, u8_t hdrflags, u32_t seqno, u8_t optf
 159:Middlewares/Third_Party/LwIP/src/core/tcp_out.c **** {
 160:Middlewares/Third_Party/LwIP/src/core/tcp_out.c ****   struct tcp_seg *seg;
 161:Middlewares/Third_Party/LwIP/src/core/tcp_out.c ****   u8_t optlen;
 162:Middlewares/Third_Party/LwIP/src/core/tcp_out.c **** 
 163:Middlewares/Third_Party/LwIP/src/core/tcp_out.c ****   LWIP_ASSERT("tcp_create_segment: invalid pcb", pcb != NULL);
 164:Middlewares/Third_Party/LwIP/src/core/tcp_out.c ****   LWIP_ASSERT("tcp_create_segment: invalid pbuf", p != NULL);
 165:Middlewares/Third_Party/LwIP/src/core/tcp_out.c **** 
 166:Middlewares/Third_Party/LwIP/src/core/tcp_out.c ****   optlen = LWIP_TCP_OPT_LENGTH_SEGMENT(optflags, pcb);
 167:Middlewares/Third_Party/LwIP/src/core/tcp_out.c **** 
 168:Middlewares/Third_Party/LwIP/src/core/tcp_out.c ****   if ((seg = (struct tcp_seg *)memp_malloc(MEMP_TCP_SEG)) == NULL) {
 169:Middlewares/Third_Party/LwIP/src/core/tcp_out.c ****     LWIP_DEBUGF(TCP_OUTPUT_DEBUG | LWIP_DBG_LEVEL_SERIOUS, ("tcp_create_segment: no memory.\n"));
 170:Middlewares/Third_Party/LwIP/src/core/tcp_out.c ****     pbuf_free(p);
 171:Middlewares/Third_Party/LwIP/src/core/tcp_out.c ****     return NULL;
 172:Middlewares/Third_Party/LwIP/src/core/tcp_out.c ****   }
 173:Middlewares/Third_Party/LwIP/src/core/tcp_out.c ****   seg->flags = optflags;
 174:Middlewares/Third_Party/LwIP/src/core/tcp_out.c ****   seg->next = NULL;
 175:Middlewares/Third_Party/LwIP/src/core/tcp_out.c ****   seg->p = p;
 176:Middlewares/Third_Party/LwIP/src/core/tcp_out.c ****   LWIP_ASSERT("p->tot_len >= optlen", p->tot_len >= optlen);
 177:Middlewares/Third_Party/LwIP/src/core/tcp_out.c ****   seg->len = p->tot_len - optlen;
 178:Middlewares/Third_Party/LwIP/src/core/tcp_out.c **** #if TCP_OVERSIZE_DBGCHECK
 179:Middlewares/Third_Party/LwIP/src/core/tcp_out.c ****   seg->oversize_left = 0;
 180:Middlewares/Third_Party/LwIP/src/core/tcp_out.c **** #endif /* TCP_OVERSIZE_DBGCHECK */
 181:Middlewares/Third_Party/LwIP/src/core/tcp_out.c **** #if TCP_CHECKSUM_ON_COPY
 182:Middlewares/Third_Party/LwIP/src/core/tcp_out.c ****   seg->chksum = 0;
 183:Middlewares/Third_Party/LwIP/src/core/tcp_out.c ****   seg->chksum_swapped = 0;
 184:Middlewares/Third_Party/LwIP/src/core/tcp_out.c ****   /* check optflags */
 185:Middlewares/Third_Party/LwIP/src/core/tcp_out.c ****   LWIP_ASSERT("invalid optflags passed: TF_SEG_DATA_CHECKSUMMED",
 186:Middlewares/Third_Party/LwIP/src/core/tcp_out.c ****               (optflags & TF_SEG_DATA_CHECKSUMMED) == 0);
 187:Middlewares/Third_Party/LwIP/src/core/tcp_out.c **** #endif /* TCP_CHECKSUM_ON_COPY */
 188:Middlewares/Third_Party/LwIP/src/core/tcp_out.c **** 
 189:Middlewares/Third_Party/LwIP/src/core/tcp_out.c ****   /* build TCP header */
 190:Middlewares/Third_Party/LwIP/src/core/tcp_out.c ****   if (pbuf_add_header(p, TCP_HLEN)) {
 191:Middlewares/Third_Party/LwIP/src/core/tcp_out.c ****     LWIP_DEBUGF(TCP_OUTPUT_DEBUG | LWIP_DBG_LEVEL_SERIOUS, ("tcp_create_segment: no room for TCP he
 192:Middlewares/Third_Party/LwIP/src/core/tcp_out.c ****     TCP_STATS_INC(tcp.err);
 193:Middlewares/Third_Party/LwIP/src/core/tcp_out.c ****     tcp_seg_free(seg);
 194:Middlewares/Third_Party/LwIP/src/core/tcp_out.c ****     return NULL;
 195:Middlewares/Third_Party/LwIP/src/core/tcp_out.c ****   }
 196:Middlewares/Third_Party/LwIP/src/core/tcp_out.c ****   seg->tcphdr = (struct tcp_hdr *)seg->p->payload;
 197:Middlewares/Third_Party/LwIP/src/core/tcp_out.c ****   seg->tcphdr->src = lwip_htons(pcb->local_port);
 198:Middlewares/Third_Party/LwIP/src/core/tcp_out.c ****   seg->tcphdr->dest = lwip_htons(pcb->remote_port);
 199:Middlewares/Third_Party/LwIP/src/core/tcp_out.c ****   seg->tcphdr->seqno = lwip_htonl(seqno);
 200:Middlewares/Third_Party/LwIP/src/core/tcp_out.c ****   /* ackno is set in tcp_output */
 201:Middlewares/Third_Party/LwIP/src/core/tcp_out.c ****   TCPH_HDRLEN_FLAGS_SET(seg->tcphdr, (5 + optlen / 4), hdrflags);
 202:Middlewares/Third_Party/LwIP/src/core/tcp_out.c ****   /* wnd and chksum are set in tcp_output */
 203:Middlewares/Third_Party/LwIP/src/core/tcp_out.c ****   seg->tcphdr->urgp = 0;
 204:Middlewares/Third_Party/LwIP/src/core/tcp_out.c ****   return seg;
ARM GAS  /tmp/ccMjT2X9.s 			page 5


 205:Middlewares/Third_Party/LwIP/src/core/tcp_out.c **** }
 206:Middlewares/Third_Party/LwIP/src/core/tcp_out.c **** 
 207:Middlewares/Third_Party/LwIP/src/core/tcp_out.c **** /**
 208:Middlewares/Third_Party/LwIP/src/core/tcp_out.c ****  * Allocate a PBUF_RAM pbuf, perhaps with extra space at the end.
 209:Middlewares/Third_Party/LwIP/src/core/tcp_out.c ****  *
 210:Middlewares/Third_Party/LwIP/src/core/tcp_out.c ****  * This function is like pbuf_alloc(layer, length, PBUF_RAM) except
 211:Middlewares/Third_Party/LwIP/src/core/tcp_out.c ****  * there may be extra bytes available at the end.
 212:Middlewares/Third_Party/LwIP/src/core/tcp_out.c ****  *
 213:Middlewares/Third_Party/LwIP/src/core/tcp_out.c ****  * Called by @ref tcp_write
 214:Middlewares/Third_Party/LwIP/src/core/tcp_out.c ****  *
 215:Middlewares/Third_Party/LwIP/src/core/tcp_out.c ****  * @param layer flag to define header size.
 216:Middlewares/Third_Party/LwIP/src/core/tcp_out.c ****  * @param length size of the pbuf's payload.
 217:Middlewares/Third_Party/LwIP/src/core/tcp_out.c ****  * @param max_length maximum usable size of payload+oversize.
 218:Middlewares/Third_Party/LwIP/src/core/tcp_out.c ****  * @param oversize pointer to a u16_t that will receive the number of usable tail bytes.
 219:Middlewares/Third_Party/LwIP/src/core/tcp_out.c ****  * @param pcb The TCP connection that will enqueue the pbuf.
 220:Middlewares/Third_Party/LwIP/src/core/tcp_out.c ****  * @param apiflags API flags given to tcp_write.
 221:Middlewares/Third_Party/LwIP/src/core/tcp_out.c ****  * @param first_seg true when this pbuf will be used in the first enqueued segment.
 222:Middlewares/Third_Party/LwIP/src/core/tcp_out.c ****  */
 223:Middlewares/Third_Party/LwIP/src/core/tcp_out.c **** #if TCP_OVERSIZE
 224:Middlewares/Third_Party/LwIP/src/core/tcp_out.c **** static struct pbuf *
 225:Middlewares/Third_Party/LwIP/src/core/tcp_out.c **** tcp_pbuf_prealloc(pbuf_layer layer, u16_t length, u16_t max_length,
 226:Middlewares/Third_Party/LwIP/src/core/tcp_out.c ****                   u16_t *oversize, const struct tcp_pcb *pcb, u8_t apiflags,
 227:Middlewares/Third_Party/LwIP/src/core/tcp_out.c ****                   u8_t first_seg)
 228:Middlewares/Third_Party/LwIP/src/core/tcp_out.c **** {
 229:Middlewares/Third_Party/LwIP/src/core/tcp_out.c ****   struct pbuf *p;
 230:Middlewares/Third_Party/LwIP/src/core/tcp_out.c ****   u16_t alloc = length;
 231:Middlewares/Third_Party/LwIP/src/core/tcp_out.c **** 
 232:Middlewares/Third_Party/LwIP/src/core/tcp_out.c ****   LWIP_ASSERT("tcp_pbuf_prealloc: invalid oversize", oversize != NULL);
 233:Middlewares/Third_Party/LwIP/src/core/tcp_out.c ****   LWIP_ASSERT("tcp_pbuf_prealloc: invalid pcb", pcb != NULL);
 234:Middlewares/Third_Party/LwIP/src/core/tcp_out.c **** 
 235:Middlewares/Third_Party/LwIP/src/core/tcp_out.c **** #if LWIP_NETIF_TX_SINGLE_PBUF
 236:Middlewares/Third_Party/LwIP/src/core/tcp_out.c ****   LWIP_UNUSED_ARG(max_length);
 237:Middlewares/Third_Party/LwIP/src/core/tcp_out.c ****   LWIP_UNUSED_ARG(pcb);
 238:Middlewares/Third_Party/LwIP/src/core/tcp_out.c ****   LWIP_UNUSED_ARG(apiflags);
 239:Middlewares/Third_Party/LwIP/src/core/tcp_out.c ****   LWIP_UNUSED_ARG(first_seg);
 240:Middlewares/Third_Party/LwIP/src/core/tcp_out.c ****   alloc = max_length;
 241:Middlewares/Third_Party/LwIP/src/core/tcp_out.c **** #else /* LWIP_NETIF_TX_SINGLE_PBUF */
 242:Middlewares/Third_Party/LwIP/src/core/tcp_out.c ****   if (length < max_length) {
 243:Middlewares/Third_Party/LwIP/src/core/tcp_out.c ****     /* Should we allocate an oversized pbuf, or just the minimum
 244:Middlewares/Third_Party/LwIP/src/core/tcp_out.c ****      * length required? If tcp_write is going to be called again
 245:Middlewares/Third_Party/LwIP/src/core/tcp_out.c ****      * before this segment is transmitted, we want the oversized
 246:Middlewares/Third_Party/LwIP/src/core/tcp_out.c ****      * buffer. If the segment will be transmitted immediately, we can
 247:Middlewares/Third_Party/LwIP/src/core/tcp_out.c ****      * save memory by allocating only length. We use a simple
 248:Middlewares/Third_Party/LwIP/src/core/tcp_out.c ****      * heuristic based on the following information:
 249:Middlewares/Third_Party/LwIP/src/core/tcp_out.c ****      *
 250:Middlewares/Third_Party/LwIP/src/core/tcp_out.c ****      * Did the user set TCP_WRITE_FLAG_MORE?
 251:Middlewares/Third_Party/LwIP/src/core/tcp_out.c ****      *
 252:Middlewares/Third_Party/LwIP/src/core/tcp_out.c ****      * Will the Nagle algorithm defer transmission of this segment?
 253:Middlewares/Third_Party/LwIP/src/core/tcp_out.c ****      */
 254:Middlewares/Third_Party/LwIP/src/core/tcp_out.c ****     if ((apiflags & TCP_WRITE_FLAG_MORE) ||
 255:Middlewares/Third_Party/LwIP/src/core/tcp_out.c ****         (!(pcb->flags & TF_NODELAY) &&
 256:Middlewares/Third_Party/LwIP/src/core/tcp_out.c ****          (!first_seg ||
 257:Middlewares/Third_Party/LwIP/src/core/tcp_out.c ****           pcb->unsent != NULL ||
 258:Middlewares/Third_Party/LwIP/src/core/tcp_out.c ****           pcb->unacked != NULL))) {
 259:Middlewares/Third_Party/LwIP/src/core/tcp_out.c ****       alloc = LWIP_MIN(max_length, LWIP_MEM_ALIGN_SIZE(TCP_OVERSIZE_CALC_LENGTH(length)));
 260:Middlewares/Third_Party/LwIP/src/core/tcp_out.c ****     }
 261:Middlewares/Third_Party/LwIP/src/core/tcp_out.c ****   }
ARM GAS  /tmp/ccMjT2X9.s 			page 6


 262:Middlewares/Third_Party/LwIP/src/core/tcp_out.c **** #endif /* LWIP_NETIF_TX_SINGLE_PBUF */
 263:Middlewares/Third_Party/LwIP/src/core/tcp_out.c ****   p = pbuf_alloc(layer, alloc, PBUF_RAM);
 264:Middlewares/Third_Party/LwIP/src/core/tcp_out.c ****   if (p == NULL) {
 265:Middlewares/Third_Party/LwIP/src/core/tcp_out.c ****     return NULL;
 266:Middlewares/Third_Party/LwIP/src/core/tcp_out.c ****   }
 267:Middlewares/Third_Party/LwIP/src/core/tcp_out.c ****   LWIP_ASSERT("need unchained pbuf", p->next == NULL);
 268:Middlewares/Third_Party/LwIP/src/core/tcp_out.c ****   *oversize = p->len - length;
 269:Middlewares/Third_Party/LwIP/src/core/tcp_out.c ****   /* trim p->len to the currently used size */
 270:Middlewares/Third_Party/LwIP/src/core/tcp_out.c ****   p->len = p->tot_len = length;
 271:Middlewares/Third_Party/LwIP/src/core/tcp_out.c ****   return p;
 272:Middlewares/Third_Party/LwIP/src/core/tcp_out.c **** }
 273:Middlewares/Third_Party/LwIP/src/core/tcp_out.c **** #else /* TCP_OVERSIZE */
 274:Middlewares/Third_Party/LwIP/src/core/tcp_out.c **** #define tcp_pbuf_prealloc(layer, length, mx, os, pcb, api, fst) pbuf_alloc((layer), (length), PBUF_
 275:Middlewares/Third_Party/LwIP/src/core/tcp_out.c **** #endif /* TCP_OVERSIZE */
 276:Middlewares/Third_Party/LwIP/src/core/tcp_out.c **** 
 277:Middlewares/Third_Party/LwIP/src/core/tcp_out.c **** #if TCP_CHECKSUM_ON_COPY
 278:Middlewares/Third_Party/LwIP/src/core/tcp_out.c **** /** Add a checksum of newly added data to the segment.
 279:Middlewares/Third_Party/LwIP/src/core/tcp_out.c ****  *
 280:Middlewares/Third_Party/LwIP/src/core/tcp_out.c ****  * Called by tcp_write and tcp_split_unsent_seg.
 281:Middlewares/Third_Party/LwIP/src/core/tcp_out.c ****  */
 282:Middlewares/Third_Party/LwIP/src/core/tcp_out.c **** static void
 283:Middlewares/Third_Party/LwIP/src/core/tcp_out.c **** tcp_seg_add_chksum(u16_t chksum, u16_t len, u16_t *seg_chksum,
 284:Middlewares/Third_Party/LwIP/src/core/tcp_out.c ****                    u8_t *seg_chksum_swapped)
 285:Middlewares/Third_Party/LwIP/src/core/tcp_out.c **** {
 286:Middlewares/Third_Party/LwIP/src/core/tcp_out.c ****   u32_t helper;
 287:Middlewares/Third_Party/LwIP/src/core/tcp_out.c ****   /* add chksum to old chksum and fold to u16_t */
 288:Middlewares/Third_Party/LwIP/src/core/tcp_out.c ****   helper = chksum + *seg_chksum;
 289:Middlewares/Third_Party/LwIP/src/core/tcp_out.c ****   chksum = FOLD_U32T(helper);
 290:Middlewares/Third_Party/LwIP/src/core/tcp_out.c ****   if ((len & 1) != 0) {
 291:Middlewares/Third_Party/LwIP/src/core/tcp_out.c ****     *seg_chksum_swapped = 1 - *seg_chksum_swapped;
 292:Middlewares/Third_Party/LwIP/src/core/tcp_out.c ****     chksum = SWAP_BYTES_IN_WORD(chksum);
 293:Middlewares/Third_Party/LwIP/src/core/tcp_out.c ****   }
 294:Middlewares/Third_Party/LwIP/src/core/tcp_out.c ****   *seg_chksum = chksum;
 295:Middlewares/Third_Party/LwIP/src/core/tcp_out.c **** }
 296:Middlewares/Third_Party/LwIP/src/core/tcp_out.c **** #endif /* TCP_CHECKSUM_ON_COPY */
 297:Middlewares/Third_Party/LwIP/src/core/tcp_out.c **** 
 298:Middlewares/Third_Party/LwIP/src/core/tcp_out.c **** /** Checks if tcp_write is allowed or not (checks state, snd_buf and snd_queuelen).
 299:Middlewares/Third_Party/LwIP/src/core/tcp_out.c ****  *
 300:Middlewares/Third_Party/LwIP/src/core/tcp_out.c ****  * @param pcb the tcp pcb to check for
 301:Middlewares/Third_Party/LwIP/src/core/tcp_out.c ****  * @param len length of data to send (checked agains snd_buf)
 302:Middlewares/Third_Party/LwIP/src/core/tcp_out.c ****  * @return ERR_OK if tcp_write is allowed to proceed, another err_t otherwise
 303:Middlewares/Third_Party/LwIP/src/core/tcp_out.c ****  */
 304:Middlewares/Third_Party/LwIP/src/core/tcp_out.c **** static err_t
 305:Middlewares/Third_Party/LwIP/src/core/tcp_out.c **** tcp_write_checks(struct tcp_pcb *pcb, u16_t len)
 306:Middlewares/Third_Party/LwIP/src/core/tcp_out.c **** {
  26              		.loc 1 306 0
  27              		.cfi_startproc
  28              		@ args = 0, pretend = 0, frame = 0
  29              		@ frame_needed = 0, uses_anonymous_args = 0
  30              	.LVL0:
  31 0000 38B5     		push	{r3, r4, r5, lr}
  32              	.LCFI0:
  33              		.cfi_def_cfa_offset 16
  34              		.cfi_offset 3, -16
  35              		.cfi_offset 4, -12
  36              		.cfi_offset 5, -8
  37              		.cfi_offset 14, -4
ARM GAS  /tmp/ccMjT2X9.s 			page 7


  38 0002 0D46     		mov	r5, r1
 307:Middlewares/Third_Party/LwIP/src/core/tcp_out.c ****   LWIP_ASSERT("tcp_write_checks: invalid pcb", pcb != NULL);
  39              		.loc 1 307 0
  40 0004 0446     		mov	r4, r0
  41 0006 B8B1     		cbz	r0, .L15
  42              	.LVL1:
  43              	.L2:
 308:Middlewares/Third_Party/LwIP/src/core/tcp_out.c **** 
 309:Middlewares/Third_Party/LwIP/src/core/tcp_out.c ****   /* connection is in invalid state for data transmission? */
 310:Middlewares/Third_Party/LwIP/src/core/tcp_out.c ****   if ((pcb->state != ESTABLISHED) &&
  44              		.loc 1 310 0
  45 0008 237D     		ldrb	r3, [r4, #20]	@ zero_extendqisi2
  46 000a 042B     		cmp	r3, #4
  47 000c 18BF     		it	ne
  48 000e 072B     		cmpne	r3, #7
  49 0010 03D0     		beq	.L3
 311:Middlewares/Third_Party/LwIP/src/core/tcp_out.c ****       (pcb->state != CLOSE_WAIT) &&
  50              		.loc 1 311 0
  51 0012 022B     		cmp	r3, #2
  52 0014 01D0     		beq	.L3
 312:Middlewares/Third_Party/LwIP/src/core/tcp_out.c ****       (pcb->state != SYN_SENT) &&
  53              		.loc 1 312 0
  54 0016 032B     		cmp	r3, #3
  55 0018 41D1     		bne	.L9
  56              	.L3:
 313:Middlewares/Third_Party/LwIP/src/core/tcp_out.c ****       (pcb->state != SYN_RCVD)) {
 314:Middlewares/Third_Party/LwIP/src/core/tcp_out.c ****     LWIP_DEBUGF(TCP_OUTPUT_DEBUG | LWIP_DBG_STATE | LWIP_DBG_LEVEL_SEVERE, ("tcp_write() called in 
 315:Middlewares/Third_Party/LwIP/src/core/tcp_out.c ****     return ERR_CONN;
 316:Middlewares/Third_Party/LwIP/src/core/tcp_out.c ****   } else if (len == 0) {
  57              		.loc 1 316 0
  58 001a 002D     		cmp	r5, #0
  59 001c 42D0     		beq	.L10
 317:Middlewares/Third_Party/LwIP/src/core/tcp_out.c ****     return ERR_OK;
 318:Middlewares/Third_Party/LwIP/src/core/tcp_out.c ****   }
 319:Middlewares/Third_Party/LwIP/src/core/tcp_out.c **** 
 320:Middlewares/Third_Party/LwIP/src/core/tcp_out.c ****   /* fail on too much data */
 321:Middlewares/Third_Party/LwIP/src/core/tcp_out.c ****   if (len > pcb->snd_buf) {
  60              		.loc 1 321 0
  61 001e B4F86430 		ldrh	r3, [r4, #100]
  62 0022 9D42     		cmp	r5, r3
  63 0024 10D8     		bhi	.L16
 322:Middlewares/Third_Party/LwIP/src/core/tcp_out.c ****     LWIP_DEBUGF(TCP_OUTPUT_DEBUG | LWIP_DBG_LEVEL_SEVERE, ("tcp_write: too much data (len=%"U16_F" 
 323:Middlewares/Third_Party/LwIP/src/core/tcp_out.c ****                 len, pcb->snd_buf));
 324:Middlewares/Third_Party/LwIP/src/core/tcp_out.c ****     tcp_set_flags(pcb, TF_NAGLEMEMERR);
 325:Middlewares/Third_Party/LwIP/src/core/tcp_out.c ****     return ERR_MEM;
 326:Middlewares/Third_Party/LwIP/src/core/tcp_out.c ****   }
 327:Middlewares/Third_Party/LwIP/src/core/tcp_out.c **** 
 328:Middlewares/Third_Party/LwIP/src/core/tcp_out.c ****   LWIP_DEBUGF(TCP_QLEN_DEBUG, ("tcp_write: queuelen: %"TCPWNDSIZE_F"\n", (tcpwnd_size_t)pcb->snd_qu
 329:Middlewares/Third_Party/LwIP/src/core/tcp_out.c **** 
 330:Middlewares/Third_Party/LwIP/src/core/tcp_out.c ****   /* If total number of pbufs on the unsent/unacked queues exceeds the
 331:Middlewares/Third_Party/LwIP/src/core/tcp_out.c ****    * configured maximum, return an error */
 332:Middlewares/Third_Party/LwIP/src/core/tcp_out.c ****   /* check for configured max queuelen and possible overflow */
 333:Middlewares/Third_Party/LwIP/src/core/tcp_out.c ****   if (pcb->snd_queuelen >= LWIP_MIN(TCP_SND_QUEUELEN, (TCP_SNDQUEUELEN_OVERFLOW + 1))) {
  64              		.loc 1 333 0
  65 0026 B4F86630 		ldrh	r3, [r4, #102]
  66 002a 082B     		cmp	r3, #8
  67 002c 13D8     		bhi	.L17
ARM GAS  /tmp/ccMjT2X9.s 			page 8


 334:Middlewares/Third_Party/LwIP/src/core/tcp_out.c ****     LWIP_DEBUGF(TCP_OUTPUT_DEBUG | LWIP_DBG_LEVEL_SEVERE, ("tcp_write: too long queue %"U16_F" (max
 335:Middlewares/Third_Party/LwIP/src/core/tcp_out.c ****                 pcb->snd_queuelen, (u16_t)TCP_SND_QUEUELEN));
 336:Middlewares/Third_Party/LwIP/src/core/tcp_out.c ****     TCP_STATS_INC(tcp.memerr);
 337:Middlewares/Third_Party/LwIP/src/core/tcp_out.c ****     tcp_set_flags(pcb, TF_NAGLEMEMERR);
 338:Middlewares/Third_Party/LwIP/src/core/tcp_out.c ****     return ERR_MEM;
 339:Middlewares/Third_Party/LwIP/src/core/tcp_out.c ****   }
 340:Middlewares/Third_Party/LwIP/src/core/tcp_out.c ****   if (pcb->snd_queuelen != 0) {
  68              		.loc 1 340 0
  69 002e 33B3     		cbz	r3, .L7
 341:Middlewares/Third_Party/LwIP/src/core/tcp_out.c ****     LWIP_ASSERT("tcp_write: pbufs on queue => at least one queue non-empty",
  70              		.loc 1 341 0
  71 0030 236F     		ldr	r3, [r4, #112]
  72 0032 BBB1     		cbz	r3, .L18
 342:Middlewares/Third_Party/LwIP/src/core/tcp_out.c ****                 pcb->unacked != NULL || pcb->unsent != NULL);
 343:Middlewares/Third_Party/LwIP/src/core/tcp_out.c ****   } else {
 344:Middlewares/Third_Party/LwIP/src/core/tcp_out.c ****     LWIP_ASSERT("tcp_write: no pbufs on queue => both queues empty",
 345:Middlewares/Third_Party/LwIP/src/core/tcp_out.c ****                 pcb->unacked == NULL && pcb->unsent == NULL);
 346:Middlewares/Third_Party/LwIP/src/core/tcp_out.c ****   }
 347:Middlewares/Third_Party/LwIP/src/core/tcp_out.c ****   return ERR_OK;
  73              		.loc 1 347 0
  74 0034 0020     		movs	r0, #0
  75 0036 38BD     		pop	{r3, r4, r5, pc}
  76              	.LVL2:
  77              	.L15:
 307:Middlewares/Third_Party/LwIP/src/core/tcp_out.c **** 
  78              		.loc 1 307 0 discriminator 1
  79 0038 1B4B     		ldr	r3, .L21
  80 003a 40F23312 		movw	r2, #307
  81 003e 1B49     		ldr	r1, .L21+4
  82              	.LVL3:
  83 0040 1B48     		ldr	r0, .L21+8
  84              	.LVL4:
  85 0042 FFF7FEFF 		bl	printf
  86              	.LVL5:
  87 0046 DFE7     		b	.L2
  88              	.L16:
 324:Middlewares/Third_Party/LwIP/src/core/tcp_out.c ****     return ERR_MEM;
  89              		.loc 1 324 0
  90 0048 638B     		ldrh	r3, [r4, #26]
  91 004a 43F08003 		orr	r3, r3, #128
  92 004e 6383     		strh	r3, [r4, #26]	@ movhi
 325:Middlewares/Third_Party/LwIP/src/core/tcp_out.c ****   }
  93              		.loc 1 325 0
  94 0050 4FF0FF30 		mov	r0, #-1
  95 0054 38BD     		pop	{r3, r4, r5, pc}
  96              	.LVL6:
  97              	.L17:
 337:Middlewares/Third_Party/LwIP/src/core/tcp_out.c ****     return ERR_MEM;
  98              		.loc 1 337 0
  99 0056 638B     		ldrh	r3, [r4, #26]
 100 0058 43F08003 		orr	r3, r3, #128
 101 005c 6383     		strh	r3, [r4, #26]	@ movhi
 338:Middlewares/Third_Party/LwIP/src/core/tcp_out.c ****   }
 102              		.loc 1 338 0
 103 005e 4FF0FF30 		mov	r0, #-1
 104 0062 38BD     		pop	{r3, r4, r5, pc}
 105              	.LVL7:
ARM GAS  /tmp/ccMjT2X9.s 			page 9


 106              	.L18:
 341:Middlewares/Third_Party/LwIP/src/core/tcp_out.c ****                 pcb->unacked != NULL || pcb->unsent != NULL);
 107              		.loc 1 341 0 discriminator 1
 108 0064 E36E     		ldr	r3, [r4, #108]
 109 0066 0BB1     		cbz	r3, .L19
 110              		.loc 1 347 0
 111 0068 0020     		movs	r0, #0
 112 006a 38BD     		pop	{r3, r4, r5, pc}
 113              	.LVL8:
 114              	.L19:
 341:Middlewares/Third_Party/LwIP/src/core/tcp_out.c ****                 pcb->unacked != NULL || pcb->unsent != NULL);
 115              		.loc 1 341 0 discriminator 2
 116 006c 0E4B     		ldr	r3, .L21
 117 006e 4FF4AB72 		mov	r2, #342
 118 0072 1049     		ldr	r1, .L21+12
 119 0074 0E48     		ldr	r0, .L21+8
 120 0076 FFF7FEFF 		bl	printf
 121              	.LVL9:
 122              		.loc 1 347 0 discriminator 2
 123 007a 0020     		movs	r0, #0
 124 007c 38BD     		pop	{r3, r4, r5, pc}
 125              	.LVL10:
 126              	.L7:
 344:Middlewares/Third_Party/LwIP/src/core/tcp_out.c ****                 pcb->unacked == NULL && pcb->unsent == NULL);
 127              		.loc 1 344 0
 128 007e 236F     		ldr	r3, [r4, #112]
 129 0080 43B1     		cbz	r3, .L20
 130              	.L8:
 344:Middlewares/Third_Party/LwIP/src/core/tcp_out.c ****                 pcb->unacked == NULL && pcb->unsent == NULL);
 131              		.loc 1 344 0 is_stmt 0 discriminator 3
 132 0082 094B     		ldr	r3, .L21
 133 0084 40F25912 		movw	r2, #345
 134 0088 0B49     		ldr	r1, .L21+16
 135 008a 0948     		ldr	r0, .L21+8
 136 008c FFF7FEFF 		bl	printf
 137              	.LVL11:
 138              		.loc 1 347 0 is_stmt 1 discriminator 3
 139 0090 0020     		movs	r0, #0
 140 0092 38BD     		pop	{r3, r4, r5, pc}
 141              	.LVL12:
 142              	.L20:
 344:Middlewares/Third_Party/LwIP/src/core/tcp_out.c ****                 pcb->unacked == NULL && pcb->unsent == NULL);
 143              		.loc 1 344 0 discriminator 2
 144 0094 E36E     		ldr	r3, [r4, #108]
 145 0096 002B     		cmp	r3, #0
 146 0098 F3D1     		bne	.L8
 147              		.loc 1 347 0
 148 009a 0020     		movs	r0, #0
 348:Middlewares/Third_Party/LwIP/src/core/tcp_out.c **** }
 149              		.loc 1 348 0
 150 009c 38BD     		pop	{r3, r4, r5, pc}
 151              	.LVL13:
 152              	.L9:
 315:Middlewares/Third_Party/LwIP/src/core/tcp_out.c ****   } else if (len == 0) {
 153              		.loc 1 315 0
 154 009e 6FF00A00 		mvn	r0, #10
 155 00a2 38BD     		pop	{r3, r4, r5, pc}
ARM GAS  /tmp/ccMjT2X9.s 			page 10


 156              	.LVL14:
 157              	.L10:
 317:Middlewares/Third_Party/LwIP/src/core/tcp_out.c ****   }
 158              		.loc 1 317 0
 159 00a4 0020     		movs	r0, #0
 160 00a6 38BD     		pop	{r3, r4, r5, pc}
 161              	.LVL15:
 162              	.L22:
 163              		.align	2
 164              	.L21:
 165 00a8 00000000 		.word	.LC0
 166 00ac 30000000 		.word	.LC1
 167 00b0 50000000 		.word	.LC2
 168 00b4 78000000 		.word	.LC3
 169 00b8 B4000000 		.word	.LC4
 170              		.cfi_endproc
 171              	.LFE161:
 173              		.section	.text.tcp_output_segment_busy,"ax",%progbits
 174              		.align	1
 175              		.syntax unified
 176              		.thumb
 177              		.thumb_func
 178              		.fpu fpv5-d16
 180              	tcp_output_segment_busy:
 181              	.LFB167:
 349:Middlewares/Third_Party/LwIP/src/core/tcp_out.c **** 
 350:Middlewares/Third_Party/LwIP/src/core/tcp_out.c **** /**
 351:Middlewares/Third_Party/LwIP/src/core/tcp_out.c ****  * @ingroup tcp_raw
 352:Middlewares/Third_Party/LwIP/src/core/tcp_out.c ****  * Write data for sending (but does not send it immediately).
 353:Middlewares/Third_Party/LwIP/src/core/tcp_out.c ****  *
 354:Middlewares/Third_Party/LwIP/src/core/tcp_out.c ****  * It waits in the expectation of more data being sent soon (as
 355:Middlewares/Third_Party/LwIP/src/core/tcp_out.c ****  * it can send them more efficiently by combining them together).
 356:Middlewares/Third_Party/LwIP/src/core/tcp_out.c ****  * To prompt the system to send data now, call tcp_output() after
 357:Middlewares/Third_Party/LwIP/src/core/tcp_out.c ****  * calling tcp_write().
 358:Middlewares/Third_Party/LwIP/src/core/tcp_out.c ****  * 
 359:Middlewares/Third_Party/LwIP/src/core/tcp_out.c ****  * This function enqueues the data pointed to by the argument dataptr. The length of
 360:Middlewares/Third_Party/LwIP/src/core/tcp_out.c ****  * the data is passed as the len parameter. The apiflags can be one or more of:
 361:Middlewares/Third_Party/LwIP/src/core/tcp_out.c ****  * - TCP_WRITE_FLAG_COPY: indicates whether the new memory should be allocated
 362:Middlewares/Third_Party/LwIP/src/core/tcp_out.c ****  *   for the data to be copied into. If this flag is not given, no new memory
 363:Middlewares/Third_Party/LwIP/src/core/tcp_out.c ****  *   should be allocated and the data should only be referenced by pointer. This
 364:Middlewares/Third_Party/LwIP/src/core/tcp_out.c ****  *   also means that the memory behind dataptr must not change until the data is
 365:Middlewares/Third_Party/LwIP/src/core/tcp_out.c ****  *   ACKed by the remote host
 366:Middlewares/Third_Party/LwIP/src/core/tcp_out.c ****  * - TCP_WRITE_FLAG_MORE: indicates that more data follows. If this is omitted,
 367:Middlewares/Third_Party/LwIP/src/core/tcp_out.c ****  *   the PSH flag is set in the last segment created by this call to tcp_write.
 368:Middlewares/Third_Party/LwIP/src/core/tcp_out.c ****  *   If this flag is given, the PSH flag is not set.
 369:Middlewares/Third_Party/LwIP/src/core/tcp_out.c ****  *
 370:Middlewares/Third_Party/LwIP/src/core/tcp_out.c ****  * The tcp_write() function will fail and return ERR_MEM if the length
 371:Middlewares/Third_Party/LwIP/src/core/tcp_out.c ****  * of the data exceeds the current send buffer size or if the length of
 372:Middlewares/Third_Party/LwIP/src/core/tcp_out.c ****  * the queue of outgoing segment is larger than the upper limit defined
 373:Middlewares/Third_Party/LwIP/src/core/tcp_out.c ****  * in lwipopts.h. The number of bytes available in the output queue can
 374:Middlewares/Third_Party/LwIP/src/core/tcp_out.c ****  * be retrieved with the tcp_sndbuf() function.
 375:Middlewares/Third_Party/LwIP/src/core/tcp_out.c ****  *
 376:Middlewares/Third_Party/LwIP/src/core/tcp_out.c ****  * The proper way to use this function is to call the function with at
 377:Middlewares/Third_Party/LwIP/src/core/tcp_out.c ****  * most tcp_sndbuf() bytes of data. If the function returns ERR_MEM,
 378:Middlewares/Third_Party/LwIP/src/core/tcp_out.c ****  * the application should wait until some of the currently enqueued
 379:Middlewares/Third_Party/LwIP/src/core/tcp_out.c ****  * data has been successfully received by the other host and try again.
 380:Middlewares/Third_Party/LwIP/src/core/tcp_out.c ****  *
ARM GAS  /tmp/ccMjT2X9.s 			page 11


 381:Middlewares/Third_Party/LwIP/src/core/tcp_out.c ****  * @param pcb Protocol control block for the TCP connection to enqueue data for.
 382:Middlewares/Third_Party/LwIP/src/core/tcp_out.c ****  * @param arg Pointer to the data to be enqueued for sending.
 383:Middlewares/Third_Party/LwIP/src/core/tcp_out.c ****  * @param len Data length in bytes
 384:Middlewares/Third_Party/LwIP/src/core/tcp_out.c ****  * @param apiflags combination of following flags :
 385:Middlewares/Third_Party/LwIP/src/core/tcp_out.c ****  * - TCP_WRITE_FLAG_COPY (0x01) data will be copied into memory belonging to the stack
 386:Middlewares/Third_Party/LwIP/src/core/tcp_out.c ****  * - TCP_WRITE_FLAG_MORE (0x02) for TCP connection, PSH flag will not be set on last segment sent,
 387:Middlewares/Third_Party/LwIP/src/core/tcp_out.c ****  * @return ERR_OK if enqueued, another err_t on error
 388:Middlewares/Third_Party/LwIP/src/core/tcp_out.c ****  */
 389:Middlewares/Third_Party/LwIP/src/core/tcp_out.c **** err_t
 390:Middlewares/Third_Party/LwIP/src/core/tcp_out.c **** tcp_write(struct tcp_pcb *pcb, const void *arg, u16_t len, u8_t apiflags)
 391:Middlewares/Third_Party/LwIP/src/core/tcp_out.c **** {
 392:Middlewares/Third_Party/LwIP/src/core/tcp_out.c ****   struct pbuf *concat_p = NULL;
 393:Middlewares/Third_Party/LwIP/src/core/tcp_out.c ****   struct tcp_seg *last_unsent = NULL, *seg = NULL, *prev_seg = NULL, *queue = NULL;
 394:Middlewares/Third_Party/LwIP/src/core/tcp_out.c ****   u16_t pos = 0; /* position in 'arg' data */
 395:Middlewares/Third_Party/LwIP/src/core/tcp_out.c ****   u16_t queuelen;
 396:Middlewares/Third_Party/LwIP/src/core/tcp_out.c ****   u8_t optlen;
 397:Middlewares/Third_Party/LwIP/src/core/tcp_out.c ****   u8_t optflags = 0;
 398:Middlewares/Third_Party/LwIP/src/core/tcp_out.c **** #if TCP_OVERSIZE
 399:Middlewares/Third_Party/LwIP/src/core/tcp_out.c ****   u16_t oversize = 0;
 400:Middlewares/Third_Party/LwIP/src/core/tcp_out.c ****   u16_t oversize_used = 0;
 401:Middlewares/Third_Party/LwIP/src/core/tcp_out.c **** #if TCP_OVERSIZE_DBGCHECK
 402:Middlewares/Third_Party/LwIP/src/core/tcp_out.c ****   u16_t oversize_add = 0;
 403:Middlewares/Third_Party/LwIP/src/core/tcp_out.c **** #endif /* TCP_OVERSIZE_DBGCHECK*/
 404:Middlewares/Third_Party/LwIP/src/core/tcp_out.c **** #endif /* TCP_OVERSIZE */
 405:Middlewares/Third_Party/LwIP/src/core/tcp_out.c ****   u16_t extendlen = 0;
 406:Middlewares/Third_Party/LwIP/src/core/tcp_out.c **** #if TCP_CHECKSUM_ON_COPY
 407:Middlewares/Third_Party/LwIP/src/core/tcp_out.c ****   u16_t concat_chksum = 0;
 408:Middlewares/Third_Party/LwIP/src/core/tcp_out.c ****   u8_t concat_chksum_swapped = 0;
 409:Middlewares/Third_Party/LwIP/src/core/tcp_out.c ****   u16_t concat_chksummed = 0;
 410:Middlewares/Third_Party/LwIP/src/core/tcp_out.c **** #endif /* TCP_CHECKSUM_ON_COPY */
 411:Middlewares/Third_Party/LwIP/src/core/tcp_out.c ****   err_t err;
 412:Middlewares/Third_Party/LwIP/src/core/tcp_out.c ****   u16_t mss_local;
 413:Middlewares/Third_Party/LwIP/src/core/tcp_out.c **** 
 414:Middlewares/Third_Party/LwIP/src/core/tcp_out.c ****   LWIP_ERROR("tcp_write: invalid pcb", pcb != NULL, return ERR_ARG);
 415:Middlewares/Third_Party/LwIP/src/core/tcp_out.c **** 
 416:Middlewares/Third_Party/LwIP/src/core/tcp_out.c ****   /* don't allocate segments bigger than half the maximum window we ever received */
 417:Middlewares/Third_Party/LwIP/src/core/tcp_out.c ****   mss_local = LWIP_MIN(pcb->mss, TCPWND_MIN16(pcb->snd_wnd_max / 2));
 418:Middlewares/Third_Party/LwIP/src/core/tcp_out.c ****   mss_local = mss_local ? mss_local : pcb->mss;
 419:Middlewares/Third_Party/LwIP/src/core/tcp_out.c **** 
 420:Middlewares/Third_Party/LwIP/src/core/tcp_out.c ****   LWIP_ASSERT_CORE_LOCKED();
 421:Middlewares/Third_Party/LwIP/src/core/tcp_out.c **** 
 422:Middlewares/Third_Party/LwIP/src/core/tcp_out.c **** #if LWIP_NETIF_TX_SINGLE_PBUF
 423:Middlewares/Third_Party/LwIP/src/core/tcp_out.c ****   /* Always copy to try to create single pbufs for TX */
 424:Middlewares/Third_Party/LwIP/src/core/tcp_out.c ****   apiflags |= TCP_WRITE_FLAG_COPY;
 425:Middlewares/Third_Party/LwIP/src/core/tcp_out.c **** #endif /* LWIP_NETIF_TX_SINGLE_PBUF */
 426:Middlewares/Third_Party/LwIP/src/core/tcp_out.c **** 
 427:Middlewares/Third_Party/LwIP/src/core/tcp_out.c ****   LWIP_DEBUGF(TCP_OUTPUT_DEBUG, ("tcp_write(pcb=%p, data=%p, len=%"U16_F", apiflags=%"U16_F")\n",
 428:Middlewares/Third_Party/LwIP/src/core/tcp_out.c ****                                  (void *)pcb, arg, len, (u16_t)apiflags));
 429:Middlewares/Third_Party/LwIP/src/core/tcp_out.c ****   LWIP_ERROR("tcp_write: arg == NULL (programmer violates API)",
 430:Middlewares/Third_Party/LwIP/src/core/tcp_out.c ****              arg != NULL, return ERR_ARG;);
 431:Middlewares/Third_Party/LwIP/src/core/tcp_out.c **** 
 432:Middlewares/Third_Party/LwIP/src/core/tcp_out.c ****   err = tcp_write_checks(pcb, len);
 433:Middlewares/Third_Party/LwIP/src/core/tcp_out.c ****   if (err != ERR_OK) {
 434:Middlewares/Third_Party/LwIP/src/core/tcp_out.c ****     return err;
 435:Middlewares/Third_Party/LwIP/src/core/tcp_out.c ****   }
 436:Middlewares/Third_Party/LwIP/src/core/tcp_out.c ****   queuelen = pcb->snd_queuelen;
 437:Middlewares/Third_Party/LwIP/src/core/tcp_out.c **** 
ARM GAS  /tmp/ccMjT2X9.s 			page 12


 438:Middlewares/Third_Party/LwIP/src/core/tcp_out.c **** #if LWIP_TCP_TIMESTAMPS
 439:Middlewares/Third_Party/LwIP/src/core/tcp_out.c ****   if ((pcb->flags & TF_TIMESTAMP)) {
 440:Middlewares/Third_Party/LwIP/src/core/tcp_out.c ****     /* Make sure the timestamp option is only included in data segments if we
 441:Middlewares/Third_Party/LwIP/src/core/tcp_out.c ****        agreed about it with the remote host. */
 442:Middlewares/Third_Party/LwIP/src/core/tcp_out.c ****     optflags = TF_SEG_OPTS_TS;
 443:Middlewares/Third_Party/LwIP/src/core/tcp_out.c ****     optlen = LWIP_TCP_OPT_LENGTH_SEGMENT(TF_SEG_OPTS_TS, pcb);
 444:Middlewares/Third_Party/LwIP/src/core/tcp_out.c ****     /* ensure that segments can hold at least one data byte... */
 445:Middlewares/Third_Party/LwIP/src/core/tcp_out.c ****     mss_local = LWIP_MAX(mss_local, LWIP_TCP_OPT_LEN_TS + 1);
 446:Middlewares/Third_Party/LwIP/src/core/tcp_out.c ****   } else
 447:Middlewares/Third_Party/LwIP/src/core/tcp_out.c **** #endif /* LWIP_TCP_TIMESTAMPS */
 448:Middlewares/Third_Party/LwIP/src/core/tcp_out.c ****   {
 449:Middlewares/Third_Party/LwIP/src/core/tcp_out.c ****     optlen = LWIP_TCP_OPT_LENGTH_SEGMENT(0, pcb);
 450:Middlewares/Third_Party/LwIP/src/core/tcp_out.c ****   }
 451:Middlewares/Third_Party/LwIP/src/core/tcp_out.c **** 
 452:Middlewares/Third_Party/LwIP/src/core/tcp_out.c **** 
 453:Middlewares/Third_Party/LwIP/src/core/tcp_out.c ****   /*
 454:Middlewares/Third_Party/LwIP/src/core/tcp_out.c ****    * TCP segmentation is done in three phases with increasing complexity:
 455:Middlewares/Third_Party/LwIP/src/core/tcp_out.c ****    *
 456:Middlewares/Third_Party/LwIP/src/core/tcp_out.c ****    * 1. Copy data directly into an oversized pbuf.
 457:Middlewares/Third_Party/LwIP/src/core/tcp_out.c ****    * 2. Chain a new pbuf to the end of pcb->unsent.
 458:Middlewares/Third_Party/LwIP/src/core/tcp_out.c ****    * 3. Create new segments.
 459:Middlewares/Third_Party/LwIP/src/core/tcp_out.c ****    *
 460:Middlewares/Third_Party/LwIP/src/core/tcp_out.c ****    * We may run out of memory at any point. In that case we must
 461:Middlewares/Third_Party/LwIP/src/core/tcp_out.c ****    * return ERR_MEM and not change anything in pcb. Therefore, all
 462:Middlewares/Third_Party/LwIP/src/core/tcp_out.c ****    * changes are recorded in local variables and committed at the end
 463:Middlewares/Third_Party/LwIP/src/core/tcp_out.c ****    * of the function. Some pcb fields are maintained in local copies:
 464:Middlewares/Third_Party/LwIP/src/core/tcp_out.c ****    *
 465:Middlewares/Third_Party/LwIP/src/core/tcp_out.c ****    * queuelen = pcb->snd_queuelen
 466:Middlewares/Third_Party/LwIP/src/core/tcp_out.c ****    * oversize = pcb->unsent_oversize
 467:Middlewares/Third_Party/LwIP/src/core/tcp_out.c ****    *
 468:Middlewares/Third_Party/LwIP/src/core/tcp_out.c ****    * These variables are set consistently by the phases:
 469:Middlewares/Third_Party/LwIP/src/core/tcp_out.c ****    *
 470:Middlewares/Third_Party/LwIP/src/core/tcp_out.c ****    * seg points to the last segment tampered with.
 471:Middlewares/Third_Party/LwIP/src/core/tcp_out.c ****    *
 472:Middlewares/Third_Party/LwIP/src/core/tcp_out.c ****    * pos records progress as data is segmented.
 473:Middlewares/Third_Party/LwIP/src/core/tcp_out.c ****    */
 474:Middlewares/Third_Party/LwIP/src/core/tcp_out.c **** 
 475:Middlewares/Third_Party/LwIP/src/core/tcp_out.c ****   /* Find the tail of the unsent queue. */
 476:Middlewares/Third_Party/LwIP/src/core/tcp_out.c ****   if (pcb->unsent != NULL) {
 477:Middlewares/Third_Party/LwIP/src/core/tcp_out.c ****     u16_t space;
 478:Middlewares/Third_Party/LwIP/src/core/tcp_out.c ****     u16_t unsent_optlen;
 479:Middlewares/Third_Party/LwIP/src/core/tcp_out.c **** 
 480:Middlewares/Third_Party/LwIP/src/core/tcp_out.c ****     /* @todo: this could be sped up by keeping last_unsent in the pcb */
 481:Middlewares/Third_Party/LwIP/src/core/tcp_out.c ****     for (last_unsent = pcb->unsent; last_unsent->next != NULL;
 482:Middlewares/Third_Party/LwIP/src/core/tcp_out.c ****          last_unsent = last_unsent->next);
 483:Middlewares/Third_Party/LwIP/src/core/tcp_out.c **** 
 484:Middlewares/Third_Party/LwIP/src/core/tcp_out.c ****     /* Usable space at the end of the last unsent segment */
 485:Middlewares/Third_Party/LwIP/src/core/tcp_out.c ****     unsent_optlen = LWIP_TCP_OPT_LENGTH_SEGMENT(last_unsent->flags, pcb);
 486:Middlewares/Third_Party/LwIP/src/core/tcp_out.c ****     LWIP_ASSERT("mss_local is too small", mss_local >= last_unsent->len + unsent_optlen);
 487:Middlewares/Third_Party/LwIP/src/core/tcp_out.c ****     space = mss_local - (last_unsent->len + unsent_optlen);
 488:Middlewares/Third_Party/LwIP/src/core/tcp_out.c **** 
 489:Middlewares/Third_Party/LwIP/src/core/tcp_out.c ****     /*
 490:Middlewares/Third_Party/LwIP/src/core/tcp_out.c ****      * Phase 1: Copy data directly into an oversized pbuf.
 491:Middlewares/Third_Party/LwIP/src/core/tcp_out.c ****      *
 492:Middlewares/Third_Party/LwIP/src/core/tcp_out.c ****      * The number of bytes copied is recorded in the oversize_used
 493:Middlewares/Third_Party/LwIP/src/core/tcp_out.c ****      * variable. The actual copying is done at the bottom of the
 494:Middlewares/Third_Party/LwIP/src/core/tcp_out.c ****      * function.
ARM GAS  /tmp/ccMjT2X9.s 			page 13


 495:Middlewares/Third_Party/LwIP/src/core/tcp_out.c ****      */
 496:Middlewares/Third_Party/LwIP/src/core/tcp_out.c **** #if TCP_OVERSIZE
 497:Middlewares/Third_Party/LwIP/src/core/tcp_out.c **** #if TCP_OVERSIZE_DBGCHECK
 498:Middlewares/Third_Party/LwIP/src/core/tcp_out.c ****     /* check that pcb->unsent_oversize matches last_unsent->oversize_left */
 499:Middlewares/Third_Party/LwIP/src/core/tcp_out.c ****     LWIP_ASSERT("unsent_oversize mismatch (pcb vs. last_unsent)",
 500:Middlewares/Third_Party/LwIP/src/core/tcp_out.c ****                 pcb->unsent_oversize == last_unsent->oversize_left);
 501:Middlewares/Third_Party/LwIP/src/core/tcp_out.c **** #endif /* TCP_OVERSIZE_DBGCHECK */
 502:Middlewares/Third_Party/LwIP/src/core/tcp_out.c ****     oversize = pcb->unsent_oversize;
 503:Middlewares/Third_Party/LwIP/src/core/tcp_out.c ****     if (oversize > 0) {
 504:Middlewares/Third_Party/LwIP/src/core/tcp_out.c ****       LWIP_ASSERT("inconsistent oversize vs. space", oversize <= space);
 505:Middlewares/Third_Party/LwIP/src/core/tcp_out.c ****       seg = last_unsent;
 506:Middlewares/Third_Party/LwIP/src/core/tcp_out.c ****       oversize_used = LWIP_MIN(space, LWIP_MIN(oversize, len));
 507:Middlewares/Third_Party/LwIP/src/core/tcp_out.c ****       pos += oversize_used;
 508:Middlewares/Third_Party/LwIP/src/core/tcp_out.c ****       oversize -= oversize_used;
 509:Middlewares/Third_Party/LwIP/src/core/tcp_out.c ****       space -= oversize_used;
 510:Middlewares/Third_Party/LwIP/src/core/tcp_out.c ****     }
 511:Middlewares/Third_Party/LwIP/src/core/tcp_out.c ****     /* now we are either finished or oversize is zero */
 512:Middlewares/Third_Party/LwIP/src/core/tcp_out.c ****     LWIP_ASSERT("inconsistent oversize vs. len", (oversize == 0) || (pos == len));
 513:Middlewares/Third_Party/LwIP/src/core/tcp_out.c **** #endif /* TCP_OVERSIZE */
 514:Middlewares/Third_Party/LwIP/src/core/tcp_out.c **** 
 515:Middlewares/Third_Party/LwIP/src/core/tcp_out.c **** #if !LWIP_NETIF_TX_SINGLE_PBUF
 516:Middlewares/Third_Party/LwIP/src/core/tcp_out.c ****     /*
 517:Middlewares/Third_Party/LwIP/src/core/tcp_out.c ****      * Phase 2: Chain a new pbuf to the end of pcb->unsent.
 518:Middlewares/Third_Party/LwIP/src/core/tcp_out.c ****      *
 519:Middlewares/Third_Party/LwIP/src/core/tcp_out.c ****      * As an exception when NOT copying the data, if the given data buffer
 520:Middlewares/Third_Party/LwIP/src/core/tcp_out.c ****      * directly follows the last unsent data buffer in memory, extend the last
 521:Middlewares/Third_Party/LwIP/src/core/tcp_out.c ****      * ROM pbuf reference to the buffer, thus saving a ROM pbuf allocation.
 522:Middlewares/Third_Party/LwIP/src/core/tcp_out.c ****      *
 523:Middlewares/Third_Party/LwIP/src/core/tcp_out.c ****      * We don't extend segments containing SYN/FIN flags or options
 524:Middlewares/Third_Party/LwIP/src/core/tcp_out.c ****      * (len==0). The new pbuf is kept in concat_p and pbuf_cat'ed at
 525:Middlewares/Third_Party/LwIP/src/core/tcp_out.c ****      * the end.
 526:Middlewares/Third_Party/LwIP/src/core/tcp_out.c ****      *
 527:Middlewares/Third_Party/LwIP/src/core/tcp_out.c ****      * This phase is skipped for LWIP_NETIF_TX_SINGLE_PBUF as we could only execute
 528:Middlewares/Third_Party/LwIP/src/core/tcp_out.c ****      * it after rexmit puts a segment from unacked to unsent and at this point,
 529:Middlewares/Third_Party/LwIP/src/core/tcp_out.c ****      * oversize info is lost.
 530:Middlewares/Third_Party/LwIP/src/core/tcp_out.c ****      */
 531:Middlewares/Third_Party/LwIP/src/core/tcp_out.c ****     if ((pos < len) && (space > 0) && (last_unsent->len > 0)) {
 532:Middlewares/Third_Party/LwIP/src/core/tcp_out.c ****       u16_t seglen = LWIP_MIN(space, len - pos);
 533:Middlewares/Third_Party/LwIP/src/core/tcp_out.c ****       seg = last_unsent;
 534:Middlewares/Third_Party/LwIP/src/core/tcp_out.c **** 
 535:Middlewares/Third_Party/LwIP/src/core/tcp_out.c ****       /* Create a pbuf with a copy or reference to seglen bytes. We
 536:Middlewares/Third_Party/LwIP/src/core/tcp_out.c ****        * can use PBUF_RAW here since the data appears in the middle of
 537:Middlewares/Third_Party/LwIP/src/core/tcp_out.c ****        * a segment. A header will never be prepended. */
 538:Middlewares/Third_Party/LwIP/src/core/tcp_out.c ****       if (apiflags & TCP_WRITE_FLAG_COPY) {
 539:Middlewares/Third_Party/LwIP/src/core/tcp_out.c ****         /* Data is copied */
 540:Middlewares/Third_Party/LwIP/src/core/tcp_out.c ****         if ((concat_p = tcp_pbuf_prealloc(PBUF_RAW, seglen, space, &oversize, pcb, apiflags, 1)) ==
 541:Middlewares/Third_Party/LwIP/src/core/tcp_out.c ****           LWIP_DEBUGF(TCP_OUTPUT_DEBUG | LWIP_DBG_LEVEL_SERIOUS,
 542:Middlewares/Third_Party/LwIP/src/core/tcp_out.c ****                       ("tcp_write : could not allocate memory for pbuf copy size %"U16_F"\n",
 543:Middlewares/Third_Party/LwIP/src/core/tcp_out.c ****                        seglen));
 544:Middlewares/Third_Party/LwIP/src/core/tcp_out.c ****           goto memerr;
 545:Middlewares/Third_Party/LwIP/src/core/tcp_out.c ****         }
 546:Middlewares/Third_Party/LwIP/src/core/tcp_out.c **** #if TCP_OVERSIZE_DBGCHECK
 547:Middlewares/Third_Party/LwIP/src/core/tcp_out.c ****         oversize_add = oversize;
 548:Middlewares/Third_Party/LwIP/src/core/tcp_out.c **** #endif /* TCP_OVERSIZE_DBGCHECK */
 549:Middlewares/Third_Party/LwIP/src/core/tcp_out.c ****         TCP_DATA_COPY2(concat_p->payload, (const u8_t *)arg + pos, seglen, &concat_chksum, &concat_
 550:Middlewares/Third_Party/LwIP/src/core/tcp_out.c **** #if TCP_CHECKSUM_ON_COPY
 551:Middlewares/Third_Party/LwIP/src/core/tcp_out.c ****         concat_chksummed += seglen;
ARM GAS  /tmp/ccMjT2X9.s 			page 14


 552:Middlewares/Third_Party/LwIP/src/core/tcp_out.c **** #endif /* TCP_CHECKSUM_ON_COPY */
 553:Middlewares/Third_Party/LwIP/src/core/tcp_out.c ****         queuelen += pbuf_clen(concat_p);
 554:Middlewares/Third_Party/LwIP/src/core/tcp_out.c ****       } else {
 555:Middlewares/Third_Party/LwIP/src/core/tcp_out.c ****         /* Data is not copied */
 556:Middlewares/Third_Party/LwIP/src/core/tcp_out.c ****         /* If the last unsent pbuf is of type PBUF_ROM, try to extend it. */
 557:Middlewares/Third_Party/LwIP/src/core/tcp_out.c ****         struct pbuf *p;
 558:Middlewares/Third_Party/LwIP/src/core/tcp_out.c ****         for (p = last_unsent->p; p->next != NULL; p = p->next);
 559:Middlewares/Third_Party/LwIP/src/core/tcp_out.c ****         if (((p->type_internal & (PBUF_TYPE_FLAG_STRUCT_DATA_CONTIGUOUS | PBUF_TYPE_FLAG_DATA_VOLAT
 560:Middlewares/Third_Party/LwIP/src/core/tcp_out.c ****             (const u8_t *)p->payload + p->len == (const u8_t *)arg) {
 561:Middlewares/Third_Party/LwIP/src/core/tcp_out.c ****           LWIP_ASSERT("tcp_write: ROM pbufs cannot be oversized", pos == 0);
 562:Middlewares/Third_Party/LwIP/src/core/tcp_out.c ****           extendlen = seglen;
 563:Middlewares/Third_Party/LwIP/src/core/tcp_out.c ****         } else {
 564:Middlewares/Third_Party/LwIP/src/core/tcp_out.c ****           if ((concat_p = pbuf_alloc(PBUF_RAW, seglen, PBUF_ROM)) == NULL) {
 565:Middlewares/Third_Party/LwIP/src/core/tcp_out.c ****             LWIP_DEBUGF(TCP_OUTPUT_DEBUG | LWIP_DBG_LEVEL_SERIOUS,
 566:Middlewares/Third_Party/LwIP/src/core/tcp_out.c ****                         ("tcp_write: could not allocate memory for zero-copy pbuf\n"));
 567:Middlewares/Third_Party/LwIP/src/core/tcp_out.c ****             goto memerr;
 568:Middlewares/Third_Party/LwIP/src/core/tcp_out.c ****           }
 569:Middlewares/Third_Party/LwIP/src/core/tcp_out.c ****           /* reference the non-volatile payload data */
 570:Middlewares/Third_Party/LwIP/src/core/tcp_out.c ****           ((struct pbuf_rom *)concat_p)->payload = (const u8_t *)arg + pos;
 571:Middlewares/Third_Party/LwIP/src/core/tcp_out.c ****           queuelen += pbuf_clen(concat_p);
 572:Middlewares/Third_Party/LwIP/src/core/tcp_out.c ****         }
 573:Middlewares/Third_Party/LwIP/src/core/tcp_out.c **** #if TCP_CHECKSUM_ON_COPY
 574:Middlewares/Third_Party/LwIP/src/core/tcp_out.c ****         /* calculate the checksum of nocopy-data */
 575:Middlewares/Third_Party/LwIP/src/core/tcp_out.c ****         tcp_seg_add_chksum(~inet_chksum((const u8_t *)arg + pos, seglen), seglen,
 576:Middlewares/Third_Party/LwIP/src/core/tcp_out.c ****                            &concat_chksum, &concat_chksum_swapped);
 577:Middlewares/Third_Party/LwIP/src/core/tcp_out.c ****         concat_chksummed += seglen;
 578:Middlewares/Third_Party/LwIP/src/core/tcp_out.c **** #endif /* TCP_CHECKSUM_ON_COPY */
 579:Middlewares/Third_Party/LwIP/src/core/tcp_out.c ****       }
 580:Middlewares/Third_Party/LwIP/src/core/tcp_out.c **** 
 581:Middlewares/Third_Party/LwIP/src/core/tcp_out.c ****       pos += seglen;
 582:Middlewares/Third_Party/LwIP/src/core/tcp_out.c ****     }
 583:Middlewares/Third_Party/LwIP/src/core/tcp_out.c **** #endif /* !LWIP_NETIF_TX_SINGLE_PBUF */
 584:Middlewares/Third_Party/LwIP/src/core/tcp_out.c ****   } else {
 585:Middlewares/Third_Party/LwIP/src/core/tcp_out.c **** #if TCP_OVERSIZE
 586:Middlewares/Third_Party/LwIP/src/core/tcp_out.c ****     LWIP_ASSERT("unsent_oversize mismatch (pcb->unsent is NULL)",
 587:Middlewares/Third_Party/LwIP/src/core/tcp_out.c ****                 pcb->unsent_oversize == 0);
 588:Middlewares/Third_Party/LwIP/src/core/tcp_out.c **** #endif /* TCP_OVERSIZE */
 589:Middlewares/Third_Party/LwIP/src/core/tcp_out.c ****   }
 590:Middlewares/Third_Party/LwIP/src/core/tcp_out.c **** 
 591:Middlewares/Third_Party/LwIP/src/core/tcp_out.c ****   /*
 592:Middlewares/Third_Party/LwIP/src/core/tcp_out.c ****    * Phase 3: Create new segments.
 593:Middlewares/Third_Party/LwIP/src/core/tcp_out.c ****    *
 594:Middlewares/Third_Party/LwIP/src/core/tcp_out.c ****    * The new segments are chained together in the local 'queue'
 595:Middlewares/Third_Party/LwIP/src/core/tcp_out.c ****    * variable, ready to be appended to pcb->unsent.
 596:Middlewares/Third_Party/LwIP/src/core/tcp_out.c ****    */
 597:Middlewares/Third_Party/LwIP/src/core/tcp_out.c ****   while (pos < len) {
 598:Middlewares/Third_Party/LwIP/src/core/tcp_out.c ****     struct pbuf *p;
 599:Middlewares/Third_Party/LwIP/src/core/tcp_out.c ****     u16_t left = len - pos;
 600:Middlewares/Third_Party/LwIP/src/core/tcp_out.c ****     u16_t max_len = mss_local - optlen;
 601:Middlewares/Third_Party/LwIP/src/core/tcp_out.c ****     u16_t seglen = LWIP_MIN(left, max_len);
 602:Middlewares/Third_Party/LwIP/src/core/tcp_out.c **** #if TCP_CHECKSUM_ON_COPY
 603:Middlewares/Third_Party/LwIP/src/core/tcp_out.c ****     u16_t chksum = 0;
 604:Middlewares/Third_Party/LwIP/src/core/tcp_out.c ****     u8_t chksum_swapped = 0;
 605:Middlewares/Third_Party/LwIP/src/core/tcp_out.c **** #endif /* TCP_CHECKSUM_ON_COPY */
 606:Middlewares/Third_Party/LwIP/src/core/tcp_out.c **** 
 607:Middlewares/Third_Party/LwIP/src/core/tcp_out.c ****     if (apiflags & TCP_WRITE_FLAG_COPY) {
 608:Middlewares/Third_Party/LwIP/src/core/tcp_out.c ****       /* If copy is set, memory should be allocated and data copied
ARM GAS  /tmp/ccMjT2X9.s 			page 15


 609:Middlewares/Third_Party/LwIP/src/core/tcp_out.c ****        * into pbuf */
 610:Middlewares/Third_Party/LwIP/src/core/tcp_out.c ****       if ((p = tcp_pbuf_prealloc(PBUF_TRANSPORT, seglen + optlen, mss_local, &oversize, pcb, apifla
 611:Middlewares/Third_Party/LwIP/src/core/tcp_out.c ****         LWIP_DEBUGF(TCP_OUTPUT_DEBUG | LWIP_DBG_LEVEL_SERIOUS, ("tcp_write : could not allocate mem
 612:Middlewares/Third_Party/LwIP/src/core/tcp_out.c ****         goto memerr;
 613:Middlewares/Third_Party/LwIP/src/core/tcp_out.c ****       }
 614:Middlewares/Third_Party/LwIP/src/core/tcp_out.c ****       LWIP_ASSERT("tcp_write: check that first pbuf can hold the complete seglen",
 615:Middlewares/Third_Party/LwIP/src/core/tcp_out.c ****                   (p->len >= seglen));
 616:Middlewares/Third_Party/LwIP/src/core/tcp_out.c ****       TCP_DATA_COPY2((char *)p->payload + optlen, (const u8_t *)arg + pos, seglen, &chksum, &chksum
 617:Middlewares/Third_Party/LwIP/src/core/tcp_out.c ****     } else {
 618:Middlewares/Third_Party/LwIP/src/core/tcp_out.c ****       /* Copy is not set: First allocate a pbuf for holding the data.
 619:Middlewares/Third_Party/LwIP/src/core/tcp_out.c ****        * Since the referenced data is available at least until it is
 620:Middlewares/Third_Party/LwIP/src/core/tcp_out.c ****        * sent out on the link (as it has to be ACKed by the remote
 621:Middlewares/Third_Party/LwIP/src/core/tcp_out.c ****        * party) we can safely use PBUF_ROM instead of PBUF_REF here.
 622:Middlewares/Third_Party/LwIP/src/core/tcp_out.c ****        */
 623:Middlewares/Third_Party/LwIP/src/core/tcp_out.c ****       struct pbuf *p2;
 624:Middlewares/Third_Party/LwIP/src/core/tcp_out.c **** #if TCP_OVERSIZE
 625:Middlewares/Third_Party/LwIP/src/core/tcp_out.c ****       LWIP_ASSERT("oversize == 0", oversize == 0);
 626:Middlewares/Third_Party/LwIP/src/core/tcp_out.c **** #endif /* TCP_OVERSIZE */
 627:Middlewares/Third_Party/LwIP/src/core/tcp_out.c ****       if ((p2 = pbuf_alloc(PBUF_TRANSPORT, seglen, PBUF_ROM)) == NULL) {
 628:Middlewares/Third_Party/LwIP/src/core/tcp_out.c ****         LWIP_DEBUGF(TCP_OUTPUT_DEBUG | LWIP_DBG_LEVEL_SERIOUS, ("tcp_write: could not allocate memo
 629:Middlewares/Third_Party/LwIP/src/core/tcp_out.c ****         goto memerr;
 630:Middlewares/Third_Party/LwIP/src/core/tcp_out.c ****       }
 631:Middlewares/Third_Party/LwIP/src/core/tcp_out.c **** #if TCP_CHECKSUM_ON_COPY
 632:Middlewares/Third_Party/LwIP/src/core/tcp_out.c ****       /* calculate the checksum of nocopy-data */
 633:Middlewares/Third_Party/LwIP/src/core/tcp_out.c ****       chksum = ~inet_chksum((const u8_t *)arg + pos, seglen);
 634:Middlewares/Third_Party/LwIP/src/core/tcp_out.c ****       if (seglen & 1) {
 635:Middlewares/Third_Party/LwIP/src/core/tcp_out.c ****         chksum_swapped = 1;
 636:Middlewares/Third_Party/LwIP/src/core/tcp_out.c ****         chksum = SWAP_BYTES_IN_WORD(chksum);
 637:Middlewares/Third_Party/LwIP/src/core/tcp_out.c ****       }
 638:Middlewares/Third_Party/LwIP/src/core/tcp_out.c **** #endif /* TCP_CHECKSUM_ON_COPY */
 639:Middlewares/Third_Party/LwIP/src/core/tcp_out.c ****       /* reference the non-volatile payload data */
 640:Middlewares/Third_Party/LwIP/src/core/tcp_out.c ****       ((struct pbuf_rom *)p2)->payload = (const u8_t *)arg + pos;
 641:Middlewares/Third_Party/LwIP/src/core/tcp_out.c **** 
 642:Middlewares/Third_Party/LwIP/src/core/tcp_out.c ****       /* Second, allocate a pbuf for the headers. */
 643:Middlewares/Third_Party/LwIP/src/core/tcp_out.c ****       if ((p = pbuf_alloc(PBUF_TRANSPORT, optlen, PBUF_RAM)) == NULL) {
 644:Middlewares/Third_Party/LwIP/src/core/tcp_out.c ****         /* If allocation fails, we have to deallocate the data pbuf as
 645:Middlewares/Third_Party/LwIP/src/core/tcp_out.c ****          * well. */
 646:Middlewares/Third_Party/LwIP/src/core/tcp_out.c ****         pbuf_free(p2);
 647:Middlewares/Third_Party/LwIP/src/core/tcp_out.c ****         LWIP_DEBUGF(TCP_OUTPUT_DEBUG | LWIP_DBG_LEVEL_SERIOUS, ("tcp_write: could not allocate memo
 648:Middlewares/Third_Party/LwIP/src/core/tcp_out.c ****         goto memerr;
 649:Middlewares/Third_Party/LwIP/src/core/tcp_out.c ****       }
 650:Middlewares/Third_Party/LwIP/src/core/tcp_out.c ****       /* Concatenate the headers and data pbufs together. */
 651:Middlewares/Third_Party/LwIP/src/core/tcp_out.c ****       pbuf_cat(p/*header*/, p2/*data*/);
 652:Middlewares/Third_Party/LwIP/src/core/tcp_out.c ****     }
 653:Middlewares/Third_Party/LwIP/src/core/tcp_out.c **** 
 654:Middlewares/Third_Party/LwIP/src/core/tcp_out.c ****     queuelen += pbuf_clen(p);
 655:Middlewares/Third_Party/LwIP/src/core/tcp_out.c **** 
 656:Middlewares/Third_Party/LwIP/src/core/tcp_out.c ****     /* Now that there are more segments queued, we check again if the
 657:Middlewares/Third_Party/LwIP/src/core/tcp_out.c ****      * length of the queue exceeds the configured maximum or
 658:Middlewares/Third_Party/LwIP/src/core/tcp_out.c ****      * overflows. */
 659:Middlewares/Third_Party/LwIP/src/core/tcp_out.c ****     if (queuelen > LWIP_MIN(TCP_SND_QUEUELEN, TCP_SNDQUEUELEN_OVERFLOW)) {
 660:Middlewares/Third_Party/LwIP/src/core/tcp_out.c ****       LWIP_DEBUGF(TCP_OUTPUT_DEBUG | LWIP_DBG_LEVEL_SERIOUS, ("tcp_write: queue too long %"U16_F" (
 661:Middlewares/Third_Party/LwIP/src/core/tcp_out.c ****                   queuelen, (int)TCP_SND_QUEUELEN));
 662:Middlewares/Third_Party/LwIP/src/core/tcp_out.c ****       pbuf_free(p);
 663:Middlewares/Third_Party/LwIP/src/core/tcp_out.c ****       goto memerr;
 664:Middlewares/Third_Party/LwIP/src/core/tcp_out.c ****     }
 665:Middlewares/Third_Party/LwIP/src/core/tcp_out.c **** 
ARM GAS  /tmp/ccMjT2X9.s 			page 16


 666:Middlewares/Third_Party/LwIP/src/core/tcp_out.c ****     if ((seg = tcp_create_segment(pcb, p, 0, pcb->snd_lbb + pos, optflags)) == NULL) {
 667:Middlewares/Third_Party/LwIP/src/core/tcp_out.c ****       goto memerr;
 668:Middlewares/Third_Party/LwIP/src/core/tcp_out.c ****     }
 669:Middlewares/Third_Party/LwIP/src/core/tcp_out.c **** #if TCP_OVERSIZE_DBGCHECK
 670:Middlewares/Third_Party/LwIP/src/core/tcp_out.c ****     seg->oversize_left = oversize;
 671:Middlewares/Third_Party/LwIP/src/core/tcp_out.c **** #endif /* TCP_OVERSIZE_DBGCHECK */
 672:Middlewares/Third_Party/LwIP/src/core/tcp_out.c **** #if TCP_CHECKSUM_ON_COPY
 673:Middlewares/Third_Party/LwIP/src/core/tcp_out.c ****     seg->chksum = chksum;
 674:Middlewares/Third_Party/LwIP/src/core/tcp_out.c ****     seg->chksum_swapped = chksum_swapped;
 675:Middlewares/Third_Party/LwIP/src/core/tcp_out.c ****     seg->flags |= TF_SEG_DATA_CHECKSUMMED;
 676:Middlewares/Third_Party/LwIP/src/core/tcp_out.c **** #endif /* TCP_CHECKSUM_ON_COPY */
 677:Middlewares/Third_Party/LwIP/src/core/tcp_out.c **** 
 678:Middlewares/Third_Party/LwIP/src/core/tcp_out.c ****     /* first segment of to-be-queued data? */
 679:Middlewares/Third_Party/LwIP/src/core/tcp_out.c ****     if (queue == NULL) {
 680:Middlewares/Third_Party/LwIP/src/core/tcp_out.c ****       queue = seg;
 681:Middlewares/Third_Party/LwIP/src/core/tcp_out.c ****     } else {
 682:Middlewares/Third_Party/LwIP/src/core/tcp_out.c ****       /* Attach the segment to the end of the queued segments */
 683:Middlewares/Third_Party/LwIP/src/core/tcp_out.c ****       LWIP_ASSERT("prev_seg != NULL", prev_seg != NULL);
 684:Middlewares/Third_Party/LwIP/src/core/tcp_out.c ****       prev_seg->next = seg;
 685:Middlewares/Third_Party/LwIP/src/core/tcp_out.c ****     }
 686:Middlewares/Third_Party/LwIP/src/core/tcp_out.c ****     /* remember last segment of to-be-queued data for next iteration */
 687:Middlewares/Third_Party/LwIP/src/core/tcp_out.c ****     prev_seg = seg;
 688:Middlewares/Third_Party/LwIP/src/core/tcp_out.c **** 
 689:Middlewares/Third_Party/LwIP/src/core/tcp_out.c ****     LWIP_DEBUGF(TCP_OUTPUT_DEBUG | LWIP_DBG_TRACE, ("tcp_write: queueing %"U32_F":%"U32_F"\n",
 690:Middlewares/Third_Party/LwIP/src/core/tcp_out.c ****                 lwip_ntohl(seg->tcphdr->seqno),
 691:Middlewares/Third_Party/LwIP/src/core/tcp_out.c ****                 lwip_ntohl(seg->tcphdr->seqno) + TCP_TCPLEN(seg)));
 692:Middlewares/Third_Party/LwIP/src/core/tcp_out.c **** 
 693:Middlewares/Third_Party/LwIP/src/core/tcp_out.c ****     pos += seglen;
 694:Middlewares/Third_Party/LwIP/src/core/tcp_out.c ****   }
 695:Middlewares/Third_Party/LwIP/src/core/tcp_out.c **** 
 696:Middlewares/Third_Party/LwIP/src/core/tcp_out.c ****   /*
 697:Middlewares/Third_Party/LwIP/src/core/tcp_out.c ****    * All three segmentation phases were successful. We can commit the
 698:Middlewares/Third_Party/LwIP/src/core/tcp_out.c ****    * transaction.
 699:Middlewares/Third_Party/LwIP/src/core/tcp_out.c ****    */
 700:Middlewares/Third_Party/LwIP/src/core/tcp_out.c **** #if TCP_OVERSIZE_DBGCHECK
 701:Middlewares/Third_Party/LwIP/src/core/tcp_out.c ****   if ((last_unsent != NULL) && (oversize_add != 0)) {
 702:Middlewares/Third_Party/LwIP/src/core/tcp_out.c ****     last_unsent->oversize_left += oversize_add;
 703:Middlewares/Third_Party/LwIP/src/core/tcp_out.c ****   }
 704:Middlewares/Third_Party/LwIP/src/core/tcp_out.c **** #endif /* TCP_OVERSIZE_DBGCHECK */
 705:Middlewares/Third_Party/LwIP/src/core/tcp_out.c **** 
 706:Middlewares/Third_Party/LwIP/src/core/tcp_out.c ****   /*
 707:Middlewares/Third_Party/LwIP/src/core/tcp_out.c ****    * Phase 1: If data has been added to the preallocated tail of
 708:Middlewares/Third_Party/LwIP/src/core/tcp_out.c ****    * last_unsent, we update the length fields of the pbuf chain.
 709:Middlewares/Third_Party/LwIP/src/core/tcp_out.c ****    */
 710:Middlewares/Third_Party/LwIP/src/core/tcp_out.c **** #if TCP_OVERSIZE
 711:Middlewares/Third_Party/LwIP/src/core/tcp_out.c ****   if (oversize_used > 0) {
 712:Middlewares/Third_Party/LwIP/src/core/tcp_out.c ****     struct pbuf *p;
 713:Middlewares/Third_Party/LwIP/src/core/tcp_out.c ****     /* Bump tot_len of whole chain, len of tail */
 714:Middlewares/Third_Party/LwIP/src/core/tcp_out.c ****     for (p = last_unsent->p; p; p = p->next) {
 715:Middlewares/Third_Party/LwIP/src/core/tcp_out.c ****       p->tot_len += oversize_used;
 716:Middlewares/Third_Party/LwIP/src/core/tcp_out.c ****       if (p->next == NULL) {
 717:Middlewares/Third_Party/LwIP/src/core/tcp_out.c ****         TCP_DATA_COPY((char *)p->payload + p->len, arg, oversize_used, last_unsent);
 718:Middlewares/Third_Party/LwIP/src/core/tcp_out.c ****         p->len += oversize_used;
 719:Middlewares/Third_Party/LwIP/src/core/tcp_out.c ****       }
 720:Middlewares/Third_Party/LwIP/src/core/tcp_out.c ****     }
 721:Middlewares/Third_Party/LwIP/src/core/tcp_out.c ****     last_unsent->len += oversize_used;
 722:Middlewares/Third_Party/LwIP/src/core/tcp_out.c **** #if TCP_OVERSIZE_DBGCHECK
ARM GAS  /tmp/ccMjT2X9.s 			page 17


 723:Middlewares/Third_Party/LwIP/src/core/tcp_out.c ****     LWIP_ASSERT("last_unsent->oversize_left >= oversize_used",
 724:Middlewares/Third_Party/LwIP/src/core/tcp_out.c ****                 last_unsent->oversize_left >= oversize_used);
 725:Middlewares/Third_Party/LwIP/src/core/tcp_out.c ****     last_unsent->oversize_left -= oversize_used;
 726:Middlewares/Third_Party/LwIP/src/core/tcp_out.c **** #endif /* TCP_OVERSIZE_DBGCHECK */
 727:Middlewares/Third_Party/LwIP/src/core/tcp_out.c ****   }
 728:Middlewares/Third_Party/LwIP/src/core/tcp_out.c ****   pcb->unsent_oversize = oversize;
 729:Middlewares/Third_Party/LwIP/src/core/tcp_out.c **** #endif /* TCP_OVERSIZE */
 730:Middlewares/Third_Party/LwIP/src/core/tcp_out.c **** 
 731:Middlewares/Third_Party/LwIP/src/core/tcp_out.c ****   /*
 732:Middlewares/Third_Party/LwIP/src/core/tcp_out.c ****    * Phase 2: concat_p can be concatenated onto last_unsent->p, unless we
 733:Middlewares/Third_Party/LwIP/src/core/tcp_out.c ****    * determined that the last ROM pbuf can be extended to include the new data.
 734:Middlewares/Third_Party/LwIP/src/core/tcp_out.c ****    */
 735:Middlewares/Third_Party/LwIP/src/core/tcp_out.c ****   if (concat_p != NULL) {
 736:Middlewares/Third_Party/LwIP/src/core/tcp_out.c ****     LWIP_ASSERT("tcp_write: cannot concatenate when pcb->unsent is empty",
 737:Middlewares/Third_Party/LwIP/src/core/tcp_out.c ****                 (last_unsent != NULL));
 738:Middlewares/Third_Party/LwIP/src/core/tcp_out.c ****     pbuf_cat(last_unsent->p, concat_p);
 739:Middlewares/Third_Party/LwIP/src/core/tcp_out.c ****     last_unsent->len += concat_p->tot_len;
 740:Middlewares/Third_Party/LwIP/src/core/tcp_out.c ****   } else if (extendlen > 0) {
 741:Middlewares/Third_Party/LwIP/src/core/tcp_out.c ****     struct pbuf *p;
 742:Middlewares/Third_Party/LwIP/src/core/tcp_out.c ****     LWIP_ASSERT("tcp_write: extension of reference requires reference",
 743:Middlewares/Third_Party/LwIP/src/core/tcp_out.c ****                 last_unsent != NULL && last_unsent->p != NULL);
 744:Middlewares/Third_Party/LwIP/src/core/tcp_out.c ****     for (p = last_unsent->p; p->next != NULL; p = p->next) {
 745:Middlewares/Third_Party/LwIP/src/core/tcp_out.c ****       p->tot_len += extendlen;
 746:Middlewares/Third_Party/LwIP/src/core/tcp_out.c ****     }
 747:Middlewares/Third_Party/LwIP/src/core/tcp_out.c ****     p->tot_len += extendlen;
 748:Middlewares/Third_Party/LwIP/src/core/tcp_out.c ****     p->len += extendlen;
 749:Middlewares/Third_Party/LwIP/src/core/tcp_out.c ****     last_unsent->len += extendlen;
 750:Middlewares/Third_Party/LwIP/src/core/tcp_out.c ****   }
 751:Middlewares/Third_Party/LwIP/src/core/tcp_out.c **** 
 752:Middlewares/Third_Party/LwIP/src/core/tcp_out.c **** #if TCP_CHECKSUM_ON_COPY
 753:Middlewares/Third_Party/LwIP/src/core/tcp_out.c ****   if (concat_chksummed) {
 754:Middlewares/Third_Party/LwIP/src/core/tcp_out.c ****     LWIP_ASSERT("tcp_write: concat checksum needs concatenated data",
 755:Middlewares/Third_Party/LwIP/src/core/tcp_out.c ****                 concat_p != NULL || extendlen > 0);
 756:Middlewares/Third_Party/LwIP/src/core/tcp_out.c ****     /*if concat checksumm swapped - swap it back */
 757:Middlewares/Third_Party/LwIP/src/core/tcp_out.c ****     if (concat_chksum_swapped) {
 758:Middlewares/Third_Party/LwIP/src/core/tcp_out.c ****       concat_chksum = SWAP_BYTES_IN_WORD(concat_chksum);
 759:Middlewares/Third_Party/LwIP/src/core/tcp_out.c ****     }
 760:Middlewares/Third_Party/LwIP/src/core/tcp_out.c ****     tcp_seg_add_chksum(concat_chksum, concat_chksummed, &last_unsent->chksum,
 761:Middlewares/Third_Party/LwIP/src/core/tcp_out.c ****                        &last_unsent->chksum_swapped);
 762:Middlewares/Third_Party/LwIP/src/core/tcp_out.c ****     last_unsent->flags |= TF_SEG_DATA_CHECKSUMMED;
 763:Middlewares/Third_Party/LwIP/src/core/tcp_out.c ****   }
 764:Middlewares/Third_Party/LwIP/src/core/tcp_out.c **** #endif /* TCP_CHECKSUM_ON_COPY */
 765:Middlewares/Third_Party/LwIP/src/core/tcp_out.c **** 
 766:Middlewares/Third_Party/LwIP/src/core/tcp_out.c ****   /*
 767:Middlewares/Third_Party/LwIP/src/core/tcp_out.c ****    * Phase 3: Append queue to pcb->unsent. Queue may be NULL, but that
 768:Middlewares/Third_Party/LwIP/src/core/tcp_out.c ****    * is harmless
 769:Middlewares/Third_Party/LwIP/src/core/tcp_out.c ****    */
 770:Middlewares/Third_Party/LwIP/src/core/tcp_out.c ****   if (last_unsent == NULL) {
 771:Middlewares/Third_Party/LwIP/src/core/tcp_out.c ****     pcb->unsent = queue;
 772:Middlewares/Third_Party/LwIP/src/core/tcp_out.c ****   } else {
 773:Middlewares/Third_Party/LwIP/src/core/tcp_out.c ****     last_unsent->next = queue;
 774:Middlewares/Third_Party/LwIP/src/core/tcp_out.c ****   }
 775:Middlewares/Third_Party/LwIP/src/core/tcp_out.c **** 
 776:Middlewares/Third_Party/LwIP/src/core/tcp_out.c ****   /*
 777:Middlewares/Third_Party/LwIP/src/core/tcp_out.c ****    * Finally update the pcb state.
 778:Middlewares/Third_Party/LwIP/src/core/tcp_out.c ****    */
 779:Middlewares/Third_Party/LwIP/src/core/tcp_out.c ****   pcb->snd_lbb += len;
ARM GAS  /tmp/ccMjT2X9.s 			page 18


 780:Middlewares/Third_Party/LwIP/src/core/tcp_out.c ****   pcb->snd_buf -= len;
 781:Middlewares/Third_Party/LwIP/src/core/tcp_out.c ****   pcb->snd_queuelen = queuelen;
 782:Middlewares/Third_Party/LwIP/src/core/tcp_out.c **** 
 783:Middlewares/Third_Party/LwIP/src/core/tcp_out.c ****   LWIP_DEBUGF(TCP_QLEN_DEBUG, ("tcp_write: %"S16_F" (after enqueued)\n",
 784:Middlewares/Third_Party/LwIP/src/core/tcp_out.c ****                                pcb->snd_queuelen));
 785:Middlewares/Third_Party/LwIP/src/core/tcp_out.c ****   if (pcb->snd_queuelen != 0) {
 786:Middlewares/Third_Party/LwIP/src/core/tcp_out.c ****     LWIP_ASSERT("tcp_write: valid queue length",
 787:Middlewares/Third_Party/LwIP/src/core/tcp_out.c ****                 pcb->unacked != NULL || pcb->unsent != NULL);
 788:Middlewares/Third_Party/LwIP/src/core/tcp_out.c ****   }
 789:Middlewares/Third_Party/LwIP/src/core/tcp_out.c **** 
 790:Middlewares/Third_Party/LwIP/src/core/tcp_out.c ****   /* Set the PSH flag in the last segment that we enqueued. */
 791:Middlewares/Third_Party/LwIP/src/core/tcp_out.c ****   if (seg != NULL && seg->tcphdr != NULL && ((apiflags & TCP_WRITE_FLAG_MORE) == 0)) {
 792:Middlewares/Third_Party/LwIP/src/core/tcp_out.c ****     TCPH_SET_FLAG(seg->tcphdr, TCP_PSH);
 793:Middlewares/Third_Party/LwIP/src/core/tcp_out.c ****   }
 794:Middlewares/Third_Party/LwIP/src/core/tcp_out.c **** 
 795:Middlewares/Third_Party/LwIP/src/core/tcp_out.c ****   return ERR_OK;
 796:Middlewares/Third_Party/LwIP/src/core/tcp_out.c **** memerr:
 797:Middlewares/Third_Party/LwIP/src/core/tcp_out.c ****   tcp_set_flags(pcb, TF_NAGLEMEMERR);
 798:Middlewares/Third_Party/LwIP/src/core/tcp_out.c ****   TCP_STATS_INC(tcp.memerr);
 799:Middlewares/Third_Party/LwIP/src/core/tcp_out.c **** 
 800:Middlewares/Third_Party/LwIP/src/core/tcp_out.c ****   if (concat_p != NULL) {
 801:Middlewares/Third_Party/LwIP/src/core/tcp_out.c ****     pbuf_free(concat_p);
 802:Middlewares/Third_Party/LwIP/src/core/tcp_out.c ****   }
 803:Middlewares/Third_Party/LwIP/src/core/tcp_out.c ****   if (queue != NULL) {
 804:Middlewares/Third_Party/LwIP/src/core/tcp_out.c ****     tcp_segs_free(queue);
 805:Middlewares/Third_Party/LwIP/src/core/tcp_out.c ****   }
 806:Middlewares/Third_Party/LwIP/src/core/tcp_out.c ****   if (pcb->snd_queuelen != 0) {
 807:Middlewares/Third_Party/LwIP/src/core/tcp_out.c ****     LWIP_ASSERT("tcp_write: valid queue length", pcb->unacked != NULL ||
 808:Middlewares/Third_Party/LwIP/src/core/tcp_out.c ****                 pcb->unsent != NULL);
 809:Middlewares/Third_Party/LwIP/src/core/tcp_out.c ****   }
 810:Middlewares/Third_Party/LwIP/src/core/tcp_out.c ****   LWIP_DEBUGF(TCP_QLEN_DEBUG | LWIP_DBG_STATE, ("tcp_write: %"S16_F" (with mem err)\n", pcb->snd_qu
 811:Middlewares/Third_Party/LwIP/src/core/tcp_out.c ****   return ERR_MEM;
 812:Middlewares/Third_Party/LwIP/src/core/tcp_out.c **** }
 813:Middlewares/Third_Party/LwIP/src/core/tcp_out.c **** 
 814:Middlewares/Third_Party/LwIP/src/core/tcp_out.c **** /**
 815:Middlewares/Third_Party/LwIP/src/core/tcp_out.c ****  * Split segment on the head of the unsent queue.  If return is not
 816:Middlewares/Third_Party/LwIP/src/core/tcp_out.c ****  * ERR_OK, existing head remains intact
 817:Middlewares/Third_Party/LwIP/src/core/tcp_out.c ****  *
 818:Middlewares/Third_Party/LwIP/src/core/tcp_out.c ****  * The split is accomplished by creating a new TCP segment and pbuf
 819:Middlewares/Third_Party/LwIP/src/core/tcp_out.c ****  * which holds the remainder payload after the split.  The original
 820:Middlewares/Third_Party/LwIP/src/core/tcp_out.c ****  * pbuf is trimmed to new length.  This allows splitting of read-only
 821:Middlewares/Third_Party/LwIP/src/core/tcp_out.c ****  * pbufs
 822:Middlewares/Third_Party/LwIP/src/core/tcp_out.c ****  *
 823:Middlewares/Third_Party/LwIP/src/core/tcp_out.c ****  * @param pcb the tcp_pcb for which to split the unsent head
 824:Middlewares/Third_Party/LwIP/src/core/tcp_out.c ****  * @param split the amount of payload to remain in the head
 825:Middlewares/Third_Party/LwIP/src/core/tcp_out.c ****  */
 826:Middlewares/Third_Party/LwIP/src/core/tcp_out.c **** err_t
 827:Middlewares/Third_Party/LwIP/src/core/tcp_out.c **** tcp_split_unsent_seg(struct tcp_pcb *pcb, u16_t split)
 828:Middlewares/Third_Party/LwIP/src/core/tcp_out.c **** {
 829:Middlewares/Third_Party/LwIP/src/core/tcp_out.c ****   struct tcp_seg *seg = NULL, *useg = NULL;
 830:Middlewares/Third_Party/LwIP/src/core/tcp_out.c ****   struct pbuf *p = NULL;
 831:Middlewares/Third_Party/LwIP/src/core/tcp_out.c ****   u8_t optlen;
 832:Middlewares/Third_Party/LwIP/src/core/tcp_out.c ****   u8_t optflags;
 833:Middlewares/Third_Party/LwIP/src/core/tcp_out.c ****   u8_t split_flags;
 834:Middlewares/Third_Party/LwIP/src/core/tcp_out.c ****   u8_t remainder_flags;
 835:Middlewares/Third_Party/LwIP/src/core/tcp_out.c ****   u16_t remainder;
 836:Middlewares/Third_Party/LwIP/src/core/tcp_out.c ****   u16_t offset;
ARM GAS  /tmp/ccMjT2X9.s 			page 19


 837:Middlewares/Third_Party/LwIP/src/core/tcp_out.c **** #if TCP_CHECKSUM_ON_COPY
 838:Middlewares/Third_Party/LwIP/src/core/tcp_out.c ****   u16_t chksum = 0;
 839:Middlewares/Third_Party/LwIP/src/core/tcp_out.c ****   u8_t chksum_swapped = 0;
 840:Middlewares/Third_Party/LwIP/src/core/tcp_out.c ****   struct pbuf *q;
 841:Middlewares/Third_Party/LwIP/src/core/tcp_out.c **** #endif /* TCP_CHECKSUM_ON_COPY */
 842:Middlewares/Third_Party/LwIP/src/core/tcp_out.c **** 
 843:Middlewares/Third_Party/LwIP/src/core/tcp_out.c ****   LWIP_ASSERT("tcp_split_unsent_seg: invalid pcb", pcb != NULL);
 844:Middlewares/Third_Party/LwIP/src/core/tcp_out.c **** 
 845:Middlewares/Third_Party/LwIP/src/core/tcp_out.c ****   useg = pcb->unsent;
 846:Middlewares/Third_Party/LwIP/src/core/tcp_out.c ****   if (useg == NULL) {
 847:Middlewares/Third_Party/LwIP/src/core/tcp_out.c ****     return ERR_MEM;
 848:Middlewares/Third_Party/LwIP/src/core/tcp_out.c ****   }
 849:Middlewares/Third_Party/LwIP/src/core/tcp_out.c **** 
 850:Middlewares/Third_Party/LwIP/src/core/tcp_out.c ****   if (split == 0) {
 851:Middlewares/Third_Party/LwIP/src/core/tcp_out.c ****     LWIP_ASSERT("Can't split segment into length 0", 0);
 852:Middlewares/Third_Party/LwIP/src/core/tcp_out.c ****     return ERR_VAL;
 853:Middlewares/Third_Party/LwIP/src/core/tcp_out.c ****   }
 854:Middlewares/Third_Party/LwIP/src/core/tcp_out.c **** 
 855:Middlewares/Third_Party/LwIP/src/core/tcp_out.c ****   if (useg->len <= split) {
 856:Middlewares/Third_Party/LwIP/src/core/tcp_out.c ****     return ERR_OK;
 857:Middlewares/Third_Party/LwIP/src/core/tcp_out.c ****   }
 858:Middlewares/Third_Party/LwIP/src/core/tcp_out.c **** 
 859:Middlewares/Third_Party/LwIP/src/core/tcp_out.c ****   LWIP_ASSERT("split <= mss", split <= pcb->mss);
 860:Middlewares/Third_Party/LwIP/src/core/tcp_out.c ****   LWIP_ASSERT("useg->len > 0", useg->len > 0);
 861:Middlewares/Third_Party/LwIP/src/core/tcp_out.c **** 
 862:Middlewares/Third_Party/LwIP/src/core/tcp_out.c ****   /* We should check that we don't exceed TCP_SND_QUEUELEN but we need
 863:Middlewares/Third_Party/LwIP/src/core/tcp_out.c ****    * to split this packet so we may actually exceed the max value by
 864:Middlewares/Third_Party/LwIP/src/core/tcp_out.c ****    * one!
 865:Middlewares/Third_Party/LwIP/src/core/tcp_out.c ****    */
 866:Middlewares/Third_Party/LwIP/src/core/tcp_out.c ****   LWIP_DEBUGF(TCP_QLEN_DEBUG, ("tcp_enqueue: split_unsent_seg: %u\n", (unsigned int)pcb->snd_queuel
 867:Middlewares/Third_Party/LwIP/src/core/tcp_out.c **** 
 868:Middlewares/Third_Party/LwIP/src/core/tcp_out.c ****   optflags = useg->flags;
 869:Middlewares/Third_Party/LwIP/src/core/tcp_out.c **** #if TCP_CHECKSUM_ON_COPY
 870:Middlewares/Third_Party/LwIP/src/core/tcp_out.c ****   /* Remove since checksum is not stored until after tcp_create_segment() */
 871:Middlewares/Third_Party/LwIP/src/core/tcp_out.c ****   optflags &= ~TF_SEG_DATA_CHECKSUMMED;
 872:Middlewares/Third_Party/LwIP/src/core/tcp_out.c **** #endif /* TCP_CHECKSUM_ON_COPY */
 873:Middlewares/Third_Party/LwIP/src/core/tcp_out.c ****   optlen = LWIP_TCP_OPT_LENGTH(optflags);
 874:Middlewares/Third_Party/LwIP/src/core/tcp_out.c ****   remainder = useg->len - split;
 875:Middlewares/Third_Party/LwIP/src/core/tcp_out.c **** 
 876:Middlewares/Third_Party/LwIP/src/core/tcp_out.c ****   /* Create new pbuf for the remainder of the split */
 877:Middlewares/Third_Party/LwIP/src/core/tcp_out.c ****   p = pbuf_alloc(PBUF_TRANSPORT, remainder + optlen, PBUF_RAM);
 878:Middlewares/Third_Party/LwIP/src/core/tcp_out.c ****   if (p == NULL) {
 879:Middlewares/Third_Party/LwIP/src/core/tcp_out.c ****     LWIP_DEBUGF(TCP_OUTPUT_DEBUG | LWIP_DBG_LEVEL_SERIOUS,
 880:Middlewares/Third_Party/LwIP/src/core/tcp_out.c ****                 ("tcp_split_unsent_seg: could not allocate memory for pbuf remainder %u\n", remaind
 881:Middlewares/Third_Party/LwIP/src/core/tcp_out.c ****     goto memerr;
 882:Middlewares/Third_Party/LwIP/src/core/tcp_out.c ****   }
 883:Middlewares/Third_Party/LwIP/src/core/tcp_out.c **** 
 884:Middlewares/Third_Party/LwIP/src/core/tcp_out.c ****   /* Offset into the original pbuf is past TCP/IP headers, options, and split amount */
 885:Middlewares/Third_Party/LwIP/src/core/tcp_out.c ****   offset = useg->p->tot_len - useg->len + split;
 886:Middlewares/Third_Party/LwIP/src/core/tcp_out.c ****   /* Copy remainder into new pbuf, headers and options will not be filled out */
 887:Middlewares/Third_Party/LwIP/src/core/tcp_out.c ****   if (pbuf_copy_partial(useg->p, (u8_t *)p->payload + optlen, remainder, offset ) != remainder) {
 888:Middlewares/Third_Party/LwIP/src/core/tcp_out.c ****     LWIP_DEBUGF(TCP_OUTPUT_DEBUG | LWIP_DBG_LEVEL_SERIOUS,
 889:Middlewares/Third_Party/LwIP/src/core/tcp_out.c ****                 ("tcp_split_unsent_seg: could not copy pbuf remainder %u\n", remainder));
 890:Middlewares/Third_Party/LwIP/src/core/tcp_out.c ****     goto memerr;
 891:Middlewares/Third_Party/LwIP/src/core/tcp_out.c ****   }
 892:Middlewares/Third_Party/LwIP/src/core/tcp_out.c **** #if TCP_CHECKSUM_ON_COPY
 893:Middlewares/Third_Party/LwIP/src/core/tcp_out.c ****   /* calculate the checksum on remainder data */
ARM GAS  /tmp/ccMjT2X9.s 			page 20


 894:Middlewares/Third_Party/LwIP/src/core/tcp_out.c ****   tcp_seg_add_chksum(~inet_chksum((const u8_t *)p->payload + optlen, remainder), remainder,
 895:Middlewares/Third_Party/LwIP/src/core/tcp_out.c ****                      &chksum, &chksum_swapped);
 896:Middlewares/Third_Party/LwIP/src/core/tcp_out.c **** #endif /* TCP_CHECKSUM_ON_COPY */
 897:Middlewares/Third_Party/LwIP/src/core/tcp_out.c **** 
 898:Middlewares/Third_Party/LwIP/src/core/tcp_out.c ****   /* Options are created when calling tcp_output() */
 899:Middlewares/Third_Party/LwIP/src/core/tcp_out.c **** 
 900:Middlewares/Third_Party/LwIP/src/core/tcp_out.c ****   /* Migrate flags from original segment */
 901:Middlewares/Third_Party/LwIP/src/core/tcp_out.c ****   split_flags = TCPH_FLAGS(useg->tcphdr);
 902:Middlewares/Third_Party/LwIP/src/core/tcp_out.c ****   remainder_flags = 0; /* ACK added in tcp_output() */
 903:Middlewares/Third_Party/LwIP/src/core/tcp_out.c **** 
 904:Middlewares/Third_Party/LwIP/src/core/tcp_out.c ****   if (split_flags & TCP_PSH) {
 905:Middlewares/Third_Party/LwIP/src/core/tcp_out.c ****     split_flags &= ~TCP_PSH;
 906:Middlewares/Third_Party/LwIP/src/core/tcp_out.c ****     remainder_flags |= TCP_PSH;
 907:Middlewares/Third_Party/LwIP/src/core/tcp_out.c ****   }
 908:Middlewares/Third_Party/LwIP/src/core/tcp_out.c ****   if (split_flags & TCP_FIN) {
 909:Middlewares/Third_Party/LwIP/src/core/tcp_out.c ****     split_flags &= ~TCP_FIN;
 910:Middlewares/Third_Party/LwIP/src/core/tcp_out.c ****     remainder_flags |= TCP_FIN;
 911:Middlewares/Third_Party/LwIP/src/core/tcp_out.c ****   }
 912:Middlewares/Third_Party/LwIP/src/core/tcp_out.c ****   /* SYN should be left on split, RST should not be present with data */
 913:Middlewares/Third_Party/LwIP/src/core/tcp_out.c **** 
 914:Middlewares/Third_Party/LwIP/src/core/tcp_out.c ****   seg = tcp_create_segment(pcb, p, remainder_flags, lwip_ntohl(useg->tcphdr->seqno) + split, optfla
 915:Middlewares/Third_Party/LwIP/src/core/tcp_out.c ****   if (seg == NULL) {
 916:Middlewares/Third_Party/LwIP/src/core/tcp_out.c ****     LWIP_DEBUGF(TCP_OUTPUT_DEBUG | LWIP_DBG_LEVEL_SERIOUS,
 917:Middlewares/Third_Party/LwIP/src/core/tcp_out.c ****                 ("tcp_split_unsent_seg: could not create new TCP segment\n"));
 918:Middlewares/Third_Party/LwIP/src/core/tcp_out.c ****     goto memerr;
 919:Middlewares/Third_Party/LwIP/src/core/tcp_out.c ****   }
 920:Middlewares/Third_Party/LwIP/src/core/tcp_out.c **** 
 921:Middlewares/Third_Party/LwIP/src/core/tcp_out.c **** #if TCP_CHECKSUM_ON_COPY
 922:Middlewares/Third_Party/LwIP/src/core/tcp_out.c ****   seg->chksum = chksum;
 923:Middlewares/Third_Party/LwIP/src/core/tcp_out.c ****   seg->chksum_swapped = chksum_swapped;
 924:Middlewares/Third_Party/LwIP/src/core/tcp_out.c ****   seg->flags |= TF_SEG_DATA_CHECKSUMMED;
 925:Middlewares/Third_Party/LwIP/src/core/tcp_out.c **** #endif /* TCP_CHECKSUM_ON_COPY */
 926:Middlewares/Third_Party/LwIP/src/core/tcp_out.c **** 
 927:Middlewares/Third_Party/LwIP/src/core/tcp_out.c ****   /* Remove this segment from the queue since trimming it may free pbufs */
 928:Middlewares/Third_Party/LwIP/src/core/tcp_out.c ****   pcb->snd_queuelen -= pbuf_clen(useg->p);
 929:Middlewares/Third_Party/LwIP/src/core/tcp_out.c **** 
 930:Middlewares/Third_Party/LwIP/src/core/tcp_out.c ****   /* Trim the original pbuf into our split size.  At this point our remainder segment must be setup
 931:Middlewares/Third_Party/LwIP/src/core/tcp_out.c ****   successfully because we are modifying the original segment */
 932:Middlewares/Third_Party/LwIP/src/core/tcp_out.c ****   pbuf_realloc(useg->p, useg->p->tot_len - remainder);
 933:Middlewares/Third_Party/LwIP/src/core/tcp_out.c ****   useg->len -= remainder;
 934:Middlewares/Third_Party/LwIP/src/core/tcp_out.c ****   TCPH_SET_FLAG(useg->tcphdr, split_flags);
 935:Middlewares/Third_Party/LwIP/src/core/tcp_out.c **** #if TCP_OVERSIZE_DBGCHECK
 936:Middlewares/Third_Party/LwIP/src/core/tcp_out.c ****   /* By trimming, realloc may have actually shrunk the pbuf, so clear oversize_left */
 937:Middlewares/Third_Party/LwIP/src/core/tcp_out.c ****   useg->oversize_left = 0;
 938:Middlewares/Third_Party/LwIP/src/core/tcp_out.c **** #endif /* TCP_OVERSIZE_DBGCHECK */
 939:Middlewares/Third_Party/LwIP/src/core/tcp_out.c **** 
 940:Middlewares/Third_Party/LwIP/src/core/tcp_out.c ****   /* Add back to the queue with new trimmed pbuf */
 941:Middlewares/Third_Party/LwIP/src/core/tcp_out.c ****   pcb->snd_queuelen += pbuf_clen(useg->p);
 942:Middlewares/Third_Party/LwIP/src/core/tcp_out.c **** 
 943:Middlewares/Third_Party/LwIP/src/core/tcp_out.c **** #if TCP_CHECKSUM_ON_COPY
 944:Middlewares/Third_Party/LwIP/src/core/tcp_out.c ****   /* The checksum on the split segment is now incorrect. We need to re-run it over the split */
 945:Middlewares/Third_Party/LwIP/src/core/tcp_out.c ****   useg->chksum = 0;
 946:Middlewares/Third_Party/LwIP/src/core/tcp_out.c ****   useg->chksum_swapped = 0;
 947:Middlewares/Third_Party/LwIP/src/core/tcp_out.c ****   q = useg->p;
 948:Middlewares/Third_Party/LwIP/src/core/tcp_out.c ****   offset = q->tot_len - useg->len; /* Offset due to exposed headers */
 949:Middlewares/Third_Party/LwIP/src/core/tcp_out.c **** 
 950:Middlewares/Third_Party/LwIP/src/core/tcp_out.c ****   /* Advance to the pbuf where the offset ends */
ARM GAS  /tmp/ccMjT2X9.s 			page 21


 951:Middlewares/Third_Party/LwIP/src/core/tcp_out.c ****   while (q != NULL && offset > q->len) {
 952:Middlewares/Third_Party/LwIP/src/core/tcp_out.c ****     offset -= q->len;
 953:Middlewares/Third_Party/LwIP/src/core/tcp_out.c ****     q = q->next;
 954:Middlewares/Third_Party/LwIP/src/core/tcp_out.c ****   }
 955:Middlewares/Third_Party/LwIP/src/core/tcp_out.c ****   LWIP_ASSERT("Found start of payload pbuf", q != NULL);
 956:Middlewares/Third_Party/LwIP/src/core/tcp_out.c ****   /* Checksum the first payload pbuf accounting for offset, then other pbufs are all payload */
 957:Middlewares/Third_Party/LwIP/src/core/tcp_out.c ****   for (; q != NULL; offset = 0, q = q->next) {
 958:Middlewares/Third_Party/LwIP/src/core/tcp_out.c ****     tcp_seg_add_chksum(~inet_chksum((const u8_t *)q->payload + offset, q->len - offset), q->len - o
 959:Middlewares/Third_Party/LwIP/src/core/tcp_out.c ****                        &useg->chksum, &useg->chksum_swapped);
 960:Middlewares/Third_Party/LwIP/src/core/tcp_out.c ****   }
 961:Middlewares/Third_Party/LwIP/src/core/tcp_out.c **** #endif /* TCP_CHECKSUM_ON_COPY */
 962:Middlewares/Third_Party/LwIP/src/core/tcp_out.c **** 
 963:Middlewares/Third_Party/LwIP/src/core/tcp_out.c ****   /* Update number of segments on the queues. Note that length now may
 964:Middlewares/Third_Party/LwIP/src/core/tcp_out.c ****    * exceed TCP_SND_QUEUELEN! We don't have to touch pcb->snd_buf
 965:Middlewares/Third_Party/LwIP/src/core/tcp_out.c ****    * because the total amount of data is constant when packet is split */
 966:Middlewares/Third_Party/LwIP/src/core/tcp_out.c ****   pcb->snd_queuelen += pbuf_clen(seg->p);
 967:Middlewares/Third_Party/LwIP/src/core/tcp_out.c **** 
 968:Middlewares/Third_Party/LwIP/src/core/tcp_out.c ****   /* Finally insert remainder into queue after split (which stays head) */
 969:Middlewares/Third_Party/LwIP/src/core/tcp_out.c ****   seg->next = useg->next;
 970:Middlewares/Third_Party/LwIP/src/core/tcp_out.c ****   useg->next = seg;
 971:Middlewares/Third_Party/LwIP/src/core/tcp_out.c **** 
 972:Middlewares/Third_Party/LwIP/src/core/tcp_out.c **** #if TCP_OVERSIZE
 973:Middlewares/Third_Party/LwIP/src/core/tcp_out.c ****   /* If remainder is last segment on the unsent, ensure we clear the oversize amount
 974:Middlewares/Third_Party/LwIP/src/core/tcp_out.c ****    * because the remainder is always sized to the exact remaining amount */
 975:Middlewares/Third_Party/LwIP/src/core/tcp_out.c ****   if (seg->next == NULL) {
 976:Middlewares/Third_Party/LwIP/src/core/tcp_out.c ****     pcb->unsent_oversize = 0;
 977:Middlewares/Third_Party/LwIP/src/core/tcp_out.c ****   }
 978:Middlewares/Third_Party/LwIP/src/core/tcp_out.c **** #endif /* TCP_OVERSIZE */
 979:Middlewares/Third_Party/LwIP/src/core/tcp_out.c **** 
 980:Middlewares/Third_Party/LwIP/src/core/tcp_out.c ****   return ERR_OK;
 981:Middlewares/Third_Party/LwIP/src/core/tcp_out.c **** memerr:
 982:Middlewares/Third_Party/LwIP/src/core/tcp_out.c ****   TCP_STATS_INC(tcp.memerr);
 983:Middlewares/Third_Party/LwIP/src/core/tcp_out.c **** 
 984:Middlewares/Third_Party/LwIP/src/core/tcp_out.c ****   LWIP_ASSERT("seg == NULL", seg == NULL);
 985:Middlewares/Third_Party/LwIP/src/core/tcp_out.c ****   if (p != NULL) {
 986:Middlewares/Third_Party/LwIP/src/core/tcp_out.c ****     pbuf_free(p);
 987:Middlewares/Third_Party/LwIP/src/core/tcp_out.c ****   }
 988:Middlewares/Third_Party/LwIP/src/core/tcp_out.c **** 
 989:Middlewares/Third_Party/LwIP/src/core/tcp_out.c ****   return ERR_MEM;
 990:Middlewares/Third_Party/LwIP/src/core/tcp_out.c **** }
 991:Middlewares/Third_Party/LwIP/src/core/tcp_out.c **** 
 992:Middlewares/Third_Party/LwIP/src/core/tcp_out.c **** /**
 993:Middlewares/Third_Party/LwIP/src/core/tcp_out.c ****  * Called by tcp_close() to send a segment including FIN flag but not data.
 994:Middlewares/Third_Party/LwIP/src/core/tcp_out.c ****  * This FIN may be added to an existing segment or a new, otherwise empty
 995:Middlewares/Third_Party/LwIP/src/core/tcp_out.c ****  * segment is enqueued.
 996:Middlewares/Third_Party/LwIP/src/core/tcp_out.c ****  *
 997:Middlewares/Third_Party/LwIP/src/core/tcp_out.c ****  * @param pcb the tcp_pcb over which to send a segment
 998:Middlewares/Third_Party/LwIP/src/core/tcp_out.c ****  * @return ERR_OK if sent, another err_t otherwise
 999:Middlewares/Third_Party/LwIP/src/core/tcp_out.c ****  */
1000:Middlewares/Third_Party/LwIP/src/core/tcp_out.c **** err_t
1001:Middlewares/Third_Party/LwIP/src/core/tcp_out.c **** tcp_send_fin(struct tcp_pcb *pcb)
1002:Middlewares/Third_Party/LwIP/src/core/tcp_out.c **** {
1003:Middlewares/Third_Party/LwIP/src/core/tcp_out.c ****   LWIP_ASSERT("tcp_send_fin: invalid pcb", pcb != NULL);
1004:Middlewares/Third_Party/LwIP/src/core/tcp_out.c **** 
1005:Middlewares/Third_Party/LwIP/src/core/tcp_out.c ****   /* first, try to add the fin to the last unsent segment */
1006:Middlewares/Third_Party/LwIP/src/core/tcp_out.c ****   if (pcb->unsent != NULL) {
1007:Middlewares/Third_Party/LwIP/src/core/tcp_out.c ****     struct tcp_seg *last_unsent;
ARM GAS  /tmp/ccMjT2X9.s 			page 22


1008:Middlewares/Third_Party/LwIP/src/core/tcp_out.c ****     for (last_unsent = pcb->unsent; last_unsent->next != NULL;
1009:Middlewares/Third_Party/LwIP/src/core/tcp_out.c ****          last_unsent = last_unsent->next);
1010:Middlewares/Third_Party/LwIP/src/core/tcp_out.c **** 
1011:Middlewares/Third_Party/LwIP/src/core/tcp_out.c ****     if ((TCPH_FLAGS(last_unsent->tcphdr) & (TCP_SYN | TCP_FIN | TCP_RST)) == 0) {
1012:Middlewares/Third_Party/LwIP/src/core/tcp_out.c ****       /* no SYN/FIN/RST flag in the header, we can add the FIN flag */
1013:Middlewares/Third_Party/LwIP/src/core/tcp_out.c ****       TCPH_SET_FLAG(last_unsent->tcphdr, TCP_FIN);
1014:Middlewares/Third_Party/LwIP/src/core/tcp_out.c ****       tcp_set_flags(pcb, TF_FIN);
1015:Middlewares/Third_Party/LwIP/src/core/tcp_out.c ****       return ERR_OK;
1016:Middlewares/Third_Party/LwIP/src/core/tcp_out.c ****     }
1017:Middlewares/Third_Party/LwIP/src/core/tcp_out.c ****   }
1018:Middlewares/Third_Party/LwIP/src/core/tcp_out.c ****   /* no data, no length, flags, copy=1, no optdata */
1019:Middlewares/Third_Party/LwIP/src/core/tcp_out.c ****   return tcp_enqueue_flags(pcb, TCP_FIN);
1020:Middlewares/Third_Party/LwIP/src/core/tcp_out.c **** }
1021:Middlewares/Third_Party/LwIP/src/core/tcp_out.c **** 
1022:Middlewares/Third_Party/LwIP/src/core/tcp_out.c **** /**
1023:Middlewares/Third_Party/LwIP/src/core/tcp_out.c ****  * Enqueue SYN or FIN for transmission.
1024:Middlewares/Third_Party/LwIP/src/core/tcp_out.c ****  *
1025:Middlewares/Third_Party/LwIP/src/core/tcp_out.c ****  * Called by @ref tcp_connect, tcp_listen_input, and @ref tcp_close
1026:Middlewares/Third_Party/LwIP/src/core/tcp_out.c ****  * (via @ref tcp_send_fin)
1027:Middlewares/Third_Party/LwIP/src/core/tcp_out.c ****  *
1028:Middlewares/Third_Party/LwIP/src/core/tcp_out.c ****  * @param pcb Protocol control block for the TCP connection.
1029:Middlewares/Third_Party/LwIP/src/core/tcp_out.c ****  * @param flags TCP header flags to set in the outgoing segment.
1030:Middlewares/Third_Party/LwIP/src/core/tcp_out.c ****  */
1031:Middlewares/Third_Party/LwIP/src/core/tcp_out.c **** err_t
1032:Middlewares/Third_Party/LwIP/src/core/tcp_out.c **** tcp_enqueue_flags(struct tcp_pcb *pcb, u8_t flags)
1033:Middlewares/Third_Party/LwIP/src/core/tcp_out.c **** {
1034:Middlewares/Third_Party/LwIP/src/core/tcp_out.c ****   struct pbuf *p;
1035:Middlewares/Third_Party/LwIP/src/core/tcp_out.c ****   struct tcp_seg *seg;
1036:Middlewares/Third_Party/LwIP/src/core/tcp_out.c ****   u8_t optflags = 0;
1037:Middlewares/Third_Party/LwIP/src/core/tcp_out.c ****   u8_t optlen = 0;
1038:Middlewares/Third_Party/LwIP/src/core/tcp_out.c **** 
1039:Middlewares/Third_Party/LwIP/src/core/tcp_out.c ****   LWIP_DEBUGF(TCP_QLEN_DEBUG, ("tcp_enqueue_flags: queuelen: %"U16_F"\n", (u16_t)pcb->snd_queuelen)
1040:Middlewares/Third_Party/LwIP/src/core/tcp_out.c **** 
1041:Middlewares/Third_Party/LwIP/src/core/tcp_out.c ****   LWIP_ASSERT("tcp_enqueue_flags: need either TCP_SYN or TCP_FIN in flags (programmer violates API)
1042:Middlewares/Third_Party/LwIP/src/core/tcp_out.c ****               (flags & (TCP_SYN | TCP_FIN)) != 0);
1043:Middlewares/Third_Party/LwIP/src/core/tcp_out.c ****   LWIP_ASSERT("tcp_enqueue_flags: invalid pcb", pcb != NULL);
1044:Middlewares/Third_Party/LwIP/src/core/tcp_out.c **** 
1045:Middlewares/Third_Party/LwIP/src/core/tcp_out.c ****   /* No need to check pcb->snd_queuelen if only SYN or FIN are allowed! */
1046:Middlewares/Third_Party/LwIP/src/core/tcp_out.c **** 
1047:Middlewares/Third_Party/LwIP/src/core/tcp_out.c ****   /* Get options for this segment. This is a special case since this is the
1048:Middlewares/Third_Party/LwIP/src/core/tcp_out.c ****      only place where a SYN can be sent. */
1049:Middlewares/Third_Party/LwIP/src/core/tcp_out.c ****   if (flags & TCP_SYN) {
1050:Middlewares/Third_Party/LwIP/src/core/tcp_out.c ****     optflags = TF_SEG_OPTS_MSS;
1051:Middlewares/Third_Party/LwIP/src/core/tcp_out.c **** #if LWIP_WND_SCALE
1052:Middlewares/Third_Party/LwIP/src/core/tcp_out.c ****     if ((pcb->state != SYN_RCVD) || (pcb->flags & TF_WND_SCALE)) {
1053:Middlewares/Third_Party/LwIP/src/core/tcp_out.c ****       /* In a <SYN,ACK> (sent in state SYN_RCVD), the window scale option may only
1054:Middlewares/Third_Party/LwIP/src/core/tcp_out.c ****          be sent if we received a window scale option from the remote host. */
1055:Middlewares/Third_Party/LwIP/src/core/tcp_out.c ****       optflags |= TF_SEG_OPTS_WND_SCALE;
1056:Middlewares/Third_Party/LwIP/src/core/tcp_out.c ****     }
1057:Middlewares/Third_Party/LwIP/src/core/tcp_out.c **** #endif /* LWIP_WND_SCALE */
1058:Middlewares/Third_Party/LwIP/src/core/tcp_out.c **** #if LWIP_TCP_SACK_OUT
1059:Middlewares/Third_Party/LwIP/src/core/tcp_out.c ****     if ((pcb->state != SYN_RCVD) || (pcb->flags & TF_SACK)) {
1060:Middlewares/Third_Party/LwIP/src/core/tcp_out.c ****       /* In a <SYN,ACK> (sent in state SYN_RCVD), the SACK_PERM option may only
1061:Middlewares/Third_Party/LwIP/src/core/tcp_out.c ****          be sent if we received a SACK_PERM option from the remote host. */
1062:Middlewares/Third_Party/LwIP/src/core/tcp_out.c ****       optflags |= TF_SEG_OPTS_SACK_PERM;
1063:Middlewares/Third_Party/LwIP/src/core/tcp_out.c ****     }
1064:Middlewares/Third_Party/LwIP/src/core/tcp_out.c **** #endif /* LWIP_TCP_SACK_OUT */
ARM GAS  /tmp/ccMjT2X9.s 			page 23


1065:Middlewares/Third_Party/LwIP/src/core/tcp_out.c ****   }
1066:Middlewares/Third_Party/LwIP/src/core/tcp_out.c **** #if LWIP_TCP_TIMESTAMPS
1067:Middlewares/Third_Party/LwIP/src/core/tcp_out.c ****   if ((pcb->flags & TF_TIMESTAMP) || ((flags & TCP_SYN) && (pcb->state != SYN_RCVD))) {
1068:Middlewares/Third_Party/LwIP/src/core/tcp_out.c ****     /* Make sure the timestamp option is only included in data segments if we
1069:Middlewares/Third_Party/LwIP/src/core/tcp_out.c ****        agreed about it with the remote host (and in active open SYN segments). */
1070:Middlewares/Third_Party/LwIP/src/core/tcp_out.c ****     optflags |= TF_SEG_OPTS_TS;
1071:Middlewares/Third_Party/LwIP/src/core/tcp_out.c ****   }
1072:Middlewares/Third_Party/LwIP/src/core/tcp_out.c **** #endif /* LWIP_TCP_TIMESTAMPS */
1073:Middlewares/Third_Party/LwIP/src/core/tcp_out.c ****   optlen = LWIP_TCP_OPT_LENGTH_SEGMENT(optflags, pcb);
1074:Middlewares/Third_Party/LwIP/src/core/tcp_out.c **** 
1075:Middlewares/Third_Party/LwIP/src/core/tcp_out.c ****   /* Allocate pbuf with room for TCP header + options */
1076:Middlewares/Third_Party/LwIP/src/core/tcp_out.c ****   if ((p = pbuf_alloc(PBUF_TRANSPORT, optlen, PBUF_RAM)) == NULL) {
1077:Middlewares/Third_Party/LwIP/src/core/tcp_out.c ****     tcp_set_flags(pcb, TF_NAGLEMEMERR);
1078:Middlewares/Third_Party/LwIP/src/core/tcp_out.c ****     TCP_STATS_INC(tcp.memerr);
1079:Middlewares/Third_Party/LwIP/src/core/tcp_out.c ****     return ERR_MEM;
1080:Middlewares/Third_Party/LwIP/src/core/tcp_out.c ****   }
1081:Middlewares/Third_Party/LwIP/src/core/tcp_out.c ****   LWIP_ASSERT("tcp_enqueue_flags: check that first pbuf can hold optlen",
1082:Middlewares/Third_Party/LwIP/src/core/tcp_out.c ****               (p->len >= optlen));
1083:Middlewares/Third_Party/LwIP/src/core/tcp_out.c **** 
1084:Middlewares/Third_Party/LwIP/src/core/tcp_out.c ****   /* Allocate memory for tcp_seg, and fill in fields. */
1085:Middlewares/Third_Party/LwIP/src/core/tcp_out.c ****   if ((seg = tcp_create_segment(pcb, p, flags, pcb->snd_lbb, optflags)) == NULL) {
1086:Middlewares/Third_Party/LwIP/src/core/tcp_out.c ****     tcp_set_flags(pcb, TF_NAGLEMEMERR);
1087:Middlewares/Third_Party/LwIP/src/core/tcp_out.c ****     TCP_STATS_INC(tcp.memerr);
1088:Middlewares/Third_Party/LwIP/src/core/tcp_out.c ****     return ERR_MEM;
1089:Middlewares/Third_Party/LwIP/src/core/tcp_out.c ****   }
1090:Middlewares/Third_Party/LwIP/src/core/tcp_out.c ****   LWIP_ASSERT("seg->tcphdr not aligned", ((mem_ptr_t)seg->tcphdr % LWIP_MIN(MEM_ALIGNMENT, 4)) == 0
1091:Middlewares/Third_Party/LwIP/src/core/tcp_out.c ****   LWIP_ASSERT("tcp_enqueue_flags: invalid segment length", seg->len == 0);
1092:Middlewares/Third_Party/LwIP/src/core/tcp_out.c **** 
1093:Middlewares/Third_Party/LwIP/src/core/tcp_out.c ****   LWIP_DEBUGF(TCP_OUTPUT_DEBUG | LWIP_DBG_TRACE,
1094:Middlewares/Third_Party/LwIP/src/core/tcp_out.c ****               ("tcp_enqueue_flags: queueing %"U32_F":%"U32_F" (0x%"X16_F")\n",
1095:Middlewares/Third_Party/LwIP/src/core/tcp_out.c ****                lwip_ntohl(seg->tcphdr->seqno),
1096:Middlewares/Third_Party/LwIP/src/core/tcp_out.c ****                lwip_ntohl(seg->tcphdr->seqno) + TCP_TCPLEN(seg),
1097:Middlewares/Third_Party/LwIP/src/core/tcp_out.c ****                (u16_t)flags));
1098:Middlewares/Third_Party/LwIP/src/core/tcp_out.c **** 
1099:Middlewares/Third_Party/LwIP/src/core/tcp_out.c ****   /* Now append seg to pcb->unsent queue */
1100:Middlewares/Third_Party/LwIP/src/core/tcp_out.c ****   if (pcb->unsent == NULL) {
1101:Middlewares/Third_Party/LwIP/src/core/tcp_out.c ****     pcb->unsent = seg;
1102:Middlewares/Third_Party/LwIP/src/core/tcp_out.c ****   } else {
1103:Middlewares/Third_Party/LwIP/src/core/tcp_out.c ****     struct tcp_seg *useg;
1104:Middlewares/Third_Party/LwIP/src/core/tcp_out.c ****     for (useg = pcb->unsent; useg->next != NULL; useg = useg->next);
1105:Middlewares/Third_Party/LwIP/src/core/tcp_out.c ****     useg->next = seg;
1106:Middlewares/Third_Party/LwIP/src/core/tcp_out.c ****   }
1107:Middlewares/Third_Party/LwIP/src/core/tcp_out.c **** #if TCP_OVERSIZE
1108:Middlewares/Third_Party/LwIP/src/core/tcp_out.c ****   /* The new unsent tail has no space */
1109:Middlewares/Third_Party/LwIP/src/core/tcp_out.c ****   pcb->unsent_oversize = 0;
1110:Middlewares/Third_Party/LwIP/src/core/tcp_out.c **** #endif /* TCP_OVERSIZE */
1111:Middlewares/Third_Party/LwIP/src/core/tcp_out.c **** 
1112:Middlewares/Third_Party/LwIP/src/core/tcp_out.c ****   /* SYN and FIN bump the sequence number */
1113:Middlewares/Third_Party/LwIP/src/core/tcp_out.c ****   if ((flags & TCP_SYN) || (flags & TCP_FIN)) {
1114:Middlewares/Third_Party/LwIP/src/core/tcp_out.c ****     pcb->snd_lbb++;
1115:Middlewares/Third_Party/LwIP/src/core/tcp_out.c ****     /* optlen does not influence snd_buf */
1116:Middlewares/Third_Party/LwIP/src/core/tcp_out.c ****   }
1117:Middlewares/Third_Party/LwIP/src/core/tcp_out.c ****   if (flags & TCP_FIN) {
1118:Middlewares/Third_Party/LwIP/src/core/tcp_out.c ****     tcp_set_flags(pcb, TF_FIN);
1119:Middlewares/Third_Party/LwIP/src/core/tcp_out.c ****   }
1120:Middlewares/Third_Party/LwIP/src/core/tcp_out.c **** 
1121:Middlewares/Third_Party/LwIP/src/core/tcp_out.c ****   /* update number of segments on the queues */
ARM GAS  /tmp/ccMjT2X9.s 			page 24


1122:Middlewares/Third_Party/LwIP/src/core/tcp_out.c ****   pcb->snd_queuelen += pbuf_clen(seg->p);
1123:Middlewares/Third_Party/LwIP/src/core/tcp_out.c ****   LWIP_DEBUGF(TCP_QLEN_DEBUG, ("tcp_enqueue_flags: %"S16_F" (after enqueued)\n", pcb->snd_queuelen)
1124:Middlewares/Third_Party/LwIP/src/core/tcp_out.c ****   if (pcb->snd_queuelen != 0) {
1125:Middlewares/Third_Party/LwIP/src/core/tcp_out.c ****     LWIP_ASSERT("tcp_enqueue_flags: invalid queue length",
1126:Middlewares/Third_Party/LwIP/src/core/tcp_out.c ****                 pcb->unacked != NULL || pcb->unsent != NULL);
1127:Middlewares/Third_Party/LwIP/src/core/tcp_out.c ****   }
1128:Middlewares/Third_Party/LwIP/src/core/tcp_out.c **** 
1129:Middlewares/Third_Party/LwIP/src/core/tcp_out.c ****   return ERR_OK;
1130:Middlewares/Third_Party/LwIP/src/core/tcp_out.c **** }
1131:Middlewares/Third_Party/LwIP/src/core/tcp_out.c **** 
1132:Middlewares/Third_Party/LwIP/src/core/tcp_out.c **** #if LWIP_TCP_TIMESTAMPS
1133:Middlewares/Third_Party/LwIP/src/core/tcp_out.c **** /* Build a timestamp option (12 bytes long) at the specified options pointer)
1134:Middlewares/Third_Party/LwIP/src/core/tcp_out.c ****  *
1135:Middlewares/Third_Party/LwIP/src/core/tcp_out.c ****  * @param pcb tcp_pcb
1136:Middlewares/Third_Party/LwIP/src/core/tcp_out.c ****  * @param opts option pointer where to store the timestamp option
1137:Middlewares/Third_Party/LwIP/src/core/tcp_out.c ****  */
1138:Middlewares/Third_Party/LwIP/src/core/tcp_out.c **** static void
1139:Middlewares/Third_Party/LwIP/src/core/tcp_out.c **** tcp_build_timestamp_option(const struct tcp_pcb *pcb, u32_t *opts)
1140:Middlewares/Third_Party/LwIP/src/core/tcp_out.c **** {
1141:Middlewares/Third_Party/LwIP/src/core/tcp_out.c ****   LWIP_ASSERT("tcp_build_timestamp_option: invalid pcb", pcb != NULL);
1142:Middlewares/Third_Party/LwIP/src/core/tcp_out.c **** 
1143:Middlewares/Third_Party/LwIP/src/core/tcp_out.c ****   /* Pad with two NOP options to make everything nicely aligned */
1144:Middlewares/Third_Party/LwIP/src/core/tcp_out.c ****   opts[0] = PP_HTONL(0x0101080A);
1145:Middlewares/Third_Party/LwIP/src/core/tcp_out.c ****   opts[1] = lwip_htonl(sys_now());
1146:Middlewares/Third_Party/LwIP/src/core/tcp_out.c ****   opts[2] = lwip_htonl(pcb->ts_recent);
1147:Middlewares/Third_Party/LwIP/src/core/tcp_out.c **** }
1148:Middlewares/Third_Party/LwIP/src/core/tcp_out.c **** #endif
1149:Middlewares/Third_Party/LwIP/src/core/tcp_out.c **** 
1150:Middlewares/Third_Party/LwIP/src/core/tcp_out.c **** #if LWIP_TCP_SACK_OUT
1151:Middlewares/Third_Party/LwIP/src/core/tcp_out.c **** /**
1152:Middlewares/Third_Party/LwIP/src/core/tcp_out.c ****  * Calculates the number of SACK entries that should be generated.
1153:Middlewares/Third_Party/LwIP/src/core/tcp_out.c ****  * It takes into account whether TF_SACK flag is set,
1154:Middlewares/Third_Party/LwIP/src/core/tcp_out.c ****  * the number of SACK entries in tcp_pcb that are valid,
1155:Middlewares/Third_Party/LwIP/src/core/tcp_out.c ****  * as well as the available options size.
1156:Middlewares/Third_Party/LwIP/src/core/tcp_out.c ****  *
1157:Middlewares/Third_Party/LwIP/src/core/tcp_out.c ****  * @param pcb tcp_pcb
1158:Middlewares/Third_Party/LwIP/src/core/tcp_out.c ****  * @param optlen the length of other TCP options (in bytes)
1159:Middlewares/Third_Party/LwIP/src/core/tcp_out.c ****  * @return the number of SACK ranges that can be used
1160:Middlewares/Third_Party/LwIP/src/core/tcp_out.c ****  */
1161:Middlewares/Third_Party/LwIP/src/core/tcp_out.c **** static u8_t
1162:Middlewares/Third_Party/LwIP/src/core/tcp_out.c **** tcp_get_num_sacks(const struct tcp_pcb *pcb, u8_t optlen)
1163:Middlewares/Third_Party/LwIP/src/core/tcp_out.c **** {
1164:Middlewares/Third_Party/LwIP/src/core/tcp_out.c ****   u8_t num_sacks = 0;
1165:Middlewares/Third_Party/LwIP/src/core/tcp_out.c **** 
1166:Middlewares/Third_Party/LwIP/src/core/tcp_out.c ****   LWIP_ASSERT("tcp_get_num_sacks: invalid pcb", pcb != NULL);
1167:Middlewares/Third_Party/LwIP/src/core/tcp_out.c **** 
1168:Middlewares/Third_Party/LwIP/src/core/tcp_out.c ****   if (pcb->flags & TF_SACK) {
1169:Middlewares/Third_Party/LwIP/src/core/tcp_out.c ****     u8_t i;
1170:Middlewares/Third_Party/LwIP/src/core/tcp_out.c **** 
1171:Middlewares/Third_Party/LwIP/src/core/tcp_out.c ****     /* The first SACK takes up 12 bytes (it includes SACK header and two NOP options),
1172:Middlewares/Third_Party/LwIP/src/core/tcp_out.c ****        each additional one - 8 bytes. */
1173:Middlewares/Third_Party/LwIP/src/core/tcp_out.c ****     optlen += 12;
1174:Middlewares/Third_Party/LwIP/src/core/tcp_out.c **** 
1175:Middlewares/Third_Party/LwIP/src/core/tcp_out.c ****     /* Max options size = 40, number of SACK array entries = LWIP_TCP_MAX_SACK_NUM */
1176:Middlewares/Third_Party/LwIP/src/core/tcp_out.c ****     for (i = 0; (i < LWIP_TCP_MAX_SACK_NUM) && (optlen <= TCP_MAX_OPTION_BYTES) &&
1177:Middlewares/Third_Party/LwIP/src/core/tcp_out.c ****          LWIP_TCP_SACK_VALID(pcb, i); ++i) {
1178:Middlewares/Third_Party/LwIP/src/core/tcp_out.c ****       ++num_sacks;
ARM GAS  /tmp/ccMjT2X9.s 			page 25


1179:Middlewares/Third_Party/LwIP/src/core/tcp_out.c ****       optlen += 8;
1180:Middlewares/Third_Party/LwIP/src/core/tcp_out.c ****     }
1181:Middlewares/Third_Party/LwIP/src/core/tcp_out.c ****   }
1182:Middlewares/Third_Party/LwIP/src/core/tcp_out.c **** 
1183:Middlewares/Third_Party/LwIP/src/core/tcp_out.c ****   return num_sacks;
1184:Middlewares/Third_Party/LwIP/src/core/tcp_out.c **** }
1185:Middlewares/Third_Party/LwIP/src/core/tcp_out.c **** 
1186:Middlewares/Third_Party/LwIP/src/core/tcp_out.c **** /** Build a SACK option (12 or more bytes long) at the specified options pointer)
1187:Middlewares/Third_Party/LwIP/src/core/tcp_out.c ****  *
1188:Middlewares/Third_Party/LwIP/src/core/tcp_out.c ****  * @param pcb tcp_pcb
1189:Middlewares/Third_Party/LwIP/src/core/tcp_out.c ****  * @param opts option pointer where to store the SACK option
1190:Middlewares/Third_Party/LwIP/src/core/tcp_out.c ****  * @param num_sacks the number of SACKs to store
1191:Middlewares/Third_Party/LwIP/src/core/tcp_out.c ****  */
1192:Middlewares/Third_Party/LwIP/src/core/tcp_out.c **** static void
1193:Middlewares/Third_Party/LwIP/src/core/tcp_out.c **** tcp_build_sack_option(const struct tcp_pcb *pcb, u32_t *opts, u8_t num_sacks)
1194:Middlewares/Third_Party/LwIP/src/core/tcp_out.c **** {
1195:Middlewares/Third_Party/LwIP/src/core/tcp_out.c ****   u8_t i;
1196:Middlewares/Third_Party/LwIP/src/core/tcp_out.c **** 
1197:Middlewares/Third_Party/LwIP/src/core/tcp_out.c ****   LWIP_ASSERT("tcp_build_sack_option: invalid pcb", pcb != NULL);
1198:Middlewares/Third_Party/LwIP/src/core/tcp_out.c ****   LWIP_ASSERT("tcp_build_sack_option: invalid opts", opts != NULL);
1199:Middlewares/Third_Party/LwIP/src/core/tcp_out.c **** 
1200:Middlewares/Third_Party/LwIP/src/core/tcp_out.c ****   /* Pad with two NOP options to make everything nicely aligned.
1201:Middlewares/Third_Party/LwIP/src/core/tcp_out.c ****      We add the length (of just the SACK option, not the NOPs in front of it),
1202:Middlewares/Third_Party/LwIP/src/core/tcp_out.c ****      which is 2B of header, plus 8B for each SACK. */
1203:Middlewares/Third_Party/LwIP/src/core/tcp_out.c ****   *(opts++) = PP_HTONL(0x01010500 + 2 + num_sacks * 8);
1204:Middlewares/Third_Party/LwIP/src/core/tcp_out.c **** 
1205:Middlewares/Third_Party/LwIP/src/core/tcp_out.c ****   for (i = 0; i < num_sacks; ++i) {
1206:Middlewares/Third_Party/LwIP/src/core/tcp_out.c ****     *(opts++) = lwip_htonl(pcb->rcv_sacks[i].left);
1207:Middlewares/Third_Party/LwIP/src/core/tcp_out.c ****     *(opts++) = lwip_htonl(pcb->rcv_sacks[i].right);
1208:Middlewares/Third_Party/LwIP/src/core/tcp_out.c ****   }
1209:Middlewares/Third_Party/LwIP/src/core/tcp_out.c **** }
1210:Middlewares/Third_Party/LwIP/src/core/tcp_out.c **** 
1211:Middlewares/Third_Party/LwIP/src/core/tcp_out.c **** #endif
1212:Middlewares/Third_Party/LwIP/src/core/tcp_out.c **** 
1213:Middlewares/Third_Party/LwIP/src/core/tcp_out.c **** #if LWIP_WND_SCALE
1214:Middlewares/Third_Party/LwIP/src/core/tcp_out.c **** /** Build a window scale option (3 bytes long) at the specified options pointer)
1215:Middlewares/Third_Party/LwIP/src/core/tcp_out.c ****  *
1216:Middlewares/Third_Party/LwIP/src/core/tcp_out.c ****  * @param opts option pointer where to store the window scale option
1217:Middlewares/Third_Party/LwIP/src/core/tcp_out.c ****  */
1218:Middlewares/Third_Party/LwIP/src/core/tcp_out.c **** static void
1219:Middlewares/Third_Party/LwIP/src/core/tcp_out.c **** tcp_build_wnd_scale_option(u32_t *opts)
1220:Middlewares/Third_Party/LwIP/src/core/tcp_out.c **** {
1221:Middlewares/Third_Party/LwIP/src/core/tcp_out.c ****   LWIP_ASSERT("tcp_build_wnd_scale_option: invalid opts", opts != NULL);
1222:Middlewares/Third_Party/LwIP/src/core/tcp_out.c **** 
1223:Middlewares/Third_Party/LwIP/src/core/tcp_out.c ****   /* Pad with one NOP option to make everything nicely aligned */
1224:Middlewares/Third_Party/LwIP/src/core/tcp_out.c ****   opts[0] = PP_HTONL(0x01030300 | TCP_RCV_SCALE);
1225:Middlewares/Third_Party/LwIP/src/core/tcp_out.c **** }
1226:Middlewares/Third_Party/LwIP/src/core/tcp_out.c **** #endif
1227:Middlewares/Third_Party/LwIP/src/core/tcp_out.c **** 
1228:Middlewares/Third_Party/LwIP/src/core/tcp_out.c **** /**
1229:Middlewares/Third_Party/LwIP/src/core/tcp_out.c ****  * @ingroup tcp_raw
1230:Middlewares/Third_Party/LwIP/src/core/tcp_out.c ****  * Find out what we can send and send it
1231:Middlewares/Third_Party/LwIP/src/core/tcp_out.c ****  *
1232:Middlewares/Third_Party/LwIP/src/core/tcp_out.c ****  * @param pcb Protocol control block for the TCP connection to send data
1233:Middlewares/Third_Party/LwIP/src/core/tcp_out.c ****  * @return ERR_OK if data has been sent or nothing to send
1234:Middlewares/Third_Party/LwIP/src/core/tcp_out.c ****  *         another err_t on error
1235:Middlewares/Third_Party/LwIP/src/core/tcp_out.c ****  */
ARM GAS  /tmp/ccMjT2X9.s 			page 26


1236:Middlewares/Third_Party/LwIP/src/core/tcp_out.c **** err_t
1237:Middlewares/Third_Party/LwIP/src/core/tcp_out.c **** tcp_output(struct tcp_pcb *pcb)
1238:Middlewares/Third_Party/LwIP/src/core/tcp_out.c **** {
1239:Middlewares/Third_Party/LwIP/src/core/tcp_out.c ****   struct tcp_seg *seg, *useg;
1240:Middlewares/Third_Party/LwIP/src/core/tcp_out.c ****   u32_t wnd, snd_nxt;
1241:Middlewares/Third_Party/LwIP/src/core/tcp_out.c ****   err_t err;
1242:Middlewares/Third_Party/LwIP/src/core/tcp_out.c ****   struct netif *netif;
1243:Middlewares/Third_Party/LwIP/src/core/tcp_out.c **** #if TCP_CWND_DEBUG
1244:Middlewares/Third_Party/LwIP/src/core/tcp_out.c ****   s16_t i = 0;
1245:Middlewares/Third_Party/LwIP/src/core/tcp_out.c **** #endif /* TCP_CWND_DEBUG */
1246:Middlewares/Third_Party/LwIP/src/core/tcp_out.c **** 
1247:Middlewares/Third_Party/LwIP/src/core/tcp_out.c ****   LWIP_ASSERT_CORE_LOCKED();
1248:Middlewares/Third_Party/LwIP/src/core/tcp_out.c **** 
1249:Middlewares/Third_Party/LwIP/src/core/tcp_out.c ****   LWIP_ASSERT("tcp_output: invalid pcb", pcb != NULL);
1250:Middlewares/Third_Party/LwIP/src/core/tcp_out.c ****   /* pcb->state LISTEN not allowed here */
1251:Middlewares/Third_Party/LwIP/src/core/tcp_out.c ****   LWIP_ASSERT("don't call tcp_output for listen-pcbs",
1252:Middlewares/Third_Party/LwIP/src/core/tcp_out.c ****               pcb->state != LISTEN);
1253:Middlewares/Third_Party/LwIP/src/core/tcp_out.c **** 
1254:Middlewares/Third_Party/LwIP/src/core/tcp_out.c ****   /* First, check if we are invoked by the TCP input processing
1255:Middlewares/Third_Party/LwIP/src/core/tcp_out.c ****      code. If so, we do not output anything. Instead, we rely on the
1256:Middlewares/Third_Party/LwIP/src/core/tcp_out.c ****      input processing code to call us when input processing is done
1257:Middlewares/Third_Party/LwIP/src/core/tcp_out.c ****      with. */
1258:Middlewares/Third_Party/LwIP/src/core/tcp_out.c ****   if (tcp_input_pcb == pcb) {
1259:Middlewares/Third_Party/LwIP/src/core/tcp_out.c ****     return ERR_OK;
1260:Middlewares/Third_Party/LwIP/src/core/tcp_out.c ****   }
1261:Middlewares/Third_Party/LwIP/src/core/tcp_out.c **** 
1262:Middlewares/Third_Party/LwIP/src/core/tcp_out.c ****   wnd = LWIP_MIN(pcb->snd_wnd, pcb->cwnd);
1263:Middlewares/Third_Party/LwIP/src/core/tcp_out.c **** 
1264:Middlewares/Third_Party/LwIP/src/core/tcp_out.c ****   seg = pcb->unsent;
1265:Middlewares/Third_Party/LwIP/src/core/tcp_out.c **** 
1266:Middlewares/Third_Party/LwIP/src/core/tcp_out.c ****   if (seg == NULL) {
1267:Middlewares/Third_Party/LwIP/src/core/tcp_out.c ****     LWIP_DEBUGF(TCP_OUTPUT_DEBUG, ("tcp_output: nothing to send (%p)\n",
1268:Middlewares/Third_Party/LwIP/src/core/tcp_out.c ****                                    (void *)pcb->unsent));
1269:Middlewares/Third_Party/LwIP/src/core/tcp_out.c ****     LWIP_DEBUGF(TCP_CWND_DEBUG, ("tcp_output: snd_wnd %"TCPWNDSIZE_F
1270:Middlewares/Third_Party/LwIP/src/core/tcp_out.c ****                                  ", cwnd %"TCPWNDSIZE_F", wnd %"U32_F
1271:Middlewares/Third_Party/LwIP/src/core/tcp_out.c ****                                  ", seg == NULL, ack %"U32_F"\n",
1272:Middlewares/Third_Party/LwIP/src/core/tcp_out.c ****                                  pcb->snd_wnd, pcb->cwnd, wnd, pcb->lastack));
1273:Middlewares/Third_Party/LwIP/src/core/tcp_out.c **** 
1274:Middlewares/Third_Party/LwIP/src/core/tcp_out.c ****     /* If the TF_ACK_NOW flag is set and the ->unsent queue is empty, construct
1275:Middlewares/Third_Party/LwIP/src/core/tcp_out.c ****      * an empty ACK segment and send it. */
1276:Middlewares/Third_Party/LwIP/src/core/tcp_out.c ****     if (pcb->flags & TF_ACK_NOW) {
1277:Middlewares/Third_Party/LwIP/src/core/tcp_out.c ****       return tcp_send_empty_ack(pcb);
1278:Middlewares/Third_Party/LwIP/src/core/tcp_out.c ****     }
1279:Middlewares/Third_Party/LwIP/src/core/tcp_out.c ****     /* nothing to send: shortcut out of here */
1280:Middlewares/Third_Party/LwIP/src/core/tcp_out.c ****     goto output_done;
1281:Middlewares/Third_Party/LwIP/src/core/tcp_out.c ****   } else {
1282:Middlewares/Third_Party/LwIP/src/core/tcp_out.c ****     LWIP_DEBUGF(TCP_CWND_DEBUG,
1283:Middlewares/Third_Party/LwIP/src/core/tcp_out.c ****                 ("tcp_output: snd_wnd %"TCPWNDSIZE_F", cwnd %"TCPWNDSIZE_F", wnd %"U32_F
1284:Middlewares/Third_Party/LwIP/src/core/tcp_out.c ****                  ", effwnd %"U32_F", seq %"U32_F", ack %"U32_F"\n",
1285:Middlewares/Third_Party/LwIP/src/core/tcp_out.c ****                  pcb->snd_wnd, pcb->cwnd, wnd,
1286:Middlewares/Third_Party/LwIP/src/core/tcp_out.c ****                  lwip_ntohl(seg->tcphdr->seqno) - pcb->lastack + seg->len,
1287:Middlewares/Third_Party/LwIP/src/core/tcp_out.c ****                  lwip_ntohl(seg->tcphdr->seqno), pcb->lastack));
1288:Middlewares/Third_Party/LwIP/src/core/tcp_out.c ****   }
1289:Middlewares/Third_Party/LwIP/src/core/tcp_out.c **** 
1290:Middlewares/Third_Party/LwIP/src/core/tcp_out.c ****   netif = tcp_route(pcb, &pcb->local_ip, &pcb->remote_ip);
1291:Middlewares/Third_Party/LwIP/src/core/tcp_out.c ****   if (netif == NULL) {
1292:Middlewares/Third_Party/LwIP/src/core/tcp_out.c ****     return ERR_RTE;
ARM GAS  /tmp/ccMjT2X9.s 			page 27


1293:Middlewares/Third_Party/LwIP/src/core/tcp_out.c ****   }
1294:Middlewares/Third_Party/LwIP/src/core/tcp_out.c **** 
1295:Middlewares/Third_Party/LwIP/src/core/tcp_out.c ****   /* If we don't have a local IP address, we get one from netif */
1296:Middlewares/Third_Party/LwIP/src/core/tcp_out.c ****   if (ip_addr_isany(&pcb->local_ip)) {
1297:Middlewares/Third_Party/LwIP/src/core/tcp_out.c ****     const ip_addr_t *local_ip = ip_netif_get_local_ip(netif, &pcb->remote_ip);
1298:Middlewares/Third_Party/LwIP/src/core/tcp_out.c ****     if (local_ip == NULL) {
1299:Middlewares/Third_Party/LwIP/src/core/tcp_out.c ****       return ERR_RTE;
1300:Middlewares/Third_Party/LwIP/src/core/tcp_out.c ****     }
1301:Middlewares/Third_Party/LwIP/src/core/tcp_out.c ****     ip_addr_copy(pcb->local_ip, *local_ip);
1302:Middlewares/Third_Party/LwIP/src/core/tcp_out.c ****   }
1303:Middlewares/Third_Party/LwIP/src/core/tcp_out.c **** 
1304:Middlewares/Third_Party/LwIP/src/core/tcp_out.c ****   /* Handle the current segment not fitting within the window */
1305:Middlewares/Third_Party/LwIP/src/core/tcp_out.c ****   if (lwip_ntohl(seg->tcphdr->seqno) - pcb->lastack + seg->len > wnd) {
1306:Middlewares/Third_Party/LwIP/src/core/tcp_out.c ****     /* We need to start the persistent timer when the next unsent segment does not fit
1307:Middlewares/Third_Party/LwIP/src/core/tcp_out.c ****      * within the remaining (could be 0) send window and RTO timer is not running (we
1308:Middlewares/Third_Party/LwIP/src/core/tcp_out.c ****      * have no in-flight data). If window is still too small after persist timer fires,
1309:Middlewares/Third_Party/LwIP/src/core/tcp_out.c ****      * then we split the segment. We don't consider the congestion window since a cwnd
1310:Middlewares/Third_Party/LwIP/src/core/tcp_out.c ****      * smaller than 1 SMSS implies in-flight data
1311:Middlewares/Third_Party/LwIP/src/core/tcp_out.c ****      */
1312:Middlewares/Third_Party/LwIP/src/core/tcp_out.c ****     if (wnd == pcb->snd_wnd && pcb->unacked == NULL && pcb->persist_backoff == 0) {
1313:Middlewares/Third_Party/LwIP/src/core/tcp_out.c ****       pcb->persist_cnt = 0;
1314:Middlewares/Third_Party/LwIP/src/core/tcp_out.c ****       pcb->persist_backoff = 1;
1315:Middlewares/Third_Party/LwIP/src/core/tcp_out.c ****       pcb->persist_probe = 0;
1316:Middlewares/Third_Party/LwIP/src/core/tcp_out.c ****     }
1317:Middlewares/Third_Party/LwIP/src/core/tcp_out.c ****     /* We need an ACK, but can't send data now, so send an empty ACK */
1318:Middlewares/Third_Party/LwIP/src/core/tcp_out.c ****     if (pcb->flags & TF_ACK_NOW) {
1319:Middlewares/Third_Party/LwIP/src/core/tcp_out.c ****       return tcp_send_empty_ack(pcb);
1320:Middlewares/Third_Party/LwIP/src/core/tcp_out.c ****     }
1321:Middlewares/Third_Party/LwIP/src/core/tcp_out.c ****     goto output_done;
1322:Middlewares/Third_Party/LwIP/src/core/tcp_out.c ****   }
1323:Middlewares/Third_Party/LwIP/src/core/tcp_out.c ****   /* Stop persist timer, above conditions are not active */
1324:Middlewares/Third_Party/LwIP/src/core/tcp_out.c ****   pcb->persist_backoff = 0;
1325:Middlewares/Third_Party/LwIP/src/core/tcp_out.c **** 
1326:Middlewares/Third_Party/LwIP/src/core/tcp_out.c ****   /* useg should point to last segment on unacked queue */
1327:Middlewares/Third_Party/LwIP/src/core/tcp_out.c ****   useg = pcb->unacked;
1328:Middlewares/Third_Party/LwIP/src/core/tcp_out.c ****   if (useg != NULL) {
1329:Middlewares/Third_Party/LwIP/src/core/tcp_out.c ****     for (; useg->next != NULL; useg = useg->next);
1330:Middlewares/Third_Party/LwIP/src/core/tcp_out.c ****   }
1331:Middlewares/Third_Party/LwIP/src/core/tcp_out.c ****   /* data available and window allows it to be sent? */
1332:Middlewares/Third_Party/LwIP/src/core/tcp_out.c ****   while (seg != NULL &&
1333:Middlewares/Third_Party/LwIP/src/core/tcp_out.c ****          lwip_ntohl(seg->tcphdr->seqno) - pcb->lastack + seg->len <= wnd) {
1334:Middlewares/Third_Party/LwIP/src/core/tcp_out.c ****     LWIP_ASSERT("RST not expected here!",
1335:Middlewares/Third_Party/LwIP/src/core/tcp_out.c ****                 (TCPH_FLAGS(seg->tcphdr) & TCP_RST) == 0);
1336:Middlewares/Third_Party/LwIP/src/core/tcp_out.c ****     /* Stop sending if the nagle algorithm would prevent it
1337:Middlewares/Third_Party/LwIP/src/core/tcp_out.c ****      * Don't stop:
1338:Middlewares/Third_Party/LwIP/src/core/tcp_out.c ****      * - if tcp_write had a memory error before (prevent delayed ACK timeout) or
1339:Middlewares/Third_Party/LwIP/src/core/tcp_out.c ****      * - if FIN was already enqueued for this PCB (SYN is always alone in a segment -
1340:Middlewares/Third_Party/LwIP/src/core/tcp_out.c ****      *   either seg->next != NULL or pcb->unacked == NULL;
1341:Middlewares/Third_Party/LwIP/src/core/tcp_out.c ****      *   RST is no sent using tcp_write/tcp_output.
1342:Middlewares/Third_Party/LwIP/src/core/tcp_out.c ****      */
1343:Middlewares/Third_Party/LwIP/src/core/tcp_out.c ****     if ((tcp_do_output_nagle(pcb) == 0) &&
1344:Middlewares/Third_Party/LwIP/src/core/tcp_out.c ****         ((pcb->flags & (TF_NAGLEMEMERR | TF_FIN)) == 0)) {
1345:Middlewares/Third_Party/LwIP/src/core/tcp_out.c ****       break;
1346:Middlewares/Third_Party/LwIP/src/core/tcp_out.c ****     }
1347:Middlewares/Third_Party/LwIP/src/core/tcp_out.c **** #if TCP_CWND_DEBUG
1348:Middlewares/Third_Party/LwIP/src/core/tcp_out.c ****     LWIP_DEBUGF(TCP_CWND_DEBUG, ("tcp_output: snd_wnd %"TCPWNDSIZE_F", cwnd %"TCPWNDSIZE_F", wnd %"
1349:Middlewares/Third_Party/LwIP/src/core/tcp_out.c ****                                  pcb->snd_wnd, pcb->cwnd, wnd,
ARM GAS  /tmp/ccMjT2X9.s 			page 28


1350:Middlewares/Third_Party/LwIP/src/core/tcp_out.c ****                                  lwip_ntohl(seg->tcphdr->seqno) + seg->len -
1351:Middlewares/Third_Party/LwIP/src/core/tcp_out.c ****                                  pcb->lastack,
1352:Middlewares/Third_Party/LwIP/src/core/tcp_out.c ****                                  lwip_ntohl(seg->tcphdr->seqno), pcb->lastack, i));
1353:Middlewares/Third_Party/LwIP/src/core/tcp_out.c ****     ++i;
1354:Middlewares/Third_Party/LwIP/src/core/tcp_out.c **** #endif /* TCP_CWND_DEBUG */
1355:Middlewares/Third_Party/LwIP/src/core/tcp_out.c **** 
1356:Middlewares/Third_Party/LwIP/src/core/tcp_out.c ****     if (pcb->state != SYN_SENT) {
1357:Middlewares/Third_Party/LwIP/src/core/tcp_out.c ****       TCPH_SET_FLAG(seg->tcphdr, TCP_ACK);
1358:Middlewares/Third_Party/LwIP/src/core/tcp_out.c ****     }
1359:Middlewares/Third_Party/LwIP/src/core/tcp_out.c **** 
1360:Middlewares/Third_Party/LwIP/src/core/tcp_out.c ****     err = tcp_output_segment(seg, pcb, netif);
1361:Middlewares/Third_Party/LwIP/src/core/tcp_out.c ****     if (err != ERR_OK) {
1362:Middlewares/Third_Party/LwIP/src/core/tcp_out.c ****       /* segment could not be sent, for whatever reason */
1363:Middlewares/Third_Party/LwIP/src/core/tcp_out.c ****       tcp_set_flags(pcb, TF_NAGLEMEMERR);
1364:Middlewares/Third_Party/LwIP/src/core/tcp_out.c ****       return err;
1365:Middlewares/Third_Party/LwIP/src/core/tcp_out.c ****     }
1366:Middlewares/Third_Party/LwIP/src/core/tcp_out.c **** #if TCP_OVERSIZE_DBGCHECK
1367:Middlewares/Third_Party/LwIP/src/core/tcp_out.c ****     seg->oversize_left = 0;
1368:Middlewares/Third_Party/LwIP/src/core/tcp_out.c **** #endif /* TCP_OVERSIZE_DBGCHECK */
1369:Middlewares/Third_Party/LwIP/src/core/tcp_out.c ****     pcb->unsent = seg->next;
1370:Middlewares/Third_Party/LwIP/src/core/tcp_out.c ****     if (pcb->state != SYN_SENT) {
1371:Middlewares/Third_Party/LwIP/src/core/tcp_out.c ****       tcp_clear_flags(pcb, TF_ACK_DELAY | TF_ACK_NOW);
1372:Middlewares/Third_Party/LwIP/src/core/tcp_out.c ****     }
1373:Middlewares/Third_Party/LwIP/src/core/tcp_out.c ****     snd_nxt = lwip_ntohl(seg->tcphdr->seqno) + TCP_TCPLEN(seg);
1374:Middlewares/Third_Party/LwIP/src/core/tcp_out.c ****     if (TCP_SEQ_LT(pcb->snd_nxt, snd_nxt)) {
1375:Middlewares/Third_Party/LwIP/src/core/tcp_out.c ****       pcb->snd_nxt = snd_nxt;
1376:Middlewares/Third_Party/LwIP/src/core/tcp_out.c ****     }
1377:Middlewares/Third_Party/LwIP/src/core/tcp_out.c ****     /* put segment on unacknowledged list if length > 0 */
1378:Middlewares/Third_Party/LwIP/src/core/tcp_out.c ****     if (TCP_TCPLEN(seg) > 0) {
1379:Middlewares/Third_Party/LwIP/src/core/tcp_out.c ****       seg->next = NULL;
1380:Middlewares/Third_Party/LwIP/src/core/tcp_out.c ****       /* unacked list is empty? */
1381:Middlewares/Third_Party/LwIP/src/core/tcp_out.c ****       if (pcb->unacked == NULL) {
1382:Middlewares/Third_Party/LwIP/src/core/tcp_out.c ****         pcb->unacked = seg;
1383:Middlewares/Third_Party/LwIP/src/core/tcp_out.c ****         useg = seg;
1384:Middlewares/Third_Party/LwIP/src/core/tcp_out.c ****         /* unacked list is not empty? */
1385:Middlewares/Third_Party/LwIP/src/core/tcp_out.c ****       } else {
1386:Middlewares/Third_Party/LwIP/src/core/tcp_out.c ****         /* In the case of fast retransmit, the packet should not go to the tail
1387:Middlewares/Third_Party/LwIP/src/core/tcp_out.c ****          * of the unacked queue, but rather somewhere before it. We need to check for
1388:Middlewares/Third_Party/LwIP/src/core/tcp_out.c ****          * this case. -STJ Jul 27, 2004 */
1389:Middlewares/Third_Party/LwIP/src/core/tcp_out.c ****         if (TCP_SEQ_LT(lwip_ntohl(seg->tcphdr->seqno), lwip_ntohl(useg->tcphdr->seqno))) {
1390:Middlewares/Third_Party/LwIP/src/core/tcp_out.c ****           /* add segment to before tail of unacked list, keeping the list sorted */
1391:Middlewares/Third_Party/LwIP/src/core/tcp_out.c ****           struct tcp_seg **cur_seg = &(pcb->unacked);
1392:Middlewares/Third_Party/LwIP/src/core/tcp_out.c ****           while (*cur_seg &&
1393:Middlewares/Third_Party/LwIP/src/core/tcp_out.c ****                  TCP_SEQ_LT(lwip_ntohl((*cur_seg)->tcphdr->seqno), lwip_ntohl(seg->tcphdr->seqno)))
1394:Middlewares/Third_Party/LwIP/src/core/tcp_out.c ****             cur_seg = &((*cur_seg)->next );
1395:Middlewares/Third_Party/LwIP/src/core/tcp_out.c ****           }
1396:Middlewares/Third_Party/LwIP/src/core/tcp_out.c ****           seg->next = (*cur_seg);
1397:Middlewares/Third_Party/LwIP/src/core/tcp_out.c ****           (*cur_seg) = seg;
1398:Middlewares/Third_Party/LwIP/src/core/tcp_out.c ****         } else {
1399:Middlewares/Third_Party/LwIP/src/core/tcp_out.c ****           /* add segment to tail of unacked list */
1400:Middlewares/Third_Party/LwIP/src/core/tcp_out.c ****           useg->next = seg;
1401:Middlewares/Third_Party/LwIP/src/core/tcp_out.c ****           useg = useg->next;
1402:Middlewares/Third_Party/LwIP/src/core/tcp_out.c ****         }
1403:Middlewares/Third_Party/LwIP/src/core/tcp_out.c ****       }
1404:Middlewares/Third_Party/LwIP/src/core/tcp_out.c ****       /* do not queue empty segments on the unacked list */
1405:Middlewares/Third_Party/LwIP/src/core/tcp_out.c ****     } else {
1406:Middlewares/Third_Party/LwIP/src/core/tcp_out.c ****       tcp_seg_free(seg);
ARM GAS  /tmp/ccMjT2X9.s 			page 29


1407:Middlewares/Third_Party/LwIP/src/core/tcp_out.c ****     }
1408:Middlewares/Third_Party/LwIP/src/core/tcp_out.c ****     seg = pcb->unsent;
1409:Middlewares/Third_Party/LwIP/src/core/tcp_out.c ****   }
1410:Middlewares/Third_Party/LwIP/src/core/tcp_out.c **** #if TCP_OVERSIZE
1411:Middlewares/Third_Party/LwIP/src/core/tcp_out.c ****   if (pcb->unsent == NULL) {
1412:Middlewares/Third_Party/LwIP/src/core/tcp_out.c ****     /* last unsent has been removed, reset unsent_oversize */
1413:Middlewares/Third_Party/LwIP/src/core/tcp_out.c ****     pcb->unsent_oversize = 0;
1414:Middlewares/Third_Party/LwIP/src/core/tcp_out.c ****   }
1415:Middlewares/Third_Party/LwIP/src/core/tcp_out.c **** #endif /* TCP_OVERSIZE */
1416:Middlewares/Third_Party/LwIP/src/core/tcp_out.c **** 
1417:Middlewares/Third_Party/LwIP/src/core/tcp_out.c **** output_done:
1418:Middlewares/Third_Party/LwIP/src/core/tcp_out.c ****   tcp_clear_flags(pcb, TF_NAGLEMEMERR);
1419:Middlewares/Third_Party/LwIP/src/core/tcp_out.c ****   return ERR_OK;
1420:Middlewares/Third_Party/LwIP/src/core/tcp_out.c **** }
1421:Middlewares/Third_Party/LwIP/src/core/tcp_out.c **** 
1422:Middlewares/Third_Party/LwIP/src/core/tcp_out.c **** /** Check if a segment's pbufs are used by someone else than TCP.
1423:Middlewares/Third_Party/LwIP/src/core/tcp_out.c ****  * This can happen on retransmission if the pbuf of this segment is still
1424:Middlewares/Third_Party/LwIP/src/core/tcp_out.c ****  * referenced by the netif driver due to deferred transmission.
1425:Middlewares/Third_Party/LwIP/src/core/tcp_out.c ****  * This is the case (only!) if someone down the TX call path called
1426:Middlewares/Third_Party/LwIP/src/core/tcp_out.c ****  * pbuf_ref() on one of the pbufs!
1427:Middlewares/Third_Party/LwIP/src/core/tcp_out.c ****  *
1428:Middlewares/Third_Party/LwIP/src/core/tcp_out.c ****  * @arg seg the tcp segment to check
1429:Middlewares/Third_Party/LwIP/src/core/tcp_out.c ****  * @return 1 if ref != 1, 0 if ref == 1
1430:Middlewares/Third_Party/LwIP/src/core/tcp_out.c ****  */
1431:Middlewares/Third_Party/LwIP/src/core/tcp_out.c **** static int
1432:Middlewares/Third_Party/LwIP/src/core/tcp_out.c **** tcp_output_segment_busy(const struct tcp_seg *seg)
1433:Middlewares/Third_Party/LwIP/src/core/tcp_out.c **** {
 182              		.loc 1 1433 0
 183              		.cfi_startproc
 184              		@ args = 0, pretend = 0, frame = 0
 185              		@ frame_needed = 0, uses_anonymous_args = 0
 186              	.LVL16:
 187 0000 10B5     		push	{r4, lr}
 188              	.LCFI1:
 189              		.cfi_def_cfa_offset 8
 190              		.cfi_offset 4, -8
 191              		.cfi_offset 14, -4
1434:Middlewares/Third_Party/LwIP/src/core/tcp_out.c ****   LWIP_ASSERT("tcp_output_segment_busy: invalid seg", seg != NULL);
 192              		.loc 1 1434 0
 193 0002 0446     		mov	r4, r0
 194 0004 28B1     		cbz	r0, .L28
 195              	.LVL17:
 196              	.L24:
1435:Middlewares/Third_Party/LwIP/src/core/tcp_out.c **** 
1436:Middlewares/Third_Party/LwIP/src/core/tcp_out.c ****   /* We only need to check the first pbuf here:
1437:Middlewares/Third_Party/LwIP/src/core/tcp_out.c ****      If a pbuf is queued for transmission, a driver calls pbuf_ref(),
1438:Middlewares/Third_Party/LwIP/src/core/tcp_out.c ****      which only changes the ref count of the first pbuf */
1439:Middlewares/Third_Party/LwIP/src/core/tcp_out.c ****   if (seg->p->ref != 1) {
 197              		.loc 1 1439 0
 198 0006 6368     		ldr	r3, [r4, #4]
 199 0008 9B7B     		ldrb	r3, [r3, #14]	@ zero_extendqisi2
 200 000a 012B     		cmp	r3, #1
 201 000c 09D0     		beq	.L26
1440:Middlewares/Third_Party/LwIP/src/core/tcp_out.c ****     /* other reference found */
1441:Middlewares/Third_Party/LwIP/src/core/tcp_out.c ****     return 1;
 202              		.loc 1 1441 0
 203 000e 0120     		movs	r0, #1
ARM GAS  /tmp/ccMjT2X9.s 			page 30


 204 0010 10BD     		pop	{r4, pc}
 205              	.LVL18:
 206              	.L28:
1434:Middlewares/Third_Party/LwIP/src/core/tcp_out.c **** 
 207              		.loc 1 1434 0 discriminator 1
 208 0012 054B     		ldr	r3, .L29
 209 0014 40F29A52 		movw	r2, #1434
 210 0018 0449     		ldr	r1, .L29+4
 211 001a 0548     		ldr	r0, .L29+8
 212              	.LVL19:
 213 001c FFF7FEFF 		bl	printf
 214              	.LVL20:
 215 0020 F1E7     		b	.L24
 216              	.L26:
1442:Middlewares/Third_Party/LwIP/src/core/tcp_out.c ****   }
1443:Middlewares/Third_Party/LwIP/src/core/tcp_out.c ****   /* no other references found */
1444:Middlewares/Third_Party/LwIP/src/core/tcp_out.c ****   return 0;
 217              		.loc 1 1444 0
 218 0022 0020     		movs	r0, #0
1445:Middlewares/Third_Party/LwIP/src/core/tcp_out.c **** }
 219              		.loc 1 1445 0
 220 0024 10BD     		pop	{r4, pc}
 221              	.LVL21:
 222              	.L30:
 223 0026 00BF     		.align	2
 224              	.L29:
 225 0028 00000000 		.word	.LC0
 226 002c 00000000 		.word	.LC5
 227 0030 50000000 		.word	.LC2
 228              		.cfi_endproc
 229              	.LFE167:
 231              		.section	.text.tcp_output_fill_options,"ax",%progbits
 232              		.align	1
 233              		.syntax unified
 234              		.thumb
 235              		.thumb_func
 236              		.fpu fpv5-d16
 238              	tcp_output_fill_options:
 239              	.LFB176:
1446:Middlewares/Third_Party/LwIP/src/core/tcp_out.c **** 
1447:Middlewares/Third_Party/LwIP/src/core/tcp_out.c **** /**
1448:Middlewares/Third_Party/LwIP/src/core/tcp_out.c ****  * Called by tcp_output() to actually send a TCP segment over IP.
1449:Middlewares/Third_Party/LwIP/src/core/tcp_out.c ****  *
1450:Middlewares/Third_Party/LwIP/src/core/tcp_out.c ****  * @param seg the tcp_seg to send
1451:Middlewares/Third_Party/LwIP/src/core/tcp_out.c ****  * @param pcb the tcp_pcb for the TCP connection used to send the segment
1452:Middlewares/Third_Party/LwIP/src/core/tcp_out.c ****  * @param netif the netif used to send the segment
1453:Middlewares/Third_Party/LwIP/src/core/tcp_out.c ****  */
1454:Middlewares/Third_Party/LwIP/src/core/tcp_out.c **** static err_t
1455:Middlewares/Third_Party/LwIP/src/core/tcp_out.c **** tcp_output_segment(struct tcp_seg *seg, struct tcp_pcb *pcb, struct netif *netif)
1456:Middlewares/Third_Party/LwIP/src/core/tcp_out.c **** {
1457:Middlewares/Third_Party/LwIP/src/core/tcp_out.c ****   err_t err;
1458:Middlewares/Third_Party/LwIP/src/core/tcp_out.c ****   u16_t len;
1459:Middlewares/Third_Party/LwIP/src/core/tcp_out.c ****   u32_t *opts;
1460:Middlewares/Third_Party/LwIP/src/core/tcp_out.c **** #if TCP_CHECKSUM_ON_COPY
1461:Middlewares/Third_Party/LwIP/src/core/tcp_out.c ****   int seg_chksum_was_swapped = 0;
1462:Middlewares/Third_Party/LwIP/src/core/tcp_out.c **** #endif
1463:Middlewares/Third_Party/LwIP/src/core/tcp_out.c **** 
ARM GAS  /tmp/ccMjT2X9.s 			page 31


1464:Middlewares/Third_Party/LwIP/src/core/tcp_out.c ****   LWIP_ASSERT("tcp_output_segment: invalid seg", seg != NULL);
1465:Middlewares/Third_Party/LwIP/src/core/tcp_out.c ****   LWIP_ASSERT("tcp_output_segment: invalid pcb", pcb != NULL);
1466:Middlewares/Third_Party/LwIP/src/core/tcp_out.c ****   LWIP_ASSERT("tcp_output_segment: invalid netif", netif != NULL);
1467:Middlewares/Third_Party/LwIP/src/core/tcp_out.c **** 
1468:Middlewares/Third_Party/LwIP/src/core/tcp_out.c ****   if (tcp_output_segment_busy(seg)) {
1469:Middlewares/Third_Party/LwIP/src/core/tcp_out.c ****     /* This should not happen: rexmit functions should have checked this.
1470:Middlewares/Third_Party/LwIP/src/core/tcp_out.c ****        However, since this function modifies p->len, we must not continue in this case. */
1471:Middlewares/Third_Party/LwIP/src/core/tcp_out.c ****     LWIP_DEBUGF(TCP_RTO_DEBUG | LWIP_DBG_LEVEL_SERIOUS, ("tcp_output_segment: segment busy\n"));
1472:Middlewares/Third_Party/LwIP/src/core/tcp_out.c ****     return ERR_OK;
1473:Middlewares/Third_Party/LwIP/src/core/tcp_out.c ****   }
1474:Middlewares/Third_Party/LwIP/src/core/tcp_out.c **** 
1475:Middlewares/Third_Party/LwIP/src/core/tcp_out.c ****   /* The TCP header has already been constructed, but the ackno and
1476:Middlewares/Third_Party/LwIP/src/core/tcp_out.c ****    wnd fields remain. */
1477:Middlewares/Third_Party/LwIP/src/core/tcp_out.c ****   seg->tcphdr->ackno = lwip_htonl(pcb->rcv_nxt);
1478:Middlewares/Third_Party/LwIP/src/core/tcp_out.c **** 
1479:Middlewares/Third_Party/LwIP/src/core/tcp_out.c ****   /* advertise our receive window size in this TCP segment */
1480:Middlewares/Third_Party/LwIP/src/core/tcp_out.c **** #if LWIP_WND_SCALE
1481:Middlewares/Third_Party/LwIP/src/core/tcp_out.c ****   if (seg->flags & TF_SEG_OPTS_WND_SCALE) {
1482:Middlewares/Third_Party/LwIP/src/core/tcp_out.c ****     /* The Window field in a SYN segment itself (the only type where we send
1483:Middlewares/Third_Party/LwIP/src/core/tcp_out.c ****        the window scale option) is never scaled. */
1484:Middlewares/Third_Party/LwIP/src/core/tcp_out.c ****     seg->tcphdr->wnd = lwip_htons(TCPWND_MIN16(pcb->rcv_ann_wnd));
1485:Middlewares/Third_Party/LwIP/src/core/tcp_out.c ****   } else
1486:Middlewares/Third_Party/LwIP/src/core/tcp_out.c **** #endif /* LWIP_WND_SCALE */
1487:Middlewares/Third_Party/LwIP/src/core/tcp_out.c ****   {
1488:Middlewares/Third_Party/LwIP/src/core/tcp_out.c ****     seg->tcphdr->wnd = lwip_htons(TCPWND_MIN16(RCV_WND_SCALE(pcb, pcb->rcv_ann_wnd)));
1489:Middlewares/Third_Party/LwIP/src/core/tcp_out.c ****   }
1490:Middlewares/Third_Party/LwIP/src/core/tcp_out.c **** 
1491:Middlewares/Third_Party/LwIP/src/core/tcp_out.c ****   pcb->rcv_ann_right_edge = pcb->rcv_nxt + pcb->rcv_ann_wnd;
1492:Middlewares/Third_Party/LwIP/src/core/tcp_out.c **** 
1493:Middlewares/Third_Party/LwIP/src/core/tcp_out.c ****   /* Add any requested options.  NB MSS option is only set on SYN
1494:Middlewares/Third_Party/LwIP/src/core/tcp_out.c ****      packets, so ignore it here */
1495:Middlewares/Third_Party/LwIP/src/core/tcp_out.c ****   /* cast through void* to get rid of alignment warnings */
1496:Middlewares/Third_Party/LwIP/src/core/tcp_out.c ****   opts = (u32_t *)(void *)(seg->tcphdr + 1);
1497:Middlewares/Third_Party/LwIP/src/core/tcp_out.c ****   if (seg->flags & TF_SEG_OPTS_MSS) {
1498:Middlewares/Third_Party/LwIP/src/core/tcp_out.c ****     u16_t mss;
1499:Middlewares/Third_Party/LwIP/src/core/tcp_out.c **** #if TCP_CALCULATE_EFF_SEND_MSS
1500:Middlewares/Third_Party/LwIP/src/core/tcp_out.c ****     mss = tcp_eff_send_mss_netif(TCP_MSS, netif, &pcb->remote_ip);
1501:Middlewares/Third_Party/LwIP/src/core/tcp_out.c **** #else /* TCP_CALCULATE_EFF_SEND_MSS */
1502:Middlewares/Third_Party/LwIP/src/core/tcp_out.c ****     mss = TCP_MSS;
1503:Middlewares/Third_Party/LwIP/src/core/tcp_out.c **** #endif /* TCP_CALCULATE_EFF_SEND_MSS */
1504:Middlewares/Third_Party/LwIP/src/core/tcp_out.c ****     *opts = TCP_BUILD_MSS_OPTION(mss);
1505:Middlewares/Third_Party/LwIP/src/core/tcp_out.c ****     opts += 1;
1506:Middlewares/Third_Party/LwIP/src/core/tcp_out.c ****   }
1507:Middlewares/Third_Party/LwIP/src/core/tcp_out.c **** #if LWIP_TCP_TIMESTAMPS
1508:Middlewares/Third_Party/LwIP/src/core/tcp_out.c ****   pcb->ts_lastacksent = pcb->rcv_nxt;
1509:Middlewares/Third_Party/LwIP/src/core/tcp_out.c **** 
1510:Middlewares/Third_Party/LwIP/src/core/tcp_out.c ****   if (seg->flags & TF_SEG_OPTS_TS) {
1511:Middlewares/Third_Party/LwIP/src/core/tcp_out.c ****     tcp_build_timestamp_option(pcb, opts);
1512:Middlewares/Third_Party/LwIP/src/core/tcp_out.c ****     opts += 3;
1513:Middlewares/Third_Party/LwIP/src/core/tcp_out.c ****   }
1514:Middlewares/Third_Party/LwIP/src/core/tcp_out.c **** #endif
1515:Middlewares/Third_Party/LwIP/src/core/tcp_out.c **** #if LWIP_WND_SCALE
1516:Middlewares/Third_Party/LwIP/src/core/tcp_out.c ****   if (seg->flags & TF_SEG_OPTS_WND_SCALE) {
1517:Middlewares/Third_Party/LwIP/src/core/tcp_out.c ****     tcp_build_wnd_scale_option(opts);
1518:Middlewares/Third_Party/LwIP/src/core/tcp_out.c ****     opts += 1;
1519:Middlewares/Third_Party/LwIP/src/core/tcp_out.c ****   }
1520:Middlewares/Third_Party/LwIP/src/core/tcp_out.c **** #endif
ARM GAS  /tmp/ccMjT2X9.s 			page 32


1521:Middlewares/Third_Party/LwIP/src/core/tcp_out.c **** #if LWIP_TCP_SACK_OUT
1522:Middlewares/Third_Party/LwIP/src/core/tcp_out.c ****   if (seg->flags & TF_SEG_OPTS_SACK_PERM) {
1523:Middlewares/Third_Party/LwIP/src/core/tcp_out.c ****     /* Pad with two NOP options to make everything nicely aligned
1524:Middlewares/Third_Party/LwIP/src/core/tcp_out.c ****      * NOTE: When we send both timestamp and SACK_PERM options,
1525:Middlewares/Third_Party/LwIP/src/core/tcp_out.c ****      * we could use the first two NOPs before the timestamp to store SACK_PERM option,
1526:Middlewares/Third_Party/LwIP/src/core/tcp_out.c ****      * but that would complicate the code.
1527:Middlewares/Third_Party/LwIP/src/core/tcp_out.c ****      */
1528:Middlewares/Third_Party/LwIP/src/core/tcp_out.c ****     *(opts++) = PP_HTONL(0x01010402);
1529:Middlewares/Third_Party/LwIP/src/core/tcp_out.c ****   }
1530:Middlewares/Third_Party/LwIP/src/core/tcp_out.c **** #endif
1531:Middlewares/Third_Party/LwIP/src/core/tcp_out.c **** 
1532:Middlewares/Third_Party/LwIP/src/core/tcp_out.c ****   /* Set retransmission timer running if it is not currently enabled
1533:Middlewares/Third_Party/LwIP/src/core/tcp_out.c ****      This must be set before checking the route. */
1534:Middlewares/Third_Party/LwIP/src/core/tcp_out.c ****   if (pcb->rtime < 0) {
1535:Middlewares/Third_Party/LwIP/src/core/tcp_out.c ****     pcb->rtime = 0;
1536:Middlewares/Third_Party/LwIP/src/core/tcp_out.c ****   }
1537:Middlewares/Third_Party/LwIP/src/core/tcp_out.c **** 
1538:Middlewares/Third_Party/LwIP/src/core/tcp_out.c ****   if (pcb->rttest == 0) {
1539:Middlewares/Third_Party/LwIP/src/core/tcp_out.c ****     pcb->rttest = tcp_ticks;
1540:Middlewares/Third_Party/LwIP/src/core/tcp_out.c ****     pcb->rtseq = lwip_ntohl(seg->tcphdr->seqno);
1541:Middlewares/Third_Party/LwIP/src/core/tcp_out.c **** 
1542:Middlewares/Third_Party/LwIP/src/core/tcp_out.c ****     LWIP_DEBUGF(TCP_RTO_DEBUG, ("tcp_output_segment: rtseq %"U32_F"\n", pcb->rtseq));
1543:Middlewares/Third_Party/LwIP/src/core/tcp_out.c ****   }
1544:Middlewares/Third_Party/LwIP/src/core/tcp_out.c ****   LWIP_DEBUGF(TCP_OUTPUT_DEBUG, ("tcp_output_segment: %"U32_F":%"U32_F"\n",
1545:Middlewares/Third_Party/LwIP/src/core/tcp_out.c ****                                  lwip_htonl(seg->tcphdr->seqno), lwip_htonl(seg->tcphdr->seqno) +
1546:Middlewares/Third_Party/LwIP/src/core/tcp_out.c ****                                  seg->len));
1547:Middlewares/Third_Party/LwIP/src/core/tcp_out.c **** 
1548:Middlewares/Third_Party/LwIP/src/core/tcp_out.c ****   len = (u16_t)((u8_t *)seg->tcphdr - (u8_t *)seg->p->payload);
1549:Middlewares/Third_Party/LwIP/src/core/tcp_out.c ****   if (len == 0) {
1550:Middlewares/Third_Party/LwIP/src/core/tcp_out.c ****     /** Exclude retransmitted segments from this count. */
1551:Middlewares/Third_Party/LwIP/src/core/tcp_out.c ****     MIB2_STATS_INC(mib2.tcpoutsegs);
1552:Middlewares/Third_Party/LwIP/src/core/tcp_out.c ****   }
1553:Middlewares/Third_Party/LwIP/src/core/tcp_out.c **** 
1554:Middlewares/Third_Party/LwIP/src/core/tcp_out.c ****   seg->p->len -= len;
1555:Middlewares/Third_Party/LwIP/src/core/tcp_out.c ****   seg->p->tot_len -= len;
1556:Middlewares/Third_Party/LwIP/src/core/tcp_out.c **** 
1557:Middlewares/Third_Party/LwIP/src/core/tcp_out.c ****   seg->p->payload = seg->tcphdr;
1558:Middlewares/Third_Party/LwIP/src/core/tcp_out.c **** 
1559:Middlewares/Third_Party/LwIP/src/core/tcp_out.c ****   seg->tcphdr->chksum = 0;
1560:Middlewares/Third_Party/LwIP/src/core/tcp_out.c **** 
1561:Middlewares/Third_Party/LwIP/src/core/tcp_out.c **** #ifdef LWIP_HOOK_TCP_OUT_ADD_TCPOPTS
1562:Middlewares/Third_Party/LwIP/src/core/tcp_out.c ****   opts = LWIP_HOOK_TCP_OUT_ADD_TCPOPTS(seg->p, seg->tcphdr, pcb, opts);
1563:Middlewares/Third_Party/LwIP/src/core/tcp_out.c **** #endif
1564:Middlewares/Third_Party/LwIP/src/core/tcp_out.c ****   LWIP_ASSERT("options not filled", (u8_t *)opts == ((u8_t *)(seg->tcphdr + 1)) + LWIP_TCP_OPT_LENG
1565:Middlewares/Third_Party/LwIP/src/core/tcp_out.c **** 
1566:Middlewares/Third_Party/LwIP/src/core/tcp_out.c **** #if CHECKSUM_GEN_TCP
1567:Middlewares/Third_Party/LwIP/src/core/tcp_out.c ****   IF__NETIF_CHECKSUM_ENABLED(netif, NETIF_CHECKSUM_GEN_TCP) {
1568:Middlewares/Third_Party/LwIP/src/core/tcp_out.c **** #if TCP_CHECKSUM_ON_COPY
1569:Middlewares/Third_Party/LwIP/src/core/tcp_out.c ****     u32_t acc;
1570:Middlewares/Third_Party/LwIP/src/core/tcp_out.c **** #if TCP_CHECKSUM_ON_COPY_SANITY_CHECK
1571:Middlewares/Third_Party/LwIP/src/core/tcp_out.c ****     u16_t chksum_slow = ip_chksum_pseudo(seg->p, IP_PROTO_TCP,
1572:Middlewares/Third_Party/LwIP/src/core/tcp_out.c ****                                          seg->p->tot_len, &pcb->local_ip, &pcb->remote_ip);
1573:Middlewares/Third_Party/LwIP/src/core/tcp_out.c **** #endif /* TCP_CHECKSUM_ON_COPY_SANITY_CHECK */
1574:Middlewares/Third_Party/LwIP/src/core/tcp_out.c ****     if ((seg->flags & TF_SEG_DATA_CHECKSUMMED) == 0) {
1575:Middlewares/Third_Party/LwIP/src/core/tcp_out.c ****       LWIP_ASSERT("data included but not checksummed",
1576:Middlewares/Third_Party/LwIP/src/core/tcp_out.c ****                   seg->p->tot_len == TCPH_HDRLEN_BYTES(seg->tcphdr));
1577:Middlewares/Third_Party/LwIP/src/core/tcp_out.c ****     }
ARM GAS  /tmp/ccMjT2X9.s 			page 33


1578:Middlewares/Third_Party/LwIP/src/core/tcp_out.c **** 
1579:Middlewares/Third_Party/LwIP/src/core/tcp_out.c ****     /* rebuild TCP header checksum (TCP header changes for retransmissions!) */
1580:Middlewares/Third_Party/LwIP/src/core/tcp_out.c ****     acc = ip_chksum_pseudo_partial(seg->p, IP_PROTO_TCP,
1581:Middlewares/Third_Party/LwIP/src/core/tcp_out.c ****                                    seg->p->tot_len, TCPH_HDRLEN_BYTES(seg->tcphdr), &pcb->local_ip,
1582:Middlewares/Third_Party/LwIP/src/core/tcp_out.c ****     /* add payload checksum */
1583:Middlewares/Third_Party/LwIP/src/core/tcp_out.c ****     if (seg->chksum_swapped) {
1584:Middlewares/Third_Party/LwIP/src/core/tcp_out.c ****       seg_chksum_was_swapped = 1;
1585:Middlewares/Third_Party/LwIP/src/core/tcp_out.c ****       seg->chksum = SWAP_BYTES_IN_WORD(seg->chksum);
1586:Middlewares/Third_Party/LwIP/src/core/tcp_out.c ****       seg->chksum_swapped = 0;
1587:Middlewares/Third_Party/LwIP/src/core/tcp_out.c ****     }
1588:Middlewares/Third_Party/LwIP/src/core/tcp_out.c ****     acc = (u16_t)~acc + seg->chksum;
1589:Middlewares/Third_Party/LwIP/src/core/tcp_out.c ****     seg->tcphdr->chksum = (u16_t)~FOLD_U32T(acc);
1590:Middlewares/Third_Party/LwIP/src/core/tcp_out.c **** #if TCP_CHECKSUM_ON_COPY_SANITY_CHECK
1591:Middlewares/Third_Party/LwIP/src/core/tcp_out.c ****     if (chksum_slow != seg->tcphdr->chksum) {
1592:Middlewares/Third_Party/LwIP/src/core/tcp_out.c ****       TCP_CHECKSUM_ON_COPY_SANITY_CHECK_FAIL(
1593:Middlewares/Third_Party/LwIP/src/core/tcp_out.c ****         ("tcp_output_segment: calculated checksum is %"X16_F" instead of %"X16_F"\n",
1594:Middlewares/Third_Party/LwIP/src/core/tcp_out.c ****          seg->tcphdr->chksum, chksum_slow));
1595:Middlewares/Third_Party/LwIP/src/core/tcp_out.c ****       seg->tcphdr->chksum = chksum_slow;
1596:Middlewares/Third_Party/LwIP/src/core/tcp_out.c ****     }
1597:Middlewares/Third_Party/LwIP/src/core/tcp_out.c **** #endif /* TCP_CHECKSUM_ON_COPY_SANITY_CHECK */
1598:Middlewares/Third_Party/LwIP/src/core/tcp_out.c **** #else /* TCP_CHECKSUM_ON_COPY */
1599:Middlewares/Third_Party/LwIP/src/core/tcp_out.c ****     seg->tcphdr->chksum = ip_chksum_pseudo(seg->p, IP_PROTO_TCP,
1600:Middlewares/Third_Party/LwIP/src/core/tcp_out.c ****                                            seg->p->tot_len, &pcb->local_ip, &pcb->remote_ip);
1601:Middlewares/Third_Party/LwIP/src/core/tcp_out.c **** #endif /* TCP_CHECKSUM_ON_COPY */
1602:Middlewares/Third_Party/LwIP/src/core/tcp_out.c ****   }
1603:Middlewares/Third_Party/LwIP/src/core/tcp_out.c **** #endif /* CHECKSUM_GEN_TCP */
1604:Middlewares/Third_Party/LwIP/src/core/tcp_out.c ****   TCP_STATS_INC(tcp.xmit);
1605:Middlewares/Third_Party/LwIP/src/core/tcp_out.c **** 
1606:Middlewares/Third_Party/LwIP/src/core/tcp_out.c ****   NETIF_SET_HINTS(netif, &(pcb->netif_hints));
1607:Middlewares/Third_Party/LwIP/src/core/tcp_out.c ****   err = ip_output_if(seg->p, &pcb->local_ip, &pcb->remote_ip, pcb->ttl,
1608:Middlewares/Third_Party/LwIP/src/core/tcp_out.c ****                      pcb->tos, IP_PROTO_TCP, netif);
1609:Middlewares/Third_Party/LwIP/src/core/tcp_out.c ****   NETIF_RESET_HINTS(netif);
1610:Middlewares/Third_Party/LwIP/src/core/tcp_out.c **** 
1611:Middlewares/Third_Party/LwIP/src/core/tcp_out.c **** #if TCP_CHECKSUM_ON_COPY
1612:Middlewares/Third_Party/LwIP/src/core/tcp_out.c ****   if (seg_chksum_was_swapped) {
1613:Middlewares/Third_Party/LwIP/src/core/tcp_out.c ****     /* if data is added to this segment later, chksum needs to be swapped,
1614:Middlewares/Third_Party/LwIP/src/core/tcp_out.c ****        so restore this now */
1615:Middlewares/Third_Party/LwIP/src/core/tcp_out.c ****     seg->chksum = SWAP_BYTES_IN_WORD(seg->chksum);
1616:Middlewares/Third_Party/LwIP/src/core/tcp_out.c ****     seg->chksum_swapped = 1;
1617:Middlewares/Third_Party/LwIP/src/core/tcp_out.c ****   }
1618:Middlewares/Third_Party/LwIP/src/core/tcp_out.c **** #endif
1619:Middlewares/Third_Party/LwIP/src/core/tcp_out.c **** 
1620:Middlewares/Third_Party/LwIP/src/core/tcp_out.c ****   return err;
1621:Middlewares/Third_Party/LwIP/src/core/tcp_out.c **** }
1622:Middlewares/Third_Party/LwIP/src/core/tcp_out.c **** 
1623:Middlewares/Third_Party/LwIP/src/core/tcp_out.c **** /**
1624:Middlewares/Third_Party/LwIP/src/core/tcp_out.c ****  * Requeue all unacked segments for retransmission
1625:Middlewares/Third_Party/LwIP/src/core/tcp_out.c ****  *
1626:Middlewares/Third_Party/LwIP/src/core/tcp_out.c ****  * Called by tcp_slowtmr() for slow retransmission.
1627:Middlewares/Third_Party/LwIP/src/core/tcp_out.c ****  *
1628:Middlewares/Third_Party/LwIP/src/core/tcp_out.c ****  * @param pcb the tcp_pcb for which to re-enqueue all unacked segments
1629:Middlewares/Third_Party/LwIP/src/core/tcp_out.c ****  */
1630:Middlewares/Third_Party/LwIP/src/core/tcp_out.c **** err_t
1631:Middlewares/Third_Party/LwIP/src/core/tcp_out.c **** tcp_rexmit_rto_prepare(struct tcp_pcb *pcb)
1632:Middlewares/Third_Party/LwIP/src/core/tcp_out.c **** {
1633:Middlewares/Third_Party/LwIP/src/core/tcp_out.c ****   struct tcp_seg *seg;
1634:Middlewares/Third_Party/LwIP/src/core/tcp_out.c **** 
ARM GAS  /tmp/ccMjT2X9.s 			page 34


1635:Middlewares/Third_Party/LwIP/src/core/tcp_out.c ****   LWIP_ASSERT("tcp_rexmit_rto_prepare: invalid pcb", pcb != NULL);
1636:Middlewares/Third_Party/LwIP/src/core/tcp_out.c **** 
1637:Middlewares/Third_Party/LwIP/src/core/tcp_out.c ****   if (pcb->unacked == NULL) {
1638:Middlewares/Third_Party/LwIP/src/core/tcp_out.c ****     return ERR_VAL;
1639:Middlewares/Third_Party/LwIP/src/core/tcp_out.c ****   }
1640:Middlewares/Third_Party/LwIP/src/core/tcp_out.c **** 
1641:Middlewares/Third_Party/LwIP/src/core/tcp_out.c ****   /* Move all unacked segments to the head of the unsent queue.
1642:Middlewares/Third_Party/LwIP/src/core/tcp_out.c ****      However, give up if any of the unsent pbufs are still referenced by the
1643:Middlewares/Third_Party/LwIP/src/core/tcp_out.c ****      netif driver due to deferred transmission. No point loading the link further
1644:Middlewares/Third_Party/LwIP/src/core/tcp_out.c ****      if it is struggling to flush its buffered writes. */
1645:Middlewares/Third_Party/LwIP/src/core/tcp_out.c ****   for (seg = pcb->unacked; seg->next != NULL; seg = seg->next) {
1646:Middlewares/Third_Party/LwIP/src/core/tcp_out.c ****     if (tcp_output_segment_busy(seg)) {
1647:Middlewares/Third_Party/LwIP/src/core/tcp_out.c ****       LWIP_DEBUGF(TCP_RTO_DEBUG, ("tcp_rexmit_rto: segment busy\n"));
1648:Middlewares/Third_Party/LwIP/src/core/tcp_out.c ****       return ERR_VAL;
1649:Middlewares/Third_Party/LwIP/src/core/tcp_out.c ****     }
1650:Middlewares/Third_Party/LwIP/src/core/tcp_out.c ****   }
1651:Middlewares/Third_Party/LwIP/src/core/tcp_out.c ****   if (tcp_output_segment_busy(seg)) {
1652:Middlewares/Third_Party/LwIP/src/core/tcp_out.c ****     LWIP_DEBUGF(TCP_RTO_DEBUG, ("tcp_rexmit_rto: segment busy\n"));
1653:Middlewares/Third_Party/LwIP/src/core/tcp_out.c ****     return ERR_VAL;
1654:Middlewares/Third_Party/LwIP/src/core/tcp_out.c ****   }
1655:Middlewares/Third_Party/LwIP/src/core/tcp_out.c ****   /* concatenate unsent queue after unacked queue */
1656:Middlewares/Third_Party/LwIP/src/core/tcp_out.c ****   seg->next = pcb->unsent;
1657:Middlewares/Third_Party/LwIP/src/core/tcp_out.c **** #if TCP_OVERSIZE_DBGCHECK
1658:Middlewares/Third_Party/LwIP/src/core/tcp_out.c ****   /* if last unsent changed, we need to update unsent_oversize */
1659:Middlewares/Third_Party/LwIP/src/core/tcp_out.c ****   if (pcb->unsent == NULL) {
1660:Middlewares/Third_Party/LwIP/src/core/tcp_out.c ****     pcb->unsent_oversize = seg->oversize_left;
1661:Middlewares/Third_Party/LwIP/src/core/tcp_out.c ****   }
1662:Middlewares/Third_Party/LwIP/src/core/tcp_out.c **** #endif /* TCP_OVERSIZE_DBGCHECK */
1663:Middlewares/Third_Party/LwIP/src/core/tcp_out.c ****   /* unsent queue is the concatenated queue (of unacked, unsent) */
1664:Middlewares/Third_Party/LwIP/src/core/tcp_out.c ****   pcb->unsent = pcb->unacked;
1665:Middlewares/Third_Party/LwIP/src/core/tcp_out.c ****   /* unacked queue is now empty */
1666:Middlewares/Third_Party/LwIP/src/core/tcp_out.c ****   pcb->unacked = NULL;
1667:Middlewares/Third_Party/LwIP/src/core/tcp_out.c **** 
1668:Middlewares/Third_Party/LwIP/src/core/tcp_out.c ****   /* Mark RTO in-progress */
1669:Middlewares/Third_Party/LwIP/src/core/tcp_out.c ****   tcp_set_flags(pcb, TF_RTO);
1670:Middlewares/Third_Party/LwIP/src/core/tcp_out.c ****   /* Record the next byte following retransmit */
1671:Middlewares/Third_Party/LwIP/src/core/tcp_out.c ****   pcb->rto_end = lwip_ntohl(seg->tcphdr->seqno) + TCP_TCPLEN(seg);
1672:Middlewares/Third_Party/LwIP/src/core/tcp_out.c ****   /* Don't take any RTT measurements after retransmitting. */
1673:Middlewares/Third_Party/LwIP/src/core/tcp_out.c ****   pcb->rttest = 0;
1674:Middlewares/Third_Party/LwIP/src/core/tcp_out.c **** 
1675:Middlewares/Third_Party/LwIP/src/core/tcp_out.c ****   return ERR_OK;
1676:Middlewares/Third_Party/LwIP/src/core/tcp_out.c **** }
1677:Middlewares/Third_Party/LwIP/src/core/tcp_out.c **** 
1678:Middlewares/Third_Party/LwIP/src/core/tcp_out.c **** /**
1679:Middlewares/Third_Party/LwIP/src/core/tcp_out.c ****  * Requeue all unacked segments for retransmission
1680:Middlewares/Third_Party/LwIP/src/core/tcp_out.c ****  *
1681:Middlewares/Third_Party/LwIP/src/core/tcp_out.c ****  * Called by tcp_slowtmr() for slow retransmission.
1682:Middlewares/Third_Party/LwIP/src/core/tcp_out.c ****  *
1683:Middlewares/Third_Party/LwIP/src/core/tcp_out.c ****  * @param pcb the tcp_pcb for which to re-enqueue all unacked segments
1684:Middlewares/Third_Party/LwIP/src/core/tcp_out.c ****  */
1685:Middlewares/Third_Party/LwIP/src/core/tcp_out.c **** void
1686:Middlewares/Third_Party/LwIP/src/core/tcp_out.c **** tcp_rexmit_rto_commit(struct tcp_pcb *pcb)
1687:Middlewares/Third_Party/LwIP/src/core/tcp_out.c **** {
1688:Middlewares/Third_Party/LwIP/src/core/tcp_out.c ****   LWIP_ASSERT("tcp_rexmit_rto_commit: invalid pcb", pcb != NULL);
1689:Middlewares/Third_Party/LwIP/src/core/tcp_out.c **** 
1690:Middlewares/Third_Party/LwIP/src/core/tcp_out.c ****   /* increment number of retransmissions */
1691:Middlewares/Third_Party/LwIP/src/core/tcp_out.c ****   if (pcb->nrtx < 0xFF) {
ARM GAS  /tmp/ccMjT2X9.s 			page 35


1692:Middlewares/Third_Party/LwIP/src/core/tcp_out.c ****     ++pcb->nrtx;
1693:Middlewares/Third_Party/LwIP/src/core/tcp_out.c ****   }
1694:Middlewares/Third_Party/LwIP/src/core/tcp_out.c ****   /* Do the actual retransmission */
1695:Middlewares/Third_Party/LwIP/src/core/tcp_out.c ****   tcp_output(pcb);
1696:Middlewares/Third_Party/LwIP/src/core/tcp_out.c **** }
1697:Middlewares/Third_Party/LwIP/src/core/tcp_out.c **** 
1698:Middlewares/Third_Party/LwIP/src/core/tcp_out.c **** /**
1699:Middlewares/Third_Party/LwIP/src/core/tcp_out.c ****  * Requeue all unacked segments for retransmission
1700:Middlewares/Third_Party/LwIP/src/core/tcp_out.c ****  *
1701:Middlewares/Third_Party/LwIP/src/core/tcp_out.c ****  * Called by tcp_process() only, tcp_slowtmr() needs to do some things between
1702:Middlewares/Third_Party/LwIP/src/core/tcp_out.c ****  * "prepare" and "commit".
1703:Middlewares/Third_Party/LwIP/src/core/tcp_out.c ****  *
1704:Middlewares/Third_Party/LwIP/src/core/tcp_out.c ****  * @param pcb the tcp_pcb for which to re-enqueue all unacked segments
1705:Middlewares/Third_Party/LwIP/src/core/tcp_out.c ****  */
1706:Middlewares/Third_Party/LwIP/src/core/tcp_out.c **** void
1707:Middlewares/Third_Party/LwIP/src/core/tcp_out.c **** tcp_rexmit_rto(struct tcp_pcb *pcb)
1708:Middlewares/Third_Party/LwIP/src/core/tcp_out.c **** {
1709:Middlewares/Third_Party/LwIP/src/core/tcp_out.c ****   LWIP_ASSERT("tcp_rexmit_rto: invalid pcb", pcb != NULL);
1710:Middlewares/Third_Party/LwIP/src/core/tcp_out.c **** 
1711:Middlewares/Third_Party/LwIP/src/core/tcp_out.c ****   if (tcp_rexmit_rto_prepare(pcb) == ERR_OK) {
1712:Middlewares/Third_Party/LwIP/src/core/tcp_out.c ****     tcp_rexmit_rto_commit(pcb);
1713:Middlewares/Third_Party/LwIP/src/core/tcp_out.c ****   }
1714:Middlewares/Third_Party/LwIP/src/core/tcp_out.c **** }
1715:Middlewares/Third_Party/LwIP/src/core/tcp_out.c **** 
1716:Middlewares/Third_Party/LwIP/src/core/tcp_out.c **** /**
1717:Middlewares/Third_Party/LwIP/src/core/tcp_out.c ****  * Requeue the first unacked segment for retransmission
1718:Middlewares/Third_Party/LwIP/src/core/tcp_out.c ****  *
1719:Middlewares/Third_Party/LwIP/src/core/tcp_out.c ****  * Called by tcp_receive() for fast retransmit.
1720:Middlewares/Third_Party/LwIP/src/core/tcp_out.c ****  *
1721:Middlewares/Third_Party/LwIP/src/core/tcp_out.c ****  * @param pcb the tcp_pcb for which to retransmit the first unacked segment
1722:Middlewares/Third_Party/LwIP/src/core/tcp_out.c ****  */
1723:Middlewares/Third_Party/LwIP/src/core/tcp_out.c **** err_t
1724:Middlewares/Third_Party/LwIP/src/core/tcp_out.c **** tcp_rexmit(struct tcp_pcb *pcb)
1725:Middlewares/Third_Party/LwIP/src/core/tcp_out.c **** {
1726:Middlewares/Third_Party/LwIP/src/core/tcp_out.c ****   struct tcp_seg *seg;
1727:Middlewares/Third_Party/LwIP/src/core/tcp_out.c ****   struct tcp_seg **cur_seg;
1728:Middlewares/Third_Party/LwIP/src/core/tcp_out.c **** 
1729:Middlewares/Third_Party/LwIP/src/core/tcp_out.c ****   LWIP_ASSERT("tcp_rexmit: invalid pcb", pcb != NULL);
1730:Middlewares/Third_Party/LwIP/src/core/tcp_out.c **** 
1731:Middlewares/Third_Party/LwIP/src/core/tcp_out.c ****   if (pcb->unacked == NULL) {
1732:Middlewares/Third_Party/LwIP/src/core/tcp_out.c ****     return ERR_VAL;
1733:Middlewares/Third_Party/LwIP/src/core/tcp_out.c ****   }
1734:Middlewares/Third_Party/LwIP/src/core/tcp_out.c **** 
1735:Middlewares/Third_Party/LwIP/src/core/tcp_out.c ****   seg = pcb->unacked;
1736:Middlewares/Third_Party/LwIP/src/core/tcp_out.c **** 
1737:Middlewares/Third_Party/LwIP/src/core/tcp_out.c ****   /* Give up if the segment is still referenced by the netif driver
1738:Middlewares/Third_Party/LwIP/src/core/tcp_out.c ****      due to deferred transmission. */
1739:Middlewares/Third_Party/LwIP/src/core/tcp_out.c ****   if (tcp_output_segment_busy(seg)) {
1740:Middlewares/Third_Party/LwIP/src/core/tcp_out.c ****     LWIP_DEBUGF(TCP_RTO_DEBUG, ("tcp_rexmit busy\n"));
1741:Middlewares/Third_Party/LwIP/src/core/tcp_out.c ****     return ERR_VAL;
1742:Middlewares/Third_Party/LwIP/src/core/tcp_out.c ****   }
1743:Middlewares/Third_Party/LwIP/src/core/tcp_out.c **** 
1744:Middlewares/Third_Party/LwIP/src/core/tcp_out.c ****   /* Move the first unacked segment to the unsent queue */
1745:Middlewares/Third_Party/LwIP/src/core/tcp_out.c ****   /* Keep the unsent queue sorted. */
1746:Middlewares/Third_Party/LwIP/src/core/tcp_out.c ****   pcb->unacked = seg->next;
1747:Middlewares/Third_Party/LwIP/src/core/tcp_out.c **** 
1748:Middlewares/Third_Party/LwIP/src/core/tcp_out.c ****   cur_seg = &(pcb->unsent);
ARM GAS  /tmp/ccMjT2X9.s 			page 36


1749:Middlewares/Third_Party/LwIP/src/core/tcp_out.c ****   while (*cur_seg &&
1750:Middlewares/Third_Party/LwIP/src/core/tcp_out.c ****          TCP_SEQ_LT(lwip_ntohl((*cur_seg)->tcphdr->seqno), lwip_ntohl(seg->tcphdr->seqno))) {
1751:Middlewares/Third_Party/LwIP/src/core/tcp_out.c ****     cur_seg = &((*cur_seg)->next );
1752:Middlewares/Third_Party/LwIP/src/core/tcp_out.c ****   }
1753:Middlewares/Third_Party/LwIP/src/core/tcp_out.c ****   seg->next = *cur_seg;
1754:Middlewares/Third_Party/LwIP/src/core/tcp_out.c ****   *cur_seg = seg;
1755:Middlewares/Third_Party/LwIP/src/core/tcp_out.c **** #if TCP_OVERSIZE
1756:Middlewares/Third_Party/LwIP/src/core/tcp_out.c ****   if (seg->next == NULL) {
1757:Middlewares/Third_Party/LwIP/src/core/tcp_out.c ****     /* the retransmitted segment is last in unsent, so reset unsent_oversize */
1758:Middlewares/Third_Party/LwIP/src/core/tcp_out.c ****     pcb->unsent_oversize = 0;
1759:Middlewares/Third_Party/LwIP/src/core/tcp_out.c ****   }
1760:Middlewares/Third_Party/LwIP/src/core/tcp_out.c **** #endif /* TCP_OVERSIZE */
1761:Middlewares/Third_Party/LwIP/src/core/tcp_out.c **** 
1762:Middlewares/Third_Party/LwIP/src/core/tcp_out.c ****   if (pcb->nrtx < 0xFF) {
1763:Middlewares/Third_Party/LwIP/src/core/tcp_out.c ****     ++pcb->nrtx;
1764:Middlewares/Third_Party/LwIP/src/core/tcp_out.c ****   }
1765:Middlewares/Third_Party/LwIP/src/core/tcp_out.c **** 
1766:Middlewares/Third_Party/LwIP/src/core/tcp_out.c ****   /* Don't take any rtt measurements after retransmitting. */
1767:Middlewares/Third_Party/LwIP/src/core/tcp_out.c ****   pcb->rttest = 0;
1768:Middlewares/Third_Party/LwIP/src/core/tcp_out.c **** 
1769:Middlewares/Third_Party/LwIP/src/core/tcp_out.c ****   /* Do the actual retransmission. */
1770:Middlewares/Third_Party/LwIP/src/core/tcp_out.c ****   MIB2_STATS_INC(mib2.tcpretranssegs);
1771:Middlewares/Third_Party/LwIP/src/core/tcp_out.c ****   /* No need to call tcp_output: we are always called from tcp_input()
1772:Middlewares/Third_Party/LwIP/src/core/tcp_out.c ****      and thus tcp_output directly returns. */
1773:Middlewares/Third_Party/LwIP/src/core/tcp_out.c ****   return ERR_OK;
1774:Middlewares/Third_Party/LwIP/src/core/tcp_out.c **** }
1775:Middlewares/Third_Party/LwIP/src/core/tcp_out.c **** 
1776:Middlewares/Third_Party/LwIP/src/core/tcp_out.c **** 
1777:Middlewares/Third_Party/LwIP/src/core/tcp_out.c **** /**
1778:Middlewares/Third_Party/LwIP/src/core/tcp_out.c ****  * Handle retransmission after three dupacks received
1779:Middlewares/Third_Party/LwIP/src/core/tcp_out.c ****  *
1780:Middlewares/Third_Party/LwIP/src/core/tcp_out.c ****  * @param pcb the tcp_pcb for which to retransmit the first unacked segment
1781:Middlewares/Third_Party/LwIP/src/core/tcp_out.c ****  */
1782:Middlewares/Third_Party/LwIP/src/core/tcp_out.c **** void
1783:Middlewares/Third_Party/LwIP/src/core/tcp_out.c **** tcp_rexmit_fast(struct tcp_pcb *pcb)
1784:Middlewares/Third_Party/LwIP/src/core/tcp_out.c **** {
1785:Middlewares/Third_Party/LwIP/src/core/tcp_out.c ****   LWIP_ASSERT("tcp_rexmit_fast: invalid pcb", pcb != NULL);
1786:Middlewares/Third_Party/LwIP/src/core/tcp_out.c **** 
1787:Middlewares/Third_Party/LwIP/src/core/tcp_out.c ****   if (pcb->unacked != NULL && !(pcb->flags & TF_INFR)) {
1788:Middlewares/Third_Party/LwIP/src/core/tcp_out.c ****     /* This is fast retransmit. Retransmit the first unacked segment. */
1789:Middlewares/Third_Party/LwIP/src/core/tcp_out.c ****     LWIP_DEBUGF(TCP_FR_DEBUG,
1790:Middlewares/Third_Party/LwIP/src/core/tcp_out.c ****                 ("tcp_receive: dupacks %"U16_F" (%"U32_F
1791:Middlewares/Third_Party/LwIP/src/core/tcp_out.c ****                  "), fast retransmit %"U32_F"\n",
1792:Middlewares/Third_Party/LwIP/src/core/tcp_out.c ****                  (u16_t)pcb->dupacks, pcb->lastack,
1793:Middlewares/Third_Party/LwIP/src/core/tcp_out.c ****                  lwip_ntohl(pcb->unacked->tcphdr->seqno)));
1794:Middlewares/Third_Party/LwIP/src/core/tcp_out.c ****     if (tcp_rexmit(pcb) == ERR_OK) {
1795:Middlewares/Third_Party/LwIP/src/core/tcp_out.c ****       /* Set ssthresh to half of the minimum of the current
1796:Middlewares/Third_Party/LwIP/src/core/tcp_out.c ****        * cwnd and the advertised window */
1797:Middlewares/Third_Party/LwIP/src/core/tcp_out.c ****       pcb->ssthresh = LWIP_MIN(pcb->cwnd, pcb->snd_wnd) / 2;
1798:Middlewares/Third_Party/LwIP/src/core/tcp_out.c **** 
1799:Middlewares/Third_Party/LwIP/src/core/tcp_out.c ****       /* The minimum value for ssthresh should be 2 MSS */
1800:Middlewares/Third_Party/LwIP/src/core/tcp_out.c ****       if (pcb->ssthresh < (2U * pcb->mss)) {
1801:Middlewares/Third_Party/LwIP/src/core/tcp_out.c ****         LWIP_DEBUGF(TCP_FR_DEBUG,
1802:Middlewares/Third_Party/LwIP/src/core/tcp_out.c ****                     ("tcp_receive: The minimum value for ssthresh %"TCPWNDSIZE_F
1803:Middlewares/Third_Party/LwIP/src/core/tcp_out.c ****                      " should be min 2 mss %"U16_F"...\n",
1804:Middlewares/Third_Party/LwIP/src/core/tcp_out.c ****                      pcb->ssthresh, (u16_t)(2 * pcb->mss)));
1805:Middlewares/Third_Party/LwIP/src/core/tcp_out.c ****         pcb->ssthresh = 2 * pcb->mss;
ARM GAS  /tmp/ccMjT2X9.s 			page 37


1806:Middlewares/Third_Party/LwIP/src/core/tcp_out.c ****       }
1807:Middlewares/Third_Party/LwIP/src/core/tcp_out.c **** 
1808:Middlewares/Third_Party/LwIP/src/core/tcp_out.c ****       pcb->cwnd = pcb->ssthresh + 3 * pcb->mss;
1809:Middlewares/Third_Party/LwIP/src/core/tcp_out.c ****       tcp_set_flags(pcb, TF_INFR);
1810:Middlewares/Third_Party/LwIP/src/core/tcp_out.c **** 
1811:Middlewares/Third_Party/LwIP/src/core/tcp_out.c ****       /* Reset the retransmission timer to prevent immediate rto retransmissions */
1812:Middlewares/Third_Party/LwIP/src/core/tcp_out.c ****       pcb->rtime = 0;
1813:Middlewares/Third_Party/LwIP/src/core/tcp_out.c ****     }
1814:Middlewares/Third_Party/LwIP/src/core/tcp_out.c ****   }
1815:Middlewares/Third_Party/LwIP/src/core/tcp_out.c **** }
1816:Middlewares/Third_Party/LwIP/src/core/tcp_out.c **** 
1817:Middlewares/Third_Party/LwIP/src/core/tcp_out.c **** static struct pbuf *
1818:Middlewares/Third_Party/LwIP/src/core/tcp_out.c **** tcp_output_alloc_header_common(u32_t ackno, u16_t optlen, u16_t datalen,
1819:Middlewares/Third_Party/LwIP/src/core/tcp_out.c ****                         u32_t seqno_be /* already in network byte order */,
1820:Middlewares/Third_Party/LwIP/src/core/tcp_out.c ****                         u16_t src_port, u16_t dst_port, u8_t flags, u16_t wnd)
1821:Middlewares/Third_Party/LwIP/src/core/tcp_out.c **** {
1822:Middlewares/Third_Party/LwIP/src/core/tcp_out.c ****   struct tcp_hdr *tcphdr;
1823:Middlewares/Third_Party/LwIP/src/core/tcp_out.c ****   struct pbuf *p;
1824:Middlewares/Third_Party/LwIP/src/core/tcp_out.c **** 
1825:Middlewares/Third_Party/LwIP/src/core/tcp_out.c ****   p = pbuf_alloc(PBUF_IP, TCP_HLEN + optlen + datalen, PBUF_RAM);
1826:Middlewares/Third_Party/LwIP/src/core/tcp_out.c ****   if (p != NULL) {
1827:Middlewares/Third_Party/LwIP/src/core/tcp_out.c ****     LWIP_ASSERT("check that first pbuf can hold struct tcp_hdr",
1828:Middlewares/Third_Party/LwIP/src/core/tcp_out.c ****                 (p->len >= TCP_HLEN + optlen));
1829:Middlewares/Third_Party/LwIP/src/core/tcp_out.c ****     tcphdr = (struct tcp_hdr *)p->payload;
1830:Middlewares/Third_Party/LwIP/src/core/tcp_out.c ****     tcphdr->src = lwip_htons(src_port);
1831:Middlewares/Third_Party/LwIP/src/core/tcp_out.c ****     tcphdr->dest = lwip_htons(dst_port);
1832:Middlewares/Third_Party/LwIP/src/core/tcp_out.c ****     tcphdr->seqno = seqno_be;
1833:Middlewares/Third_Party/LwIP/src/core/tcp_out.c ****     tcphdr->ackno = lwip_htonl(ackno);
1834:Middlewares/Third_Party/LwIP/src/core/tcp_out.c ****     TCPH_HDRLEN_FLAGS_SET(tcphdr, (5 + optlen / 4), flags);
1835:Middlewares/Third_Party/LwIP/src/core/tcp_out.c ****     tcphdr->wnd = lwip_htons(wnd);
1836:Middlewares/Third_Party/LwIP/src/core/tcp_out.c ****     tcphdr->chksum = 0;
1837:Middlewares/Third_Party/LwIP/src/core/tcp_out.c ****     tcphdr->urgp = 0;
1838:Middlewares/Third_Party/LwIP/src/core/tcp_out.c ****   }
1839:Middlewares/Third_Party/LwIP/src/core/tcp_out.c ****   return p;
1840:Middlewares/Third_Party/LwIP/src/core/tcp_out.c **** }
1841:Middlewares/Third_Party/LwIP/src/core/tcp_out.c **** 
1842:Middlewares/Third_Party/LwIP/src/core/tcp_out.c **** /** Allocate a pbuf and create a tcphdr at p->payload, used for output
1843:Middlewares/Third_Party/LwIP/src/core/tcp_out.c ****  * functions other than the default tcp_output -> tcp_output_segment
1844:Middlewares/Third_Party/LwIP/src/core/tcp_out.c ****  * (e.g. tcp_send_empty_ack, etc.)
1845:Middlewares/Third_Party/LwIP/src/core/tcp_out.c ****  *
1846:Middlewares/Third_Party/LwIP/src/core/tcp_out.c ****  * @param pcb tcp pcb for which to send a packet (used to initialize tcp_hdr)
1847:Middlewares/Third_Party/LwIP/src/core/tcp_out.c ****  * @param optlen length of header-options
1848:Middlewares/Third_Party/LwIP/src/core/tcp_out.c ****  * @param datalen length of tcp data to reserve in pbuf
1849:Middlewares/Third_Party/LwIP/src/core/tcp_out.c ****  * @param seqno_be seqno in network byte order (big-endian)
1850:Middlewares/Third_Party/LwIP/src/core/tcp_out.c ****  * @return pbuf with p->payload being the tcp_hdr
1851:Middlewares/Third_Party/LwIP/src/core/tcp_out.c ****  */
1852:Middlewares/Third_Party/LwIP/src/core/tcp_out.c **** static struct pbuf *
1853:Middlewares/Third_Party/LwIP/src/core/tcp_out.c **** tcp_output_alloc_header(struct tcp_pcb *pcb, u16_t optlen, u16_t datalen,
1854:Middlewares/Third_Party/LwIP/src/core/tcp_out.c ****                         u32_t seqno_be /* already in network byte order */)
1855:Middlewares/Third_Party/LwIP/src/core/tcp_out.c **** {
1856:Middlewares/Third_Party/LwIP/src/core/tcp_out.c ****   struct pbuf *p;
1857:Middlewares/Third_Party/LwIP/src/core/tcp_out.c **** 
1858:Middlewares/Third_Party/LwIP/src/core/tcp_out.c ****   LWIP_ASSERT("tcp_output_alloc_header: invalid pcb", pcb != NULL);
1859:Middlewares/Third_Party/LwIP/src/core/tcp_out.c **** 
1860:Middlewares/Third_Party/LwIP/src/core/tcp_out.c ****   p = tcp_output_alloc_header_common(pcb->rcv_nxt, optlen, datalen,
1861:Middlewares/Third_Party/LwIP/src/core/tcp_out.c ****     seqno_be, pcb->local_port, pcb->remote_port, TCP_ACK,
1862:Middlewares/Third_Party/LwIP/src/core/tcp_out.c ****     TCPWND_MIN16(RCV_WND_SCALE(pcb, pcb->rcv_ann_wnd)));
ARM GAS  /tmp/ccMjT2X9.s 			page 38


1863:Middlewares/Third_Party/LwIP/src/core/tcp_out.c ****   if (p != NULL) {
1864:Middlewares/Third_Party/LwIP/src/core/tcp_out.c ****     /* If we're sending a packet, update the announced right window edge */
1865:Middlewares/Third_Party/LwIP/src/core/tcp_out.c ****     pcb->rcv_ann_right_edge = pcb->rcv_nxt + pcb->rcv_ann_wnd;
1866:Middlewares/Third_Party/LwIP/src/core/tcp_out.c ****   }
1867:Middlewares/Third_Party/LwIP/src/core/tcp_out.c ****   return p;
1868:Middlewares/Third_Party/LwIP/src/core/tcp_out.c **** }
1869:Middlewares/Third_Party/LwIP/src/core/tcp_out.c **** 
1870:Middlewares/Third_Party/LwIP/src/core/tcp_out.c **** /* Fill in options for control segments */
1871:Middlewares/Third_Party/LwIP/src/core/tcp_out.c **** static void
1872:Middlewares/Third_Party/LwIP/src/core/tcp_out.c **** tcp_output_fill_options(const struct tcp_pcb *pcb, struct pbuf *p, u8_t optflags, u8_t num_sacks)
1873:Middlewares/Third_Party/LwIP/src/core/tcp_out.c **** {
 240              		.loc 1 1873 0
 241              		.cfi_startproc
 242              		@ args = 0, pretend = 0, frame = 0
 243              		@ frame_needed = 0, uses_anonymous_args = 0
 244              	.LVL22:
 245 0000 38B5     		push	{r3, r4, r5, lr}
 246              	.LCFI2:
 247              		.cfi_def_cfa_offset 16
 248              		.cfi_offset 3, -16
 249              		.cfi_offset 4, -12
 250              		.cfi_offset 5, -8
 251              		.cfi_offset 14, -4
 252 0002 1446     		mov	r4, r2
 253              	.LVL23:
1874:Middlewares/Third_Party/LwIP/src/core/tcp_out.c ****   struct tcp_hdr *tcphdr;
1875:Middlewares/Third_Party/LwIP/src/core/tcp_out.c ****   u32_t *opts;
1876:Middlewares/Third_Party/LwIP/src/core/tcp_out.c ****   u16_t sacks_len = 0;
1877:Middlewares/Third_Party/LwIP/src/core/tcp_out.c **** 
1878:Middlewares/Third_Party/LwIP/src/core/tcp_out.c ****   LWIP_ASSERT("tcp_output_fill_options: invalid pbuf", p != NULL);
 254              		.loc 1 1878 0
 255 0004 0D46     		mov	r5, r1
 256 0006 91B1     		cbz	r1, .L37
 257              	.LVL24:
 258              	.L32:
1879:Middlewares/Third_Party/LwIP/src/core/tcp_out.c **** 
1880:Middlewares/Third_Party/LwIP/src/core/tcp_out.c ****   tcphdr = (struct tcp_hdr *)p->payload;
 259              		.loc 1 1880 0
 260 0008 6B68     		ldr	r3, [r5, #4]
 261              	.LVL25:
1881:Middlewares/Third_Party/LwIP/src/core/tcp_out.c ****   opts = (u32_t *)(void *)(tcphdr + 1);
 262              		.loc 1 1881 0
 263 000a 03F11401 		add	r1, r3, #20
 264              	.LVL26:
1882:Middlewares/Third_Party/LwIP/src/core/tcp_out.c **** 
1883:Middlewares/Third_Party/LwIP/src/core/tcp_out.c ****   /* NB. MSS and window scale options are only sent on SYNs, so ignore them here */
1884:Middlewares/Third_Party/LwIP/src/core/tcp_out.c **** 
1885:Middlewares/Third_Party/LwIP/src/core/tcp_out.c **** #if LWIP_TCP_TIMESTAMPS
1886:Middlewares/Third_Party/LwIP/src/core/tcp_out.c ****   if (optflags & TF_SEG_OPTS_TS) {
1887:Middlewares/Third_Party/LwIP/src/core/tcp_out.c ****     tcp_build_timestamp_option(pcb, opts);
1888:Middlewares/Third_Party/LwIP/src/core/tcp_out.c ****     opts += 3;
1889:Middlewares/Third_Party/LwIP/src/core/tcp_out.c ****   }
1890:Middlewares/Third_Party/LwIP/src/core/tcp_out.c **** #endif
1891:Middlewares/Third_Party/LwIP/src/core/tcp_out.c **** 
1892:Middlewares/Third_Party/LwIP/src/core/tcp_out.c **** #if LWIP_TCP_SACK_OUT
1893:Middlewares/Third_Party/LwIP/src/core/tcp_out.c ****   if (pcb && (num_sacks > 0)) {
1894:Middlewares/Third_Party/LwIP/src/core/tcp_out.c ****     tcp_build_sack_option(pcb, opts, num_sacks);
ARM GAS  /tmp/ccMjT2X9.s 			page 39


1895:Middlewares/Third_Party/LwIP/src/core/tcp_out.c ****     /* 1 word for SACKs header (including 2xNOP), and 2 words for each SACK */
1896:Middlewares/Third_Party/LwIP/src/core/tcp_out.c ****     sacks_len = 1 + num_sacks * 2;
1897:Middlewares/Third_Party/LwIP/src/core/tcp_out.c ****     opts += sacks_len;
1898:Middlewares/Third_Party/LwIP/src/core/tcp_out.c ****   }
1899:Middlewares/Third_Party/LwIP/src/core/tcp_out.c **** #else
1900:Middlewares/Third_Party/LwIP/src/core/tcp_out.c ****   LWIP_UNUSED_ARG(num_sacks);
1901:Middlewares/Third_Party/LwIP/src/core/tcp_out.c **** #endif
1902:Middlewares/Third_Party/LwIP/src/core/tcp_out.c **** 
1903:Middlewares/Third_Party/LwIP/src/core/tcp_out.c **** #ifdef LWIP_HOOK_TCP_OUT_ADD_TCPOPTS
1904:Middlewares/Third_Party/LwIP/src/core/tcp_out.c ****   opts = LWIP_HOOK_TCP_OUT_ADD_TCPOPTS(p, tcphdr, pcb, opts);
1905:Middlewares/Third_Party/LwIP/src/core/tcp_out.c **** #endif
1906:Middlewares/Third_Party/LwIP/src/core/tcp_out.c **** 
1907:Middlewares/Third_Party/LwIP/src/core/tcp_out.c ****   LWIP_UNUSED_ARG(pcb);
1908:Middlewares/Third_Party/LwIP/src/core/tcp_out.c ****   LWIP_UNUSED_ARG(sacks_len);
1909:Middlewares/Third_Party/LwIP/src/core/tcp_out.c ****   LWIP_ASSERT("options not filled", (u8_t *)opts == ((u8_t *)(tcphdr + 1)) + sacks_len * 4 + LWIP_T
 265              		.loc 1 1909 0
 266 000e 14F0010F 		tst	r4, #1
 267 0012 14D0     		beq	.L35
 268 0014 0422     		movs	r2, #4
 269              	.L33:
 270              		.loc 1 1909 0 is_stmt 0 discriminator 4
 271 0016 1432     		adds	r2, r2, #20
 272 0018 1344     		add	r3, r3, r2
 273              	.LVL27:
 274 001a 9942     		cmp	r1, r3
 275 001c 06D0     		beq	.L31
 276              		.loc 1 1909 0 discriminator 5
 277 001e 094B     		ldr	r3, .L38
 278 0020 40F27572 		movw	r2, #1909
 279 0024 0849     		ldr	r1, .L38+4
 280              	.LVL28:
 281 0026 0948     		ldr	r0, .L38+8
 282 0028 FFF7FEFF 		bl	printf
 283              	.LVL29:
 284              	.L31:
 285 002c 38BD     		pop	{r3, r4, r5, pc}
 286              	.LVL30:
 287              	.L37:
1878:Middlewares/Third_Party/LwIP/src/core/tcp_out.c **** 
 288              		.loc 1 1878 0 is_stmt 1 discriminator 1
 289 002e 054B     		ldr	r3, .L38
 290              	.LVL31:
 291 0030 40F25672 		movw	r2, #1878
 292              	.LVL32:
 293 0034 0649     		ldr	r1, .L38+12
 294              	.LVL33:
 295 0036 0548     		ldr	r0, .L38+8
 296              	.LVL34:
 297 0038 FFF7FEFF 		bl	printf
 298              	.LVL35:
 299 003c E4E7     		b	.L32
 300              	.LVL36:
 301              	.L35:
 302              		.loc 1 1909 0
 303 003e 0022     		movs	r2, #0
 304 0040 E9E7     		b	.L33
 305              	.L39:
ARM GAS  /tmp/ccMjT2X9.s 			page 40


 306 0042 00BF     		.align	2
 307              	.L38:
 308 0044 00000000 		.word	.LC0
 309 0048 28000000 		.word	.LC7
 310 004c 50000000 		.word	.LC2
 311 0050 00000000 		.word	.LC6
 312              		.cfi_endproc
 313              	.LFE176:
 315              		.section	.text.tcp_pbuf_prealloc,"ax",%progbits
 316              		.align	1
 317              		.syntax unified
 318              		.thumb
 319              		.thumb_func
 320              		.fpu fpv5-d16
 322              	tcp_pbuf_prealloc:
 323              	.LFB160:
 228:Middlewares/Third_Party/LwIP/src/core/tcp_out.c ****   struct pbuf *p;
 324              		.loc 1 228 0
 325              		.cfi_startproc
 326              		@ args = 12, pretend = 0, frame = 0
 327              		@ frame_needed = 0, uses_anonymous_args = 0
 328              	.LVL37:
 329 0000 2DE9F843 		push	{r3, r4, r5, r6, r7, r8, r9, lr}
 330              	.LCFI3:
 331              		.cfi_def_cfa_offset 32
 332              		.cfi_offset 3, -32
 333              		.cfi_offset 4, -28
 334              		.cfi_offset 5, -24
 335              		.cfi_offset 6, -20
 336              		.cfi_offset 7, -16
 337              		.cfi_offset 8, -12
 338              		.cfi_offset 9, -8
 339              		.cfi_offset 14, -4
 340 0004 8046     		mov	r8, r0
 341 0006 0C46     		mov	r4, r1
 342 0008 1546     		mov	r5, r2
 343 000a 089F     		ldr	r7, [sp, #32]
 344 000c 9DF82890 		ldrb	r9, [sp, #40]	@ zero_extendqisi2
 345              	.LVL38:
 232:Middlewares/Third_Party/LwIP/src/core/tcp_out.c ****   LWIP_ASSERT("tcp_pbuf_prealloc: invalid pcb", pcb != NULL);
 346              		.loc 1 232 0
 347 0010 1E46     		mov	r6, r3
 348 0012 CBB1     		cbz	r3, .L51
 349              	.LVL39:
 350              	.L41:
 233:Middlewares/Third_Party/LwIP/src/core/tcp_out.c **** 
 351              		.loc 1 233 0
 352 0014 FFB1     		cbz	r7, .L52
 353              	.L42:
 242:Middlewares/Third_Party/LwIP/src/core/tcp_out.c ****     /* Should we allocate an oversized pbuf, or just the minimum
 354              		.loc 1 242 0
 355 0016 AC42     		cmp	r4, r5
 356 0018 29D2     		bcs	.L47
 254:Middlewares/Third_Party/LwIP/src/core/tcp_out.c ****         (!(pcb->flags & TF_NODELAY) &&
 357              		.loc 1 254 0
 358 001a 9DF82430 		ldrb	r3, [sp, #36]	@ zero_extendqisi2
 359 001e 13F0020F 		tst	r3, #2
ARM GAS  /tmp/ccMjT2X9.s 			page 41


 360 0022 08D1     		bne	.L44
 255:Middlewares/Third_Party/LwIP/src/core/tcp_out.c ****          (!first_seg ||
 361              		.loc 1 255 0 discriminator 1
 362 0024 7B8B     		ldrh	r3, [r7, #26]
 254:Middlewares/Third_Party/LwIP/src/core/tcp_out.c ****         (!(pcb->flags & TF_NODELAY) &&
 363              		.loc 1 254 0 discriminator 1
 364 0026 13F0400F 		tst	r3, #64
 365 002a 39D1     		bne	.L48
 255:Middlewares/Third_Party/LwIP/src/core/tcp_out.c ****          (!first_seg ||
 366              		.loc 1 255 0
 367 002c B9F1000F 		cmp	r9, #0
 368 0030 01D0     		beq	.L44
 257:Middlewares/Third_Party/LwIP/src/core/tcp_out.c ****           pcb->unacked != NULL))) {
 369              		.loc 1 257 0
 370 0032 FB6E     		ldr	r3, [r7, #108]
 256:Middlewares/Third_Party/LwIP/src/core/tcp_out.c ****           pcb->unsent != NULL ||
 371              		.loc 1 256 0
 372 0034 B3B1     		cbz	r3, .L53
 373              	.L44:
 259:Middlewares/Third_Party/LwIP/src/core/tcp_out.c ****     }
 374              		.loc 1 259 0
 375 0036 04F21B21 		addw	r1, r4, #539
 376 003a 21F00301 		bic	r1, r1, #3
 377 003e 8D42     		cmp	r5, r1
 378 0040 28BF     		it	cs
 379 0042 0D46     		movcs	r5, r1
 380 0044 A9B2     		uxth	r1, r5
 381              	.LVL40:
 382 0046 13E0     		b	.L43
 383              	.LVL41:
 384              	.L51:
 232:Middlewares/Third_Party/LwIP/src/core/tcp_out.c ****   LWIP_ASSERT("tcp_pbuf_prealloc: invalid pcb", pcb != NULL);
 385              		.loc 1 232 0 discriminator 1
 386 0048 164B     		ldr	r3, .L54
 387              	.LVL42:
 388 004a E822     		movs	r2, #232
 389              	.LVL43:
 390 004c 1649     		ldr	r1, .L54+4
 391              	.LVL44:
 392 004e 1748     		ldr	r0, .L54+8
 393              	.LVL45:
 394 0050 FFF7FEFF 		bl	printf
 395              	.LVL46:
 396 0054 DEE7     		b	.L41
 397              	.L52:
 233:Middlewares/Third_Party/LwIP/src/core/tcp_out.c **** 
 398              		.loc 1 233 0 discriminator 1
 399 0056 134B     		ldr	r3, .L54
 400 0058 E922     		movs	r2, #233
 401 005a 1549     		ldr	r1, .L54+12
 402 005c 1348     		ldr	r0, .L54+8
 403 005e FFF7FEFF 		bl	printf
 404              	.LVL47:
 405 0062 D8E7     		b	.L42
 406              	.L53:
 258:Middlewares/Third_Party/LwIP/src/core/tcp_out.c ****       alloc = LWIP_MIN(max_length, LWIP_MEM_ALIGN_SIZE(TCP_OVERSIZE_CALC_LENGTH(length)));
 407              		.loc 1 258 0
ARM GAS  /tmp/ccMjT2X9.s 			page 42


 408 0064 3B6F     		ldr	r3, [r7, #112]
 257:Middlewares/Third_Party/LwIP/src/core/tcp_out.c ****           pcb->unacked != NULL))) {
 409              		.loc 1 257 0
 410 0066 002B     		cmp	r3, #0
 411 0068 E5D1     		bne	.L44
 230:Middlewares/Third_Party/LwIP/src/core/tcp_out.c **** 
 412              		.loc 1 230 0
 413 006a 2146     		mov	r1, r4
 414 006c 00E0     		b	.L43
 415              	.L47:
 416 006e 2146     		mov	r1, r4
 417              	.LVL48:
 418              	.L43:
 263:Middlewares/Third_Party/LwIP/src/core/tcp_out.c ****   if (p == NULL) {
 419              		.loc 1 263 0
 420 0070 4FF42072 		mov	r2, #640
 421 0074 4046     		mov	r0, r8
 422 0076 FFF7FEFF 		bl	pbuf_alloc
 423              	.LVL49:
 264:Middlewares/Third_Party/LwIP/src/core/tcp_out.c ****     return NULL;
 424              		.loc 1 264 0
 425 007a 0546     		mov	r5, r0
 426 007c 68B1     		cbz	r0, .L40
 267:Middlewares/Third_Party/LwIP/src/core/tcp_out.c ****   *oversize = p->len - length;
 427              		.loc 1 267 0
 428 007e 0368     		ldr	r3, [r0]
 429 0080 33B1     		cbz	r3, .L46
 267:Middlewares/Third_Party/LwIP/src/core/tcp_out.c ****   *oversize = p->len - length;
 430              		.loc 1 267 0 is_stmt 0 discriminator 1
 431 0082 084B     		ldr	r3, .L54
 432 0084 40F20B12 		movw	r2, #267
 433 0088 0A49     		ldr	r1, .L54+16
 434 008a 0848     		ldr	r0, .L54+8
 435              	.LVL50:
 436 008c FFF7FEFF 		bl	printf
 437              	.LVL51:
 438              	.L46:
 268:Middlewares/Third_Party/LwIP/src/core/tcp_out.c ****   /* trim p->len to the currently used size */
 439              		.loc 1 268 0 is_stmt 1
 440 0090 6B89     		ldrh	r3, [r5, #10]
 441 0092 1B1B     		subs	r3, r3, r4
 442 0094 3380     		strh	r3, [r6]	@ movhi
 270:Middlewares/Third_Party/LwIP/src/core/tcp_out.c ****   return p;
 443              		.loc 1 270 0
 444 0096 2C81     		strh	r4, [r5, #8]	@ movhi
 445 0098 6C81     		strh	r4, [r5, #10]	@ movhi
 446              	.L40:
 272:Middlewares/Third_Party/LwIP/src/core/tcp_out.c **** #else /* TCP_OVERSIZE */
 447              		.loc 1 272 0
 448 009a 2846     		mov	r0, r5
 449 009c BDE8F883 		pop	{r3, r4, r5, r6, r7, r8, r9, pc}
 450              	.LVL52:
 451              	.L48:
 230:Middlewares/Third_Party/LwIP/src/core/tcp_out.c **** 
 452              		.loc 1 230 0
 453 00a0 2146     		mov	r1, r4
 454 00a2 E5E7     		b	.L43
ARM GAS  /tmp/ccMjT2X9.s 			page 43


 455              	.L55:
 456              		.align	2
 457              	.L54:
 458 00a4 00000000 		.word	.LC0
 459 00a8 00000000 		.word	.LC8
 460 00ac 50000000 		.word	.LC2
 461 00b0 24000000 		.word	.LC9
 462 00b4 44000000 		.word	.LC10
 463              		.cfi_endproc
 464              	.LFE160:
 466              		.section	.text.tcp_create_segment,"ax",%progbits
 467              		.align	1
 468              		.syntax unified
 469              		.thumb
 470              		.thumb_func
 471              		.fpu fpv5-d16
 473              	tcp_create_segment:
 474              	.LFB159:
 159:Middlewares/Third_Party/LwIP/src/core/tcp_out.c ****   struct tcp_seg *seg;
 475              		.loc 1 159 0
 476              		.cfi_startproc
 477              		@ args = 4, pretend = 0, frame = 0
 478              		@ frame_needed = 0, uses_anonymous_args = 0
 479              	.LVL53:
 480 0000 2DE9F047 		push	{r4, r5, r6, r7, r8, r9, r10, lr}
 481              	.LCFI4:
 482              		.cfi_def_cfa_offset 32
 483              		.cfi_offset 4, -32
 484              		.cfi_offset 5, -28
 485              		.cfi_offset 6, -24
 486              		.cfi_offset 7, -20
 487              		.cfi_offset 8, -16
 488              		.cfi_offset 9, -12
 489              		.cfi_offset 10, -8
 490              		.cfi_offset 14, -4
 491 0004 0E46     		mov	r6, r1
 492 0006 1746     		mov	r7, r2
 493 0008 9946     		mov	r9, r3
 494 000a 9DF820A0 		ldrb	r10, [sp, #32]	@ zero_extendqisi2
 163:Middlewares/Third_Party/LwIP/src/core/tcp_out.c ****   LWIP_ASSERT("tcp_create_segment: invalid pbuf", p != NULL);
 495              		.loc 1 163 0
 496 000e 8046     		mov	r8, r0
 497 0010 0028     		cmp	r0, #0
 498 0012 42D0     		beq	.L66
 499              	.LVL54:
 500              	.L57:
 164:Middlewares/Third_Party/LwIP/src/core/tcp_out.c **** 
 501              		.loc 1 164 0
 502 0014 002E     		cmp	r6, #0
 503 0016 47D0     		beq	.L67
 504              	.L58:
 166:Middlewares/Third_Party/LwIP/src/core/tcp_out.c **** 
 505              		.loc 1 166 0
 506 0018 1AF0010F 		tst	r10, #1
 507 001c 4BD0     		beq	.L64
 508 001e 0425     		movs	r5, #4
 509              	.L59:
ARM GAS  /tmp/ccMjT2X9.s 			page 44


 510              	.LVL55:
 168:Middlewares/Third_Party/LwIP/src/core/tcp_out.c ****     LWIP_DEBUGF(TCP_OUTPUT_DEBUG | LWIP_DBG_LEVEL_SERIOUS, ("tcp_create_segment: no memory.\n"));
 511              		.loc 1 168 0 discriminator 4
 512 0020 0320     		movs	r0, #3
 513 0022 FFF7FEFF 		bl	memp_malloc
 514              	.LVL56:
 515 0026 0446     		mov	r4, r0
 516 0028 0028     		cmp	r0, #0
 517 002a 46D0     		beq	.L68
 173:Middlewares/Third_Party/LwIP/src/core/tcp_out.c ****   seg->next = NULL;
 518              		.loc 1 173 0
 519 002c 80F80AA0 		strb	r10, [r0, #10]
 174:Middlewares/Third_Party/LwIP/src/core/tcp_out.c ****   seg->p = p;
 520              		.loc 1 174 0
 521 0030 0023     		movs	r3, #0
 522 0032 0360     		str	r3, [r0]
 175:Middlewares/Third_Party/LwIP/src/core/tcp_out.c ****   LWIP_ASSERT("p->tot_len >= optlen", p->tot_len >= optlen);
 523              		.loc 1 175 0
 524 0034 4660     		str	r6, [r0, #4]
 176:Middlewares/Third_Party/LwIP/src/core/tcp_out.c ****   seg->len = p->tot_len - optlen;
 525              		.loc 1 176 0
 526 0036 3389     		ldrh	r3, [r6, #8]
 527 0038 1FFA85FA 		uxth	r10, r5
 528 003c 5345     		cmp	r3, r10
 529 003e 40D3     		bcc	.L69
 530              	.LVL57:
 531              	.L62:
 177:Middlewares/Third_Party/LwIP/src/core/tcp_out.c **** #if TCP_OVERSIZE_DBGCHECK
 532              		.loc 1 177 0
 533 0040 3389     		ldrh	r3, [r6, #8]
 534 0042 A3EB0A03 		sub	r3, r3, r10
 535 0046 2381     		strh	r3, [r4, #8]	@ movhi
 190:Middlewares/Third_Party/LwIP/src/core/tcp_out.c ****     LWIP_DEBUGF(TCP_OUTPUT_DEBUG | LWIP_DBG_LEVEL_SERIOUS, ("tcp_create_segment: no room for TCP he
 536              		.loc 1 190 0
 537 0048 1421     		movs	r1, #20
 538 004a 3046     		mov	r0, r6
 539 004c FFF7FEFF 		bl	pbuf_add_header
 540              	.LVL58:
 541 0050 0028     		cmp	r0, #0
 542 0052 3DD1     		bne	.L70
 196:Middlewares/Third_Party/LwIP/src/core/tcp_out.c ****   seg->tcphdr->src = lwip_htons(pcb->local_port);
 543              		.loc 1 196 0
 544 0054 6368     		ldr	r3, [r4, #4]
 545 0056 5E68     		ldr	r6, [r3, #4]
 546              	.LVL59:
 547 0058 E660     		str	r6, [r4, #12]
 197:Middlewares/Third_Party/LwIP/src/core/tcp_out.c ****   seg->tcphdr->dest = lwip_htons(pcb->remote_port);
 548              		.loc 1 197 0
 549 005a B8F81600 		ldrh	r0, [r8, #22]
 550 005e FFF7FEFF 		bl	lwip_htons
 551              	.LVL60:
 552 0062 3080     		strh	r0, [r6]	@ unaligned
 198:Middlewares/Third_Party/LwIP/src/core/tcp_out.c ****   seg->tcphdr->seqno = lwip_htonl(seqno);
 553              		.loc 1 198 0
 554 0064 E668     		ldr	r6, [r4, #12]
 555 0066 B8F81800 		ldrh	r0, [r8, #24]
 556 006a FFF7FEFF 		bl	lwip_htons
ARM GAS  /tmp/ccMjT2X9.s 			page 45


 557              	.LVL61:
 558 006e 7080     		strh	r0, [r6, #2]	@ unaligned
 199:Middlewares/Third_Party/LwIP/src/core/tcp_out.c ****   /* ackno is set in tcp_output */
 559              		.loc 1 199 0
 560 0070 E668     		ldr	r6, [r4, #12]
 561 0072 4846     		mov	r0, r9
 562 0074 FFF7FEFF 		bl	lwip_htonl
 563              	.LVL62:
 564 0078 7060     		str	r0, [r6, #4]	@ unaligned
 201:Middlewares/Third_Party/LwIP/src/core/tcp_out.c ****   /* wnd and chksum are set in tcp_output */
 565              		.loc 1 201 0
 566 007a E668     		ldr	r6, [r4, #12]
 567 007c A808     		lsrs	r0, r5, #2
 568 007e 0530     		adds	r0, r0, #5
 569 0080 0003     		lsls	r0, r0, #12
 570 0082 80B2     		uxth	r0, r0
 571 0084 3843     		orrs	r0, r0, r7
 572 0086 FFF7FEFF 		bl	lwip_htons
 573              	.LVL63:
 574 008a B081     		strh	r0, [r6, #12]	@ unaligned
 203:Middlewares/Third_Party/LwIP/src/core/tcp_out.c ****   return seg;
 575              		.loc 1 203 0
 576 008c E368     		ldr	r3, [r4, #12]
 577 008e 0022     		movs	r2, #0
 578 0090 9A74     		strb	r2, [r3, #18]
 579 0092 DA74     		strb	r2, [r3, #19]
 580              	.LVL64:
 581              	.L56:
 205:Middlewares/Third_Party/LwIP/src/core/tcp_out.c **** 
 582              		.loc 1 205 0
 583 0094 2046     		mov	r0, r4
 584 0096 BDE8F087 		pop	{r4, r5, r6, r7, r8, r9, r10, pc}
 585              	.LVL65:
 586              	.L66:
 163:Middlewares/Third_Party/LwIP/src/core/tcp_out.c ****   LWIP_ASSERT("tcp_create_segment: invalid pbuf", p != NULL);
 587              		.loc 1 163 0 discriminator 1
 588 009a 104B     		ldr	r3, .L71
 589              	.LVL66:
 590 009c A322     		movs	r2, #163
 591              	.LVL67:
 592 009e 1049     		ldr	r1, .L71+4
 593              	.LVL68:
 594 00a0 1048     		ldr	r0, .L71+8
 595              	.LVL69:
 596 00a2 FFF7FEFF 		bl	printf
 597              	.LVL70:
 598 00a6 B5E7     		b	.L57
 599              	.L67:
 164:Middlewares/Third_Party/LwIP/src/core/tcp_out.c **** 
 600              		.loc 1 164 0 discriminator 1
 601 00a8 0C4B     		ldr	r3, .L71
 602 00aa A422     		movs	r2, #164
 603 00ac 0E49     		ldr	r1, .L71+12
 604 00ae 0D48     		ldr	r0, .L71+8
 605 00b0 FFF7FEFF 		bl	printf
 606              	.LVL71:
 607 00b4 B0E7     		b	.L58
ARM GAS  /tmp/ccMjT2X9.s 			page 46


 608              	.L64:
 166:Middlewares/Third_Party/LwIP/src/core/tcp_out.c **** 
 609              		.loc 1 166 0
 610 00b6 0025     		movs	r5, #0
 611 00b8 B2E7     		b	.L59
 612              	.LVL72:
 613              	.L68:
 170:Middlewares/Third_Party/LwIP/src/core/tcp_out.c ****     return NULL;
 614              		.loc 1 170 0
 615 00ba 3046     		mov	r0, r6
 616              	.LVL73:
 617 00bc FFF7FEFF 		bl	pbuf_free
 618              	.LVL74:
 171:Middlewares/Third_Party/LwIP/src/core/tcp_out.c ****   }
 619              		.loc 1 171 0
 620 00c0 E8E7     		b	.L56
 621              	.LVL75:
 622              	.L69:
 176:Middlewares/Third_Party/LwIP/src/core/tcp_out.c ****   seg->len = p->tot_len - optlen;
 623              		.loc 1 176 0 discriminator 1
 624 00c2 064B     		ldr	r3, .L71
 625 00c4 B022     		movs	r2, #176
 626 00c6 0949     		ldr	r1, .L71+16
 627 00c8 0648     		ldr	r0, .L71+8
 628              	.LVL76:
 629 00ca FFF7FEFF 		bl	printf
 630              	.LVL77:
 631 00ce B7E7     		b	.L62
 632              	.L70:
 193:Middlewares/Third_Party/LwIP/src/core/tcp_out.c ****     return NULL;
 633              		.loc 1 193 0
 634 00d0 2046     		mov	r0, r4
 635 00d2 FFF7FEFF 		bl	tcp_seg_free
 636              	.LVL78:
 194:Middlewares/Third_Party/LwIP/src/core/tcp_out.c ****   }
 637              		.loc 1 194 0
 638 00d6 0024     		movs	r4, #0
 639              	.LVL79:
 640 00d8 DCE7     		b	.L56
 641              	.L72:
 642 00da 00BF     		.align	2
 643              	.L71:
 644 00dc 00000000 		.word	.LC0
 645 00e0 00000000 		.word	.LC11
 646 00e4 50000000 		.word	.LC2
 647 00e8 20000000 		.word	.LC12
 648 00ec 44000000 		.word	.LC13
 649              		.cfi_endproc
 650              	.LFE159:
 652              		.section	.text.tcp_output_alloc_header_common,"ax",%progbits
 653              		.align	1
 654              		.syntax unified
 655              		.thumb
 656              		.thumb_func
 657              		.fpu fpv5-d16
 659              	tcp_output_alloc_header_common:
 660              	.LFB174:
ARM GAS  /tmp/ccMjT2X9.s 			page 47


1821:Middlewares/Third_Party/LwIP/src/core/tcp_out.c ****   struct tcp_hdr *tcphdr;
 661              		.loc 1 1821 0
 662              		.cfi_startproc
 663              		@ args = 16, pretend = 0, frame = 0
 664              		@ frame_needed = 0, uses_anonymous_args = 0
 665              	.LVL80:
 666 0000 2DE9F041 		push	{r4, r5, r6, r7, r8, lr}
 667              	.LCFI5:
 668              		.cfi_def_cfa_offset 24
 669              		.cfi_offset 4, -24
 670              		.cfi_offset 5, -20
 671              		.cfi_offset 6, -16
 672              		.cfi_offset 7, -12
 673              		.cfi_offset 8, -8
 674              		.cfi_offset 14, -4
 675 0004 0746     		mov	r7, r0
 676 0006 0C46     		mov	r4, r1
 677 0008 9846     		mov	r8, r3
1825:Middlewares/Third_Party/LwIP/src/core/tcp_out.c ****   if (p != NULL) {
 678              		.loc 1 1825 0
 679 000a 1144     		add	r1, r1, r2
 680              	.LVL81:
 681 000c 89B2     		uxth	r1, r1
 682 000e 1431     		adds	r1, r1, #20
 683 0010 4FF42072 		mov	r2, #640
 684              	.LVL82:
 685 0014 89B2     		uxth	r1, r1
 686 0016 2220     		movs	r0, #34
 687              	.LVL83:
 688 0018 FFF7FEFF 		bl	pbuf_alloc
 689              	.LVL84:
1826:Middlewares/Third_Party/LwIP/src/core/tcp_out.c ****     LWIP_ASSERT("check that first pbuf can hold struct tcp_hdr",
 690              		.loc 1 1826 0
 691 001c 0646     		mov	r6, r0
 692 001e 48B3     		cbz	r0, .L73
1827:Middlewares/Third_Party/LwIP/src/core/tcp_out.c ****                 (p->len >= TCP_HLEN + optlen));
 693              		.loc 1 1827 0
 694 0020 4289     		ldrh	r2, [r0, #10]
 695 0022 04F11403 		add	r3, r4, #20
 696 0026 9A42     		cmp	r2, r3
 697 0028 27DB     		blt	.L77
 698              	.LVL85:
 699              	.L75:
1829:Middlewares/Third_Party/LwIP/src/core/tcp_out.c ****     tcphdr->src = lwip_htons(src_port);
 700              		.loc 1 1829 0
 701 002a 7568     		ldr	r5, [r6, #4]
 702              	.LVL86:
1830:Middlewares/Third_Party/LwIP/src/core/tcp_out.c ****     tcphdr->dest = lwip_htons(dst_port);
 703              		.loc 1 1830 0
 704 002c BDF81800 		ldrh	r0, [sp, #24]
 705 0030 FFF7FEFF 		bl	lwip_htons
 706              	.LVL87:
 707 0034 2880     		strh	r0, [r5]	@ unaligned
1831:Middlewares/Third_Party/LwIP/src/core/tcp_out.c ****     tcphdr->seqno = seqno_be;
 708              		.loc 1 1831 0
 709 0036 BDF81C00 		ldrh	r0, [sp, #28]
 710 003a FFF7FEFF 		bl	lwip_htons
ARM GAS  /tmp/ccMjT2X9.s 			page 48


 711              	.LVL88:
 712 003e 6880     		strh	r0, [r5, #2]	@ unaligned
1832:Middlewares/Third_Party/LwIP/src/core/tcp_out.c ****     tcphdr->ackno = lwip_htonl(ackno);
 713              		.loc 1 1832 0
 714 0040 C5F80480 		str	r8, [r5, #4]	@ unaligned
1833:Middlewares/Third_Party/LwIP/src/core/tcp_out.c ****     TCPH_HDRLEN_FLAGS_SET(tcphdr, (5 + optlen / 4), flags);
 715              		.loc 1 1833 0
 716 0044 3846     		mov	r0, r7
 717 0046 FFF7FEFF 		bl	lwip_htonl
 718              	.LVL89:
 719 004a A860     		str	r0, [r5, #8]	@ unaligned
1834:Middlewares/Third_Party/LwIP/src/core/tcp_out.c ****     tcphdr->wnd = lwip_htons(wnd);
 720              		.loc 1 1834 0
 721 004c A408     		lsrs	r4, r4, #2
 722 004e 0534     		adds	r4, r4, #5
 723 0050 2403     		lsls	r4, r4, #12
 724 0052 A4B2     		uxth	r4, r4
 725 0054 9DF82000 		ldrb	r0, [sp, #32]	@ zero_extendqisi2
 726 0058 2043     		orrs	r0, r0, r4
 727 005a FFF7FEFF 		bl	lwip_htons
 728              	.LVL90:
 729 005e A881     		strh	r0, [r5, #12]	@ unaligned
1835:Middlewares/Third_Party/LwIP/src/core/tcp_out.c ****     tcphdr->chksum = 0;
 730              		.loc 1 1835 0
 731 0060 BDF82400 		ldrh	r0, [sp, #36]
 732 0064 FFF7FEFF 		bl	lwip_htons
 733              	.LVL91:
 734 0068 E881     		strh	r0, [r5, #14]	@ unaligned
1836:Middlewares/Third_Party/LwIP/src/core/tcp_out.c ****     tcphdr->urgp = 0;
 735              		.loc 1 1836 0
 736 006a 0023     		movs	r3, #0
 737 006c 2B74     		strb	r3, [r5, #16]
 738 006e 6B74     		strb	r3, [r5, #17]
1837:Middlewares/Third_Party/LwIP/src/core/tcp_out.c ****   }
 739              		.loc 1 1837 0
 740 0070 AB74     		strb	r3, [r5, #18]
 741 0072 EB74     		strb	r3, [r5, #19]
 742              	.LVL92:
 743              	.L73:
1840:Middlewares/Third_Party/LwIP/src/core/tcp_out.c **** 
 744              		.loc 1 1840 0
 745 0074 3046     		mov	r0, r6
 746 0076 BDE8F081 		pop	{r4, r5, r6, r7, r8, pc}
 747              	.LVL93:
 748              	.L77:
1827:Middlewares/Third_Party/LwIP/src/core/tcp_out.c ****                 (p->len >= TCP_HLEN + optlen));
 749              		.loc 1 1827 0 discriminator 1
 750 007a 044B     		ldr	r3, .L78
 751 007c 40F22472 		movw	r2, #1828
 752 0080 0349     		ldr	r1, .L78+4
 753 0082 0448     		ldr	r0, .L78+8
 754              	.LVL94:
 755 0084 FFF7FEFF 		bl	printf
 756              	.LVL95:
 757 0088 CFE7     		b	.L75
 758              	.L79:
 759 008a 00BF     		.align	2
ARM GAS  /tmp/ccMjT2X9.s 			page 49


 760              	.L78:
 761 008c 00000000 		.word	.LC0
 762 0090 00000000 		.word	.LC14
 763 0094 50000000 		.word	.LC2
 764              		.cfi_endproc
 765              	.LFE174:
 767              		.section	.text.tcp_output_alloc_header,"ax",%progbits
 768              		.align	1
 769              		.syntax unified
 770              		.thumb
 771              		.thumb_func
 772              		.fpu fpv5-d16
 774              	tcp_output_alloc_header:
 775              	.LFB175:
1855:Middlewares/Third_Party/LwIP/src/core/tcp_out.c ****   struct pbuf *p;
 776              		.loc 1 1855 0
 777              		.cfi_startproc
 778              		@ args = 0, pretend = 0, frame = 0
 779              		@ frame_needed = 0, uses_anonymous_args = 0
 780              	.LVL96:
 781 0000 F0B5     		push	{r4, r5, r6, r7, lr}
 782              	.LCFI6:
 783              		.cfi_def_cfa_offset 20
 784              		.cfi_offset 4, -20
 785              		.cfi_offset 5, -16
 786              		.cfi_offset 6, -12
 787              		.cfi_offset 7, -8
 788              		.cfi_offset 14, -4
 789 0002 85B0     		sub	sp, sp, #20
 790              	.LCFI7:
 791              		.cfi_def_cfa_offset 40
 792 0004 0D46     		mov	r5, r1
 793 0006 1646     		mov	r6, r2
 794 0008 1F46     		mov	r7, r3
1858:Middlewares/Third_Party/LwIP/src/core/tcp_out.c **** 
 795              		.loc 1 1858 0
 796 000a 0446     		mov	r4, r0
 797 000c B0B1     		cbz	r0, .L84
 798              	.LVL97:
 799              	.L81:
1860:Middlewares/Third_Party/LwIP/src/core/tcp_out.c ****     seqno_be, pcb->local_port, pcb->remote_port, TCP_ACK,
 800              		.loc 1 1860 0
 801 000e 606A     		ldr	r0, [r4, #36]
 802 0010 E38A     		ldrh	r3, [r4, #22]
 803 0012 228B     		ldrh	r2, [r4, #24]
 804 0014 618D     		ldrh	r1, [r4, #42]
 805 0016 0391     		str	r1, [sp, #12]
 806 0018 1021     		movs	r1, #16
 807 001a 0291     		str	r1, [sp, #8]
 808 001c 0192     		str	r2, [sp, #4]
 809 001e 0093     		str	r3, [sp]
 810 0020 3B46     		mov	r3, r7
 811 0022 3246     		mov	r2, r6
 812 0024 2946     		mov	r1, r5
 813 0026 FFF7FEFF 		bl	tcp_output_alloc_header_common
 814              	.LVL98:
1863:Middlewares/Third_Party/LwIP/src/core/tcp_out.c ****     /* If we're sending a packet, update the announced right window edge */
ARM GAS  /tmp/ccMjT2X9.s 			page 50


 815              		.loc 1 1863 0
 816 002a 0246     		mov	r2, r0
 817 002c 18B1     		cbz	r0, .L80
1865:Middlewares/Third_Party/LwIP/src/core/tcp_out.c ****   }
 818              		.loc 1 1865 0
 819 002e 636A     		ldr	r3, [r4, #36]
 820 0030 618D     		ldrh	r1, [r4, #42]
 821 0032 0B44     		add	r3, r3, r1
 822 0034 E362     		str	r3, [r4, #44]
 823              	.L80:
1868:Middlewares/Third_Party/LwIP/src/core/tcp_out.c **** 
 824              		.loc 1 1868 0
 825 0036 1046     		mov	r0, r2
 826              	.LVL99:
 827 0038 05B0     		add	sp, sp, #20
 828              	.LCFI8:
 829              		.cfi_remember_state
 830              		.cfi_def_cfa_offset 20
 831              		@ sp needed
 832 003a F0BD     		pop	{r4, r5, r6, r7, pc}
 833              	.LVL100:
 834              	.L84:
 835              	.LCFI9:
 836              		.cfi_restore_state
1858:Middlewares/Third_Party/LwIP/src/core/tcp_out.c **** 
 837              		.loc 1 1858 0 discriminator 1
 838 003c 034B     		ldr	r3, .L85
 839              	.LVL101:
 840 003e 40F24272 		movw	r2, #1858
 841              	.LVL102:
 842 0042 0349     		ldr	r1, .L85+4
 843              	.LVL103:
 844 0044 0348     		ldr	r0, .L85+8
 845              	.LVL104:
 846 0046 FFF7FEFF 		bl	printf
 847              	.LVL105:
 848 004a E0E7     		b	.L81
 849              	.L86:
 850              		.align	2
 851              	.L85:
 852 004c 00000000 		.word	.LC0
 853 0050 00000000 		.word	.LC15
 854 0054 50000000 		.word	.LC2
 855              		.cfi_endproc
 856              	.LFE175:
 858              		.section	.text.tcp_route,"ax",%progbits
 859              		.align	1
 860              		.syntax unified
 861              		.thumb
 862              		.thumb_func
 863              		.fpu fpv5-d16
 865              	tcp_route:
 866              	.LFB158:
 133:Middlewares/Third_Party/LwIP/src/core/tcp_out.c ****   LWIP_UNUSED_ARG(src); /* in case IPv4-only and source-based routing is disabled */
 867              		.loc 1 133 0
 868              		.cfi_startproc
 869              		@ args = 0, pretend = 0, frame = 0
ARM GAS  /tmp/ccMjT2X9.s 			page 51


 870              		@ frame_needed = 0, uses_anonymous_args = 0
 871              	.LVL106:
 872 0000 08B5     		push	{r3, lr}
 873              	.LCFI10:
 874              		.cfi_def_cfa_offset 8
 875              		.cfi_offset 3, -8
 876              		.cfi_offset 14, -4
 136:Middlewares/Third_Party/LwIP/src/core/tcp_out.c ****     return netif_get_by_index(pcb->netif_idx);
 877              		.loc 1 136 0
 878 0002 08B1     		cbz	r0, .L88
 136:Middlewares/Third_Party/LwIP/src/core/tcp_out.c ****     return netif_get_by_index(pcb->netif_idx);
 879              		.loc 1 136 0 is_stmt 0 discriminator 1
 880 0004 007A     		ldrb	r0, [r0, #8]	@ zero_extendqisi2
 881              	.LVL107:
 882 0006 18B9     		cbnz	r0, .L91
 883              	.L88:
 139:Middlewares/Third_Party/LwIP/src/core/tcp_out.c ****   }
 884              		.loc 1 139 0 is_stmt 1
 885 0008 1046     		mov	r0, r2
 886 000a FFF7FEFF 		bl	ip4_route
 887              	.LVL108:
 141:Middlewares/Third_Party/LwIP/src/core/tcp_out.c **** 
 888              		.loc 1 141 0
 889 000e 08BD     		pop	{r3, pc}
 890              	.LVL109:
 891              	.L91:
 137:Middlewares/Third_Party/LwIP/src/core/tcp_out.c ****   } else {
 892              		.loc 1 137 0
 893 0010 FFF7FEFF 		bl	netif_get_by_index
 894              	.LVL110:
 895 0014 08BD     		pop	{r3, pc}
 896              		.cfi_endproc
 897              	.LFE158:
 899              		.section	.text.tcp_output_segment,"ax",%progbits
 900              		.align	1
 901              		.syntax unified
 902              		.thumb
 903              		.thumb_func
 904              		.fpu fpv5-d16
 906              	tcp_output_segment:
 907              	.LFB168:
1456:Middlewares/Third_Party/LwIP/src/core/tcp_out.c ****   err_t err;
 908              		.loc 1 1456 0
 909              		.cfi_startproc
 910              		@ args = 0, pretend = 0, frame = 0
 911              		@ frame_needed = 0, uses_anonymous_args = 0
 912              	.LVL111:
 913 0000 2DE9F041 		push	{r4, r5, r6, r7, r8, lr}
 914              	.LCFI11:
 915              		.cfi_def_cfa_offset 24
 916              		.cfi_offset 4, -24
 917              		.cfi_offset 5, -20
 918              		.cfi_offset 6, -16
 919              		.cfi_offset 7, -12
 920              		.cfi_offset 8, -8
 921              		.cfi_offset 14, -4
 922 0004 84B0     		sub	sp, sp, #16
ARM GAS  /tmp/ccMjT2X9.s 			page 52


 923              	.LCFI12:
 924              		.cfi_def_cfa_offset 40
 925 0006 0D46     		mov	r5, r1
 926 0008 1646     		mov	r6, r2
1464:Middlewares/Third_Party/LwIP/src/core/tcp_out.c ****   LWIP_ASSERT("tcp_output_segment: invalid pcb", pcb != NULL);
 927              		.loc 1 1464 0
 928 000a 0446     		mov	r4, r0
 929 000c 48B1     		cbz	r0, .L105
 930              	.LVL112:
 931              	.L93:
1465:Middlewares/Third_Party/LwIP/src/core/tcp_out.c ****   LWIP_ASSERT("tcp_output_segment: invalid netif", netif != NULL);
 932              		.loc 1 1465 0
 933 000e 85B1     		cbz	r5, .L106
 934              	.L94:
1466:Middlewares/Third_Party/LwIP/src/core/tcp_out.c **** 
 935              		.loc 1 1466 0
 936 0010 BEB1     		cbz	r6, .L107
 937              	.L95:
1468:Middlewares/Third_Party/LwIP/src/core/tcp_out.c ****     /* This should not happen: rexmit functions should have checked this.
 938              		.loc 1 1468 0
 939 0012 2046     		mov	r0, r4
 940 0014 FFF7FEFF 		bl	tcp_output_segment_busy
 941              	.LVL113:
 942 0018 D8B1     		cbz	r0, .L108
1472:Middlewares/Third_Party/LwIP/src/core/tcp_out.c ****   }
 943              		.loc 1 1472 0
 944 001a 0020     		movs	r0, #0
 945              	.L96:
1621:Middlewares/Third_Party/LwIP/src/core/tcp_out.c **** 
 946              		.loc 1 1621 0
 947 001c 04B0     		add	sp, sp, #16
 948              	.LCFI13:
 949              		.cfi_remember_state
 950              		.cfi_def_cfa_offset 24
 951              		@ sp needed
 952 001e BDE8F081 		pop	{r4, r5, r6, r7, r8, pc}
 953              	.LVL114:
 954              	.L105:
 955              	.LCFI14:
 956              		.cfi_restore_state
1464:Middlewares/Third_Party/LwIP/src/core/tcp_out.c ****   LWIP_ASSERT("tcp_output_segment: invalid pcb", pcb != NULL);
 957              		.loc 1 1464 0 discriminator 1
 958 0022 414B     		ldr	r3, .L112
 959 0024 4FF4B762 		mov	r2, #1464
 960              	.LVL115:
 961 0028 4049     		ldr	r1, .L112+4
 962              	.LVL116:
 963 002a 4148     		ldr	r0, .L112+8
 964              	.LVL117:
 965 002c FFF7FEFF 		bl	printf
 966              	.LVL118:
 967 0030 EDE7     		b	.L93
 968              	.L106:
1465:Middlewares/Third_Party/LwIP/src/core/tcp_out.c ****   LWIP_ASSERT("tcp_output_segment: invalid netif", netif != NULL);
 969              		.loc 1 1465 0 discriminator 1
 970 0032 3D4B     		ldr	r3, .L112
 971 0034 40F2B952 		movw	r2, #1465
ARM GAS  /tmp/ccMjT2X9.s 			page 53


 972 0038 3E49     		ldr	r1, .L112+12
 973 003a 3D48     		ldr	r0, .L112+8
 974 003c FFF7FEFF 		bl	printf
 975              	.LVL119:
 976 0040 E6E7     		b	.L94
 977              	.L107:
1466:Middlewares/Third_Party/LwIP/src/core/tcp_out.c **** 
 978              		.loc 1 1466 0 discriminator 1
 979 0042 394B     		ldr	r3, .L112
 980 0044 40F2BA52 		movw	r2, #1466
 981 0048 3B49     		ldr	r1, .L112+16
 982 004a 3948     		ldr	r0, .L112+8
 983 004c FFF7FEFF 		bl	printf
 984              	.LVL120:
 985 0050 DFE7     		b	.L95
 986              	.L108:
1477:Middlewares/Third_Party/LwIP/src/core/tcp_out.c **** 
 987              		.loc 1 1477 0
 988 0052 E768     		ldr	r7, [r4, #12]
 989 0054 686A     		ldr	r0, [r5, #36]
 990 0056 FFF7FEFF 		bl	lwip_htonl
 991              	.LVL121:
 992 005a B860     		str	r0, [r7, #8]	@ unaligned
1488:Middlewares/Third_Party/LwIP/src/core/tcp_out.c ****   }
 993              		.loc 1 1488 0
 994 005c E768     		ldr	r7, [r4, #12]
 995 005e 688D     		ldrh	r0, [r5, #42]
 996 0060 FFF7FEFF 		bl	lwip_htons
 997              	.LVL122:
 998 0064 F881     		strh	r0, [r7, #14]	@ unaligned
1491:Middlewares/Third_Party/LwIP/src/core/tcp_out.c **** 
 999              		.loc 1 1491 0
 1000 0066 6B6A     		ldr	r3, [r5, #36]
 1001 0068 6A8D     		ldrh	r2, [r5, #42]
 1002 006a 1344     		add	r3, r3, r2
 1003 006c EB62     		str	r3, [r5, #44]
1496:Middlewares/Third_Party/LwIP/src/core/tcp_out.c ****   if (seg->flags & TF_SEG_OPTS_MSS) {
 1004              		.loc 1 1496 0
 1005 006e D4F80C80 		ldr	r8, [r4, #12]
 1006 0072 08F11407 		add	r7, r8, #20
 1007              	.LVL123:
1497:Middlewares/Third_Party/LwIP/src/core/tcp_out.c ****     u16_t mss;
 1008              		.loc 1 1497 0
 1009 0076 A37A     		ldrb	r3, [r4, #10]	@ zero_extendqisi2
 1010 0078 13F0010F 		tst	r3, #1
 1011 007c 36D1     		bne	.L109
 1012              	.L97:
1534:Middlewares/Third_Party/LwIP/src/core/tcp_out.c ****     pcb->rtime = 0;
 1013              		.loc 1 1534 0
 1014 007e B5F93030 		ldrsh	r3, [r5, #48]
 1015 0082 002B     		cmp	r3, #0
 1016 0084 41DB     		blt	.L110
 1017              	.L98:
1538:Middlewares/Third_Party/LwIP/src/core/tcp_out.c ****     pcb->rttest = tcp_ticks;
 1018              		.loc 1 1538 0
 1019 0086 6B6B     		ldr	r3, [r5, #52]
 1020 0088 002B     		cmp	r3, #0
ARM GAS  /tmp/ccMjT2X9.s 			page 54


 1021 008a 41D0     		beq	.L111
 1022              	.L99:
1548:Middlewares/Third_Party/LwIP/src/core/tcp_out.c ****   if (len == 0) {
 1023              		.loc 1 1548 0
 1024 008c E368     		ldr	r3, [r4, #12]
 1025 008e 6268     		ldr	r2, [r4, #4]
 1026 0090 5168     		ldr	r1, [r2, #4]
 1027 0092 5B1A     		subs	r3, r3, r1
 1028 0094 9BB2     		uxth	r3, r3
 1029              	.LVL124:
1554:Middlewares/Third_Party/LwIP/src/core/tcp_out.c ****   seg->p->tot_len -= len;
 1030              		.loc 1 1554 0
 1031 0096 5189     		ldrh	r1, [r2, #10]
 1032 0098 C91A     		subs	r1, r1, r3
 1033 009a 5181     		strh	r1, [r2, #10]	@ movhi
1555:Middlewares/Third_Party/LwIP/src/core/tcp_out.c **** 
 1034              		.loc 1 1555 0
 1035 009c 6168     		ldr	r1, [r4, #4]
 1036 009e 0A89     		ldrh	r2, [r1, #8]
 1037 00a0 D31A     		subs	r3, r2, r3
 1038              	.LVL125:
 1039 00a2 0B81     		strh	r3, [r1, #8]	@ movhi
1557:Middlewares/Third_Party/LwIP/src/core/tcp_out.c **** 
 1040              		.loc 1 1557 0
 1041 00a4 6368     		ldr	r3, [r4, #4]
 1042 00a6 E268     		ldr	r2, [r4, #12]
 1043 00a8 5A60     		str	r2, [r3, #4]
1559:Middlewares/Third_Party/LwIP/src/core/tcp_out.c **** 
 1044              		.loc 1 1559 0
 1045 00aa E368     		ldr	r3, [r4, #12]
 1046 00ac 0022     		movs	r2, #0
 1047 00ae 1A74     		strb	r2, [r3, #16]
 1048 00b0 5A74     		strb	r2, [r3, #17]
1564:Middlewares/Third_Party/LwIP/src/core/tcp_out.c **** 
 1049              		.loc 1 1564 0
 1050 00b2 E368     		ldr	r3, [r4, #12]
 1051 00b4 A27A     		ldrb	r2, [r4, #10]	@ zero_extendqisi2
 1052 00b6 12F0010F 		tst	r2, #1
 1053 00ba 32D0     		beq	.L103
 1054 00bc 0422     		movs	r2, #4
 1055              	.L100:
1564:Middlewares/Third_Party/LwIP/src/core/tcp_out.c **** 
 1056              		.loc 1 1564 0 is_stmt 0 discriminator 4
 1057 00be 1432     		adds	r2, r2, #20
 1058 00c0 1344     		add	r3, r3, r2
 1059 00c2 9F42     		cmp	r7, r3
 1060 00c4 06D0     		beq	.L101
1564:Middlewares/Third_Party/LwIP/src/core/tcp_out.c **** 
 1061              		.loc 1 1564 0 discriminator 5
 1062 00c6 184B     		ldr	r3, .L112
 1063 00c8 40F21C62 		movw	r2, #1564
 1064 00cc 1B49     		ldr	r1, .L112+20
 1065 00ce 1848     		ldr	r0, .L112+8
 1066 00d0 FFF7FEFF 		bl	printf
 1067              	.LVL126:
 1068              	.L101:
1607:Middlewares/Third_Party/LwIP/src/core/tcp_out.c ****                      pcb->tos, IP_PROTO_TCP, netif);
ARM GAS  /tmp/ccMjT2X9.s 			page 55


 1069              		.loc 1 1607 0 is_stmt 1
 1070 00d4 6068     		ldr	r0, [r4, #4]
 1071 00d6 EB7A     		ldrb	r3, [r5, #11]	@ zero_extendqisi2
 1072 00d8 AA7A     		ldrb	r2, [r5, #10]	@ zero_extendqisi2
 1073 00da 0296     		str	r6, [sp, #8]
 1074 00dc 0621     		movs	r1, #6
 1075 00de 0191     		str	r1, [sp, #4]
 1076 00e0 0092     		str	r2, [sp]
 1077 00e2 2A1D     		adds	r2, r5, #4
 1078 00e4 2946     		mov	r1, r5
 1079 00e6 FFF7FEFF 		bl	ip4_output_if
 1080              	.LVL127:
1620:Middlewares/Third_Party/LwIP/src/core/tcp_out.c **** }
 1081              		.loc 1 1620 0
 1082 00ea 97E7     		b	.L96
 1083              	.LVL128:
 1084              	.L109:
 1085              	.LBB2:
1500:Middlewares/Third_Party/LwIP/src/core/tcp_out.c **** #else /* TCP_CALCULATE_EFF_SEND_MSS */
 1086              		.loc 1 1500 0
 1087 00ec 2A1D     		adds	r2, r5, #4
 1088 00ee 3146     		mov	r1, r6
 1089 00f0 4FF40670 		mov	r0, #536
 1090 00f4 FFF7FEFF 		bl	tcp_eff_send_mss_netif
 1091              	.LVL129:
1504:Middlewares/Third_Party/LwIP/src/core/tcp_out.c ****     opts += 1;
 1092              		.loc 1 1504 0
 1093 00f8 40F00170 		orr	r0, r0, #33816576
 1094              	.LVL130:
 1095 00fc FFF7FEFF 		bl	lwip_htonl
 1096              	.LVL131:
 1097 0100 C8F81400 		str	r0, [r8, #20]
1505:Middlewares/Third_Party/LwIP/src/core/tcp_out.c ****   }
 1098              		.loc 1 1505 0
 1099 0104 08F11807 		add	r7, r8, #24
 1100              	.LVL132:
 1101 0108 B9E7     		b	.L97
 1102              	.L110:
 1103              	.LBE2:
1535:Middlewares/Third_Party/LwIP/src/core/tcp_out.c ****   }
 1104              		.loc 1 1535 0
 1105 010a 0023     		movs	r3, #0
 1106 010c 2B86     		strh	r3, [r5, #48]	@ movhi
 1107 010e BAE7     		b	.L98
 1108              	.L111:
1539:Middlewares/Third_Party/LwIP/src/core/tcp_out.c ****     pcb->rtseq = lwip_ntohl(seg->tcphdr->seqno);
 1109              		.loc 1 1539 0
 1110 0110 0B4B     		ldr	r3, .L112+24
 1111 0112 1B68     		ldr	r3, [r3]
 1112 0114 6B63     		str	r3, [r5, #52]
1540:Middlewares/Third_Party/LwIP/src/core/tcp_out.c **** 
 1113              		.loc 1 1540 0
 1114 0116 E368     		ldr	r3, [r4, #12]
 1115 0118 5868     		ldr	r0, [r3, #4]	@ unaligned
 1116 011a FFF7FEFF 		bl	lwip_htonl
 1117              	.LVL133:
 1118 011e A863     		str	r0, [r5, #56]
ARM GAS  /tmp/ccMjT2X9.s 			page 56


 1119 0120 B4E7     		b	.L99
 1120              	.L103:
1564:Middlewares/Third_Party/LwIP/src/core/tcp_out.c **** 
 1121              		.loc 1 1564 0
 1122 0122 0022     		movs	r2, #0
 1123 0124 CBE7     		b	.L100
 1124              	.L113:
 1125 0126 00BF     		.align	2
 1126              	.L112:
 1127 0128 00000000 		.word	.LC0
 1128 012c 00000000 		.word	.LC16
 1129 0130 50000000 		.word	.LC2
 1130 0134 20000000 		.word	.LC17
 1131 0138 40000000 		.word	.LC18
 1132 013c 28000000 		.word	.LC7
 1133 0140 00000000 		.word	tcp_ticks
 1134              		.cfi_endproc
 1135              	.LFE168:
 1137              		.section	.text.tcp_output_control_segment,"ax",%progbits
 1138              		.align	1
 1139              		.syntax unified
 1140              		.thumb
 1141              		.thumb_func
 1142              		.fpu fpv5-d16
 1144              	tcp_output_control_segment:
 1145              	.LFB177:
1910:Middlewares/Third_Party/LwIP/src/core/tcp_out.c ****   LWIP_UNUSED_ARG(optflags); /* for LWIP_NOASSERT */
1911:Middlewares/Third_Party/LwIP/src/core/tcp_out.c ****   LWIP_UNUSED_ARG(opts); /* for LWIP_NOASSERT */
1912:Middlewares/Third_Party/LwIP/src/core/tcp_out.c **** }
1913:Middlewares/Third_Party/LwIP/src/core/tcp_out.c **** 
1914:Middlewares/Third_Party/LwIP/src/core/tcp_out.c **** /** Output a control segment pbuf to IP.
1915:Middlewares/Third_Party/LwIP/src/core/tcp_out.c ****  *
1916:Middlewares/Third_Party/LwIP/src/core/tcp_out.c ****  * Called from tcp_rst, tcp_send_empty_ack, tcp_keepalive and tcp_zero_window_probe,
1917:Middlewares/Third_Party/LwIP/src/core/tcp_out.c ****  * this function combines selecting a netif for transmission, generating the tcp
1918:Middlewares/Third_Party/LwIP/src/core/tcp_out.c ****  * header checksum and calling ip_output_if while handling netif hints and stats.
1919:Middlewares/Third_Party/LwIP/src/core/tcp_out.c ****  */
1920:Middlewares/Third_Party/LwIP/src/core/tcp_out.c **** static err_t
1921:Middlewares/Third_Party/LwIP/src/core/tcp_out.c **** tcp_output_control_segment(const struct tcp_pcb *pcb, struct pbuf *p,
1922:Middlewares/Third_Party/LwIP/src/core/tcp_out.c ****                            const ip_addr_t *src, const ip_addr_t *dst)
1923:Middlewares/Third_Party/LwIP/src/core/tcp_out.c **** {
 1146              		.loc 1 1923 0
 1147              		.cfi_startproc
 1148              		@ args = 0, pretend = 0, frame = 0
 1149              		@ frame_needed = 0, uses_anonymous_args = 0
 1150              	.LVL134:
 1151 0000 F0B5     		push	{r4, r5, r6, r7, lr}
 1152              	.LCFI15:
 1153              		.cfi_def_cfa_offset 20
 1154              		.cfi_offset 4, -20
 1155              		.cfi_offset 5, -16
 1156              		.cfi_offset 6, -12
 1157              		.cfi_offset 7, -8
 1158              		.cfi_offset 14, -4
 1159 0002 85B0     		sub	sp, sp, #20
 1160              	.LCFI16:
 1161              		.cfi_def_cfa_offset 40
 1162 0004 0446     		mov	r4, r0
ARM GAS  /tmp/ccMjT2X9.s 			page 57


 1163 0006 1646     		mov	r6, r2
 1164 0008 1F46     		mov	r7, r3
1924:Middlewares/Third_Party/LwIP/src/core/tcp_out.c ****   err_t err;
1925:Middlewares/Third_Party/LwIP/src/core/tcp_out.c ****   struct netif *netif;
1926:Middlewares/Third_Party/LwIP/src/core/tcp_out.c **** 
1927:Middlewares/Third_Party/LwIP/src/core/tcp_out.c ****   LWIP_ASSERT("tcp_output_control_segment: invalid pbuf", p != NULL);
 1165              		.loc 1 1927 0
 1166 000a 0D46     		mov	r5, r1
 1167 000c C9B1     		cbz	r1, .L121
 1168              	.LVL135:
 1169              	.L115:
1928:Middlewares/Third_Party/LwIP/src/core/tcp_out.c **** 
1929:Middlewares/Third_Party/LwIP/src/core/tcp_out.c ****   netif = tcp_route(pcb, src, dst);
 1170              		.loc 1 1929 0
 1171 000e 3A46     		mov	r2, r7
 1172 0010 3146     		mov	r1, r6
 1173 0012 2046     		mov	r0, r4
 1174 0014 FFF7FEFF 		bl	tcp_route
 1175              	.LVL136:
1930:Middlewares/Third_Party/LwIP/src/core/tcp_out.c ****   if (netif == NULL) {
 1176              		.loc 1 1930 0
 1177 0018 0246     		mov	r2, r0
 1178 001a E8B1     		cbz	r0, .L118
 1179              	.LBB3:
1931:Middlewares/Third_Party/LwIP/src/core/tcp_out.c ****     err = ERR_RTE;
1932:Middlewares/Third_Party/LwIP/src/core/tcp_out.c ****   } else {
1933:Middlewares/Third_Party/LwIP/src/core/tcp_out.c ****     u8_t ttl, tos;
1934:Middlewares/Third_Party/LwIP/src/core/tcp_out.c **** #if CHECKSUM_GEN_TCP
1935:Middlewares/Third_Party/LwIP/src/core/tcp_out.c ****     IF__NETIF_CHECKSUM_ENABLED(netif, NETIF_CHECKSUM_GEN_TCP) {
1936:Middlewares/Third_Party/LwIP/src/core/tcp_out.c ****       struct tcp_hdr *tcphdr = (struct tcp_hdr *)p->payload;
1937:Middlewares/Third_Party/LwIP/src/core/tcp_out.c ****       tcphdr->chksum = ip_chksum_pseudo(p, IP_PROTO_TCP, p->tot_len,
1938:Middlewares/Third_Party/LwIP/src/core/tcp_out.c ****                                         src, dst);
1939:Middlewares/Third_Party/LwIP/src/core/tcp_out.c ****     }
1940:Middlewares/Third_Party/LwIP/src/core/tcp_out.c **** #endif
1941:Middlewares/Third_Party/LwIP/src/core/tcp_out.c ****     if (pcb != NULL) {
 1180              		.loc 1 1941 0
 1181 001c CCB1     		cbz	r4, .L119
1942:Middlewares/Third_Party/LwIP/src/core/tcp_out.c ****       NETIF_SET_HINTS(netif, LWIP_CONST_CAST(struct netif_hint*, &(pcb->netif_hints)));
1943:Middlewares/Third_Party/LwIP/src/core/tcp_out.c ****       ttl = pcb->ttl;
 1182              		.loc 1 1943 0
 1183 001e E37A     		ldrb	r3, [r4, #11]	@ zero_extendqisi2
 1184              	.LVL137:
1944:Middlewares/Third_Party/LwIP/src/core/tcp_out.c ****       tos = pcb->tos;
 1185              		.loc 1 1944 0
 1186 0020 A17A     		ldrb	r1, [r4, #10]	@ zero_extendqisi2
 1187              	.LVL138:
 1188              	.L117:
1945:Middlewares/Third_Party/LwIP/src/core/tcp_out.c ****     } else {
1946:Middlewares/Third_Party/LwIP/src/core/tcp_out.c ****       /* Send output with hardcoded TTL/HL since we have no access to the pcb */
1947:Middlewares/Third_Party/LwIP/src/core/tcp_out.c ****       ttl = TCP_TTL;
1948:Middlewares/Third_Party/LwIP/src/core/tcp_out.c ****       tos = 0;
1949:Middlewares/Third_Party/LwIP/src/core/tcp_out.c ****     }
1950:Middlewares/Third_Party/LwIP/src/core/tcp_out.c ****     TCP_STATS_INC(tcp.xmit);
1951:Middlewares/Third_Party/LwIP/src/core/tcp_out.c ****     err = ip_output_if(p, src, dst, ttl, tos, IP_PROTO_TCP, netif);
 1189              		.loc 1 1951 0
 1190 0022 0292     		str	r2, [sp, #8]
 1191 0024 0622     		movs	r2, #6
ARM GAS  /tmp/ccMjT2X9.s 			page 58


 1192 0026 0192     		str	r2, [sp, #4]
 1193 0028 0091     		str	r1, [sp]
 1194 002a 3A46     		mov	r2, r7
 1195 002c 3146     		mov	r1, r6
 1196              	.LVL139:
 1197 002e 2846     		mov	r0, r5
 1198              	.LVL140:
 1199 0030 FFF7FEFF 		bl	ip4_output_if
 1200              	.LVL141:
 1201 0034 0446     		mov	r4, r0
 1202              	.LVL142:
 1203              	.L116:
 1204              	.LBE3:
1952:Middlewares/Third_Party/LwIP/src/core/tcp_out.c ****     NETIF_RESET_HINTS(netif);
1953:Middlewares/Third_Party/LwIP/src/core/tcp_out.c ****   }
1954:Middlewares/Third_Party/LwIP/src/core/tcp_out.c ****   pbuf_free(p);
 1205              		.loc 1 1954 0
 1206 0036 2846     		mov	r0, r5
 1207 0038 FFF7FEFF 		bl	pbuf_free
 1208              	.LVL143:
1955:Middlewares/Third_Party/LwIP/src/core/tcp_out.c ****   return err;
1956:Middlewares/Third_Party/LwIP/src/core/tcp_out.c **** }
 1209              		.loc 1 1956 0
 1210 003c 2046     		mov	r0, r4
 1211 003e 05B0     		add	sp, sp, #20
 1212              	.LCFI17:
 1213              		.cfi_remember_state
 1214              		.cfi_def_cfa_offset 20
 1215              		@ sp needed
 1216 0040 F0BD     		pop	{r4, r5, r6, r7, pc}
 1217              	.LVL144:
 1218              	.L121:
 1219              	.LCFI18:
 1220              		.cfi_restore_state
1927:Middlewares/Third_Party/LwIP/src/core/tcp_out.c **** 
 1221              		.loc 1 1927 0 discriminator 1
 1222 0042 074B     		ldr	r3, .L122
 1223              	.LVL145:
 1224 0044 40F28772 		movw	r2, #1927
 1225              	.LVL146:
 1226 0048 0649     		ldr	r1, .L122+4
 1227              	.LVL147:
 1228 004a 0748     		ldr	r0, .L122+8
 1229              	.LVL148:
 1230 004c FFF7FEFF 		bl	printf
 1231              	.LVL149:
 1232 0050 DDE7     		b	.L115
 1233              	.LVL150:
 1234              	.L119:
 1235              	.LBB4:
1948:Middlewares/Third_Party/LwIP/src/core/tcp_out.c ****     }
 1236              		.loc 1 1948 0
 1237 0052 0021     		movs	r1, #0
1947:Middlewares/Third_Party/LwIP/src/core/tcp_out.c ****       tos = 0;
 1238              		.loc 1 1947 0
 1239 0054 FF23     		movs	r3, #255
 1240 0056 E4E7     		b	.L117
ARM GAS  /tmp/ccMjT2X9.s 			page 59


 1241              	.L118:
 1242              	.LBE4:
1931:Middlewares/Third_Party/LwIP/src/core/tcp_out.c ****   } else {
 1243              		.loc 1 1931 0
 1244 0058 6FF00304 		mvn	r4, #3
 1245              	.LVL151:
 1246 005c EBE7     		b	.L116
 1247              	.L123:
 1248 005e 00BF     		.align	2
 1249              	.L122:
 1250 0060 00000000 		.word	.LC0
 1251 0064 00000000 		.word	.LC19
 1252 0068 50000000 		.word	.LC2
 1253              		.cfi_endproc
 1254              	.LFE177:
 1256              		.section	.text.tcp_write,"ax",%progbits
 1257              		.align	1
 1258              		.global	tcp_write
 1259              		.syntax unified
 1260              		.thumb
 1261              		.thumb_func
 1262              		.fpu fpv5-d16
 1264              	tcp_write:
 1265              	.LFB162:
 391:Middlewares/Third_Party/LwIP/src/core/tcp_out.c ****   struct pbuf *concat_p = NULL;
 1266              		.loc 1 391 0
 1267              		.cfi_startproc
 1268              		@ args = 0, pretend = 0, frame = 48
 1269              		@ frame_needed = 0, uses_anonymous_args = 0
 1270              	.LVL152:
 1271 0000 2DE9F04F 		push	{r4, r5, r6, r7, r8, r9, r10, fp, lr}
 1272              	.LCFI19:
 1273              		.cfi_def_cfa_offset 36
 1274              		.cfi_offset 4, -36
 1275              		.cfi_offset 5, -32
 1276              		.cfi_offset 6, -28
 1277              		.cfi_offset 7, -24
 1278              		.cfi_offset 8, -20
 1279              		.cfi_offset 9, -16
 1280              		.cfi_offset 10, -12
 1281              		.cfi_offset 11, -8
 1282              		.cfi_offset 14, -4
 1283 0004 91B0     		sub	sp, sp, #68
 1284              	.LCFI20:
 1285              		.cfi_def_cfa_offset 104
 1286 0006 0891     		str	r1, [sp, #32]
 1287 0008 0693     		str	r3, [sp, #24]
 1288              	.LVL153:
 399:Middlewares/Third_Party/LwIP/src/core/tcp_out.c ****   u16_t oversize_used = 0;
 1289              		.loc 1 399 0
 1290 000a 0023     		movs	r3, #0
 1291              	.LVL154:
 1292 000c ADF83E30 		strh	r3, [sp, #62]	@ movhi
 1293              	.LVL155:
 414:Middlewares/Third_Party/LwIP/src/core/tcp_out.c **** 
 1294              		.loc 1 414 0
 1295 0010 38B3     		cbz	r0, .L187
ARM GAS  /tmp/ccMjT2X9.s 			page 60


 1296 0012 9246     		mov	r10, r2
 1297 0014 8146     		mov	r9, r0
 417:Middlewares/Third_Party/LwIP/src/core/tcp_out.c ****   mss_local = mss_local ? mss_local : pcb->mss;
 1298              		.loc 1 417 0
 1299 0016 B0F86230 		ldrh	r3, [r0, #98]
 1300 001a 428E     		ldrh	r2, [r0, #50]
 1301              	.LVL156:
 1302 001c 0592     		str	r2, [sp, #20]
 1303 001e 5B08     		lsrs	r3, r3, #1
 1304 0020 9342     		cmp	r3, r2
 1305 0022 28BF     		it	cs
 1306 0024 1346     		movcs	r3, r2
 1307              	.LVL157:
 418:Middlewares/Third_Party/LwIP/src/core/tcp_out.c **** 
 1308              		.loc 1 418 0
 1309 0026 03B1     		cbz	r3, .L127
 1310 0028 0593     		str	r3, [sp, #20]
 1311              	.L127:
 1312              	.LVL158:
 429:Middlewares/Third_Party/LwIP/src/core/tcp_out.c ****              arg != NULL, return ERR_ARG;);
 1313              		.loc 1 429 0 discriminator 4
 1314 002a 089B     		ldr	r3, [sp, #32]
 1315 002c 23B3     		cbz	r3, .L188
 432:Middlewares/Third_Party/LwIP/src/core/tcp_out.c ****   if (err != ERR_OK) {
 1316              		.loc 1 432 0
 1317 002e 5146     		mov	r1, r10
 1318              	.LVL159:
 1319 0030 4846     		mov	r0, r9
 1320              	.LVL160:
 1321 0032 FFF7FEFF 		bl	tcp_write_checks
 1322              	.LVL161:
 433:Middlewares/Third_Party/LwIP/src/core/tcp_out.c ****     return err;
 1323              		.loc 1 433 0
 1324 0036 0A90     		str	r0, [sp, #40]
 1325 0038 0028     		cmp	r0, #0
 1326 003a 40F0BB81 		bne	.L126
 436:Middlewares/Third_Party/LwIP/src/core/tcp_out.c **** 
 1327              		.loc 1 436 0
 1328 003e B9F86660 		ldrh	r6, [r9, #102]
 1329              	.LVL162:
 476:Middlewares/Third_Party/LwIP/src/core/tcp_out.c ****     u16_t space;
 1330              		.loc 1 476 0
 1331 0042 D9F86CB0 		ldr	fp, [r9, #108]
 1332 0046 BBF1000F 		cmp	fp, #0
 1333 004a 21D1     		bne	.L130
 586:Middlewares/Third_Party/LwIP/src/core/tcp_out.c ****                 pcb->unsent_oversize == 0);
 1334              		.loc 1 586 0
 1335 004c B9F86840 		ldrh	r4, [r9, #104]
 1336 0050 002C     		cmp	r4, #0
 1337 0052 40F0E380 		bne	.L189
 405:Middlewares/Third_Party/LwIP/src/core/tcp_out.c **** #if TCP_CHECKSUM_ON_COPY
 1338              		.loc 1 405 0
 1339 0056 0C94     		str	r4, [sp, #48]
 400:Middlewares/Third_Party/LwIP/src/core/tcp_out.c **** #if TCP_OVERSIZE_DBGCHECK
 1340              		.loc 1 400 0
 1341 0058 0994     		str	r4, [sp, #36]
 393:Middlewares/Third_Party/LwIP/src/core/tcp_out.c ****   u16_t pos = 0; /* position in 'arg' data */
ARM GAS  /tmp/ccMjT2X9.s 			page 61


 1342              		.loc 1 393 0
 1343 005a D846     		mov	r8, fp
 392:Middlewares/Third_Party/LwIP/src/core/tcp_out.c ****   struct tcp_seg *last_unsent = NULL, *seg = NULL, *prev_seg = NULL, *queue = NULL;
 1344              		.loc 1 392 0
 1345 005c 0023     		movs	r3, #0
 1346 005e 0B93     		str	r3, [sp, #44]
 1347 0060 EEE0     		b	.L138
 1348              	.LVL163:
 1349              	.L187:
 414:Middlewares/Third_Party/LwIP/src/core/tcp_out.c **** 
 1350              		.loc 1 414 0 discriminator 1
 1351 0062 B54B     		ldr	r3, .L207
 1352 0064 4FF4CF72 		mov	r2, #414
 1353              	.LVL164:
 1354 0068 B449     		ldr	r1, .L207+4
 1355              	.LVL165:
 1356 006a B548     		ldr	r0, .L207+8
 1357              	.LVL166:
 1358 006c FFF7FEFF 		bl	printf
 1359              	.LVL167:
 1360 0070 6FF00F03 		mvn	r3, #15
 1361 0074 0A93     		str	r3, [sp, #40]
 1362 0076 9DE1     		b	.L126
 1363              	.LVL168:
 1364              	.L188:
 429:Middlewares/Third_Party/LwIP/src/core/tcp_out.c ****              arg != NULL, return ERR_ARG;);
 1365              		.loc 1 429 0 discriminator 1
 1366 0078 AF4B     		ldr	r3, .L207
 1367 007a 4FF4D772 		mov	r2, #430
 1368 007e B149     		ldr	r1, .L207+12
 1369              	.LVL169:
 1370 0080 AF48     		ldr	r0, .L207+8
 1371              	.LVL170:
 1372 0082 FFF7FEFF 		bl	printf
 1373              	.LVL171:
 1374 0086 6FF00F03 		mvn	r3, #15
 1375 008a 0A93     		str	r3, [sp, #40]
 1376 008c 92E1     		b	.L126
 1377              	.LVL172:
 1378              	.L170:
 1379              	.LBB5:
 482:Middlewares/Third_Party/LwIP/src/core/tcp_out.c **** 
 1380              		.loc 1 482 0
 1381 008e BB46     		mov	fp, r7
 1382              	.LVL173:
 1383              	.L130:
 481:Middlewares/Third_Party/LwIP/src/core/tcp_out.c ****          last_unsent = last_unsent->next);
 1384              		.loc 1 481 0 discriminator 1
 1385 0090 DBF80070 		ldr	r7, [fp]
 1386 0094 002F     		cmp	r7, #0
 1387 0096 FAD1     		bne	.L170
 485:Middlewares/Third_Party/LwIP/src/core/tcp_out.c ****     LWIP_ASSERT("mss_local is too small", mss_local >= last_unsent->len + unsent_optlen);
 1388              		.loc 1 485 0
 1389 0098 9BF80A30 		ldrb	r3, [fp, #10]	@ zero_extendqisi2
 1390 009c 13F0010F 		tst	r3, #1
 1391 00a0 46D0     		beq	.L171
 1392 00a2 0424     		movs	r4, #4
ARM GAS  /tmp/ccMjT2X9.s 			page 62


 1393              	.L131:
 1394              	.LVL174:
 486:Middlewares/Third_Party/LwIP/src/core/tcp_out.c ****     space = mss_local - (last_unsent->len + unsent_optlen);
 1395              		.loc 1 486 0 discriminator 4
 1396 00a4 BBF80830 		ldrh	r3, [fp, #8]
 1397 00a8 2344     		add	r3, r3, r4
 1398 00aa 059A     		ldr	r2, [sp, #20]
 1399 00ac 9A42     		cmp	r2, r3
 1400 00ae 41DB     		blt	.L190
 1401              	.LVL175:
 1402              	.L132:
 487:Middlewares/Third_Party/LwIP/src/core/tcp_out.c **** 
 1403              		.loc 1 487 0
 1404 00b0 BBF80830 		ldrh	r3, [fp, #8]
 1405 00b4 1C44     		add	r4, r4, r3
 1406              	.LVL176:
 1407 00b6 A4B2     		uxth	r4, r4
 1408 00b8 059B     		ldr	r3, [sp, #20]
 1409 00ba 1C1B     		subs	r4, r3, r4
 1410 00bc A4B2     		uxth	r4, r4
 1411              	.LVL177:
 502:Middlewares/Third_Party/LwIP/src/core/tcp_out.c ****     if (oversize > 0) {
 1412              		.loc 1 502 0
 1413 00be B9F86830 		ldrh	r3, [r9, #104]
 1414 00c2 0993     		str	r3, [sp, #36]
 1415 00c4 ADF83E30 		strh	r3, [sp, #62]	@ movhi
 503:Middlewares/Third_Party/LwIP/src/core/tcp_out.c ****       LWIP_ASSERT("inconsistent oversize vs. space", oversize <= space);
 1416              		.loc 1 503 0
 1417 00c8 002B     		cmp	r3, #0
 1418 00ca 45D0     		beq	.L172
 504:Middlewares/Third_Party/LwIP/src/core/tcp_out.c ****       seg = last_unsent;
 1419              		.loc 1 504 0
 1420 00cc 9C42     		cmp	r4, r3
 1421 00ce 39D3     		bcc	.L191
 1422              	.L134:
 1423              	.LVL178:
 506:Middlewares/Third_Party/LwIP/src/core/tcp_out.c ****       pos += oversize_used;
 1424              		.loc 1 506 0
 1425 00d0 BDF83E30 		ldrh	r3, [sp, #62]
 1426 00d4 9A45     		cmp	r10, r3
 1427 00d6 3DD9     		bls	.L135
 506:Middlewares/Third_Party/LwIP/src/core/tcp_out.c ****       pos += oversize_used;
 1428              		.loc 1 506 0 is_stmt 0 discriminator 1
 1429 00d8 1A46     		mov	r2, r3
 1430              	.L136:
 506:Middlewares/Third_Party/LwIP/src/core/tcp_out.c ****       pos += oversize_used;
 1431              		.loc 1 506 0 discriminator 4
 1432 00da A242     		cmp	r2, r4
 1433 00dc A8BF     		it	ge
 1434 00de 2246     		movge	r2, r4
 1435 00e0 0992     		str	r2, [sp, #36]
 1436              	.LVL179:
 508:Middlewares/Third_Party/LwIP/src/core/tcp_out.c ****       space -= oversize_used;
 1437              		.loc 1 508 0 is_stmt 1 discriminator 4
 1438 00e2 9B1A     		subs	r3, r3, r2
 1439 00e4 ADF83E30 		strh	r3, [sp, #62]	@ movhi
 509:Middlewares/Third_Party/LwIP/src/core/tcp_out.c ****     }
ARM GAS  /tmp/ccMjT2X9.s 			page 63


 1440              		.loc 1 509 0 discriminator 4
 1441 00e8 A41A     		subs	r4, r4, r2
 1442              	.LVL180:
 1443 00ea A4B2     		uxth	r4, r4
 1444              	.LVL181:
 505:Middlewares/Third_Party/LwIP/src/core/tcp_out.c ****       oversize_used = LWIP_MIN(space, LWIP_MIN(oversize, len));
 1445              		.loc 1 505 0 discriminator 4
 1446 00ec D846     		mov	r8, fp
 1447              	.LVL182:
 1448              	.L133:
 512:Middlewares/Third_Party/LwIP/src/core/tcp_out.c **** #endif /* TCP_OVERSIZE */
 1449              		.loc 1 512 0
 1450 00ee BDF83E30 		ldrh	r3, [sp, #62]
 1451 00f2 099A     		ldr	r2, [sp, #36]
 1452 00f4 002B     		cmp	r3, #0
 1453 00f6 18BF     		it	ne
 1454 00f8 5245     		cmpne	r2, r10
 1455 00fa 2FD1     		bne	.L192
 1456              	.L137:
 531:Middlewares/Third_Party/LwIP/src/core/tcp_out.c ****       u16_t seglen = LWIP_MIN(space, len - pos);
 1457              		.loc 1 531 0
 1458 00fc 099A     		ldr	r2, [sp, #36]
 1459 00fe 002C     		cmp	r4, #0
 1460 0100 18BF     		it	ne
 1461 0102 5245     		cmpne	r2, r10
 1462 0104 80F09880 		bcs	.L173
 531:Middlewares/Third_Party/LwIP/src/core/tcp_out.c ****       u16_t seglen = LWIP_MIN(space, len - pos);
 1463              		.loc 1 531 0 is_stmt 0 discriminator 1
 1464 0108 BBF80830 		ldrh	r3, [fp, #8]
 1465 010c 0C93     		str	r3, [sp, #48]
 1466 010e 002B     		cmp	r3, #0
 1467 0110 00F09B80 		beq	.L174
 1468              	.LBB6:
 532:Middlewares/Third_Party/LwIP/src/core/tcp_out.c ****       seg = last_unsent;
 1469              		.loc 1 532 0 is_stmt 1
 1470 0114 AAEB0205 		sub	r5, r10, r2
 1471 0118 A542     		cmp	r5, r4
 1472 011a A8BF     		it	ge
 1473 011c 2546     		movge	r5, r4
 1474 011e 1FFA85F8 		uxth	r8, r5
 1475              	.LVL183:
 538:Middlewares/Third_Party/LwIP/src/core/tcp_out.c ****         /* Data is copied */
 1476              		.loc 1 538 0
 1477 0122 069B     		ldr	r3, [sp, #24]
 1478 0124 13F0010F 		tst	r3, #1
 1479 0128 20D1     		bne	.L193
 1480              	.LBB7:
 558:Middlewares/Third_Party/LwIP/src/core/tcp_out.c ****         if (((p->type_internal & (PBUF_TYPE_FLAG_STRUCT_DATA_CONTIGUOUS | PBUF_TYPE_FLAG_DATA_VOLAT
 1481              		.loc 1 558 0
 1482 012a DBF80430 		ldr	r3, [fp, #4]
 1483              	.LVL184:
 1484 012e 3FE0     		b	.L142
 1485              	.LVL185:
 1486              	.L171:
 1487              	.LBE7:
 1488              	.LBE6:
