ARM GAS  /tmp/ccfwlTnO.s 			page 1


   1              		.cpu cortex-m7
   2              		.eabi_attribute 28, 1
   3              		.eabi_attribute 20, 1
   4              		.eabi_attribute 21, 1
   5              		.eabi_attribute 23, 3
   6              		.eabi_attribute 24, 1
   7              		.eabi_attribute 25, 1
   8              		.eabi_attribute 26, 1
   9              		.eabi_attribute 30, 1
  10              		.eabi_attribute 34, 1
  11              		.eabi_attribute 18, 4
  12              		.file	"udp.c"
  13              		.text
  14              	.Ltext0:
  15              		.cfi_sections	.debug_frame
  16              		.section	.text.udp_new_port,"ax",%progbits
  17              		.align	1
  18              		.syntax unified
  19              		.thumb
  20              		.thumb_func
  21              		.fpu fpv5-d16
  23              	udp_new_port:
  24              	.LFB159:
  25              		.file 1 "Middlewares/Third_Party/LwIP/src/core/udp.c"
   1:Middlewares/Third_Party/LwIP/src/core/udp.c **** /**
   2:Middlewares/Third_Party/LwIP/src/core/udp.c ****  * @file
   3:Middlewares/Third_Party/LwIP/src/core/udp.c ****  * User Datagram Protocol module\n
   4:Middlewares/Third_Party/LwIP/src/core/udp.c ****  * The code for the User Datagram Protocol UDP & UDPLite (RFC 3828).\n
   5:Middlewares/Third_Party/LwIP/src/core/udp.c ****  * See also @ref udp_raw
   6:Middlewares/Third_Party/LwIP/src/core/udp.c ****  *
   7:Middlewares/Third_Party/LwIP/src/core/udp.c ****  * @defgroup udp_raw UDP
   8:Middlewares/Third_Party/LwIP/src/core/udp.c ****  * @ingroup callbackstyle_api
   9:Middlewares/Third_Party/LwIP/src/core/udp.c ****  * User Datagram Protocol module\n
  10:Middlewares/Third_Party/LwIP/src/core/udp.c ****  * @see @ref api
  11:Middlewares/Third_Party/LwIP/src/core/udp.c ****  */
  12:Middlewares/Third_Party/LwIP/src/core/udp.c **** 
  13:Middlewares/Third_Party/LwIP/src/core/udp.c **** /*
  14:Middlewares/Third_Party/LwIP/src/core/udp.c ****  * Copyright (c) 2001-2004 Swedish Institute of Computer Science.
  15:Middlewares/Third_Party/LwIP/src/core/udp.c ****  * All rights reserved.
  16:Middlewares/Third_Party/LwIP/src/core/udp.c ****  *
  17:Middlewares/Third_Party/LwIP/src/core/udp.c ****  * Redistribution and use in source and binary forms, with or without modification,
  18:Middlewares/Third_Party/LwIP/src/core/udp.c ****  * are permitted provided that the following conditions are met:
  19:Middlewares/Third_Party/LwIP/src/core/udp.c ****  *
  20:Middlewares/Third_Party/LwIP/src/core/udp.c ****  * 1. Redistributions of source code must retain the above copyright notice,
  21:Middlewares/Third_Party/LwIP/src/core/udp.c ****  *    this list of conditions and the following disclaimer.
  22:Middlewares/Third_Party/LwIP/src/core/udp.c ****  * 2. Redistributions in binary form must reproduce the above copyright notice,
  23:Middlewares/Third_Party/LwIP/src/core/udp.c ****  *    this list of conditions and the following disclaimer in the documentation
  24:Middlewares/Third_Party/LwIP/src/core/udp.c ****  *    and/or other materials provided with the distribution.
  25:Middlewares/Third_Party/LwIP/src/core/udp.c ****  * 3. The name of the author may not be used to endorse or promote products
  26:Middlewares/Third_Party/LwIP/src/core/udp.c ****  *    derived from this software without specific prior written permission.
  27:Middlewares/Third_Party/LwIP/src/core/udp.c ****  *
  28:Middlewares/Third_Party/LwIP/src/core/udp.c ****  * THIS SOFTWARE IS PROVIDED BY THE AUTHOR ``AS IS'' AND ANY EXPRESS OR IMPLIED
  29:Middlewares/Third_Party/LwIP/src/core/udp.c ****  * WARRANTIES, INCLUDING, BUT NOT LIMITED TO, THE IMPLIED WARRANTIES OF
  30:Middlewares/Third_Party/LwIP/src/core/udp.c ****  * MERCHANTABILITY AND FITNESS FOR A PARTICULAR PURPOSE ARE DISCLAIMED. IN NO EVENT
  31:Middlewares/Third_Party/LwIP/src/core/udp.c ****  * SHALL THE AUTHOR BE LIABLE FOR ANY DIRECT, INDIRECT, INCIDENTAL, SPECIAL,
  32:Middlewares/Third_Party/LwIP/src/core/udp.c ****  * EXEMPLARY, OR CONSEQUENTIAL DAMAGES (INCLUDING, BUT NOT LIMITED TO, PROCUREMENT
  33:Middlewares/Third_Party/LwIP/src/core/udp.c ****  * OF SUBSTITUTE GOODS OR SERVICES; LOSS OF USE, DATA, OR PROFITS; OR BUSINESS
ARM GAS  /tmp/ccfwlTnO.s 			page 2


  34:Middlewares/Third_Party/LwIP/src/core/udp.c ****  * INTERRUPTION) HOWEVER CAUSED AND ON ANY THEORY OF LIABILITY, WHETHER IN
  35:Middlewares/Third_Party/LwIP/src/core/udp.c ****  * CONTRACT, STRICT LIABILITY, OR TORT (INCLUDING NEGLIGENCE OR OTHERWISE) ARISING
  36:Middlewares/Third_Party/LwIP/src/core/udp.c ****  * IN ANY WAY OUT OF THE USE OF THIS SOFTWARE, EVEN IF ADVISED OF THE POSSIBILITY
  37:Middlewares/Third_Party/LwIP/src/core/udp.c ****  * OF SUCH DAMAGE.
  38:Middlewares/Third_Party/LwIP/src/core/udp.c ****  *
  39:Middlewares/Third_Party/LwIP/src/core/udp.c ****  * This file is part of the lwIP TCP/IP stack.
  40:Middlewares/Third_Party/LwIP/src/core/udp.c ****  *
  41:Middlewares/Third_Party/LwIP/src/core/udp.c ****  * Author: Adam Dunkels <adam@sics.se>
  42:Middlewares/Third_Party/LwIP/src/core/udp.c ****  *
  43:Middlewares/Third_Party/LwIP/src/core/udp.c ****  */
  44:Middlewares/Third_Party/LwIP/src/core/udp.c **** 
  45:Middlewares/Third_Party/LwIP/src/core/udp.c **** /* @todo Check the use of '(struct udp_pcb).chksum_len_rx'!
  46:Middlewares/Third_Party/LwIP/src/core/udp.c ****  */
  47:Middlewares/Third_Party/LwIP/src/core/udp.c **** 
  48:Middlewares/Third_Party/LwIP/src/core/udp.c **** #include "lwip/opt.h"
  49:Middlewares/Third_Party/LwIP/src/core/udp.c **** 
  50:Middlewares/Third_Party/LwIP/src/core/udp.c **** #if LWIP_UDP /* don't build if not configured for use in lwipopts.h */
  51:Middlewares/Third_Party/LwIP/src/core/udp.c **** 
  52:Middlewares/Third_Party/LwIP/src/core/udp.c **** #include "lwip/udp.h"
  53:Middlewares/Third_Party/LwIP/src/core/udp.c **** #include "lwip/def.h"
  54:Middlewares/Third_Party/LwIP/src/core/udp.c **** #include "lwip/memp.h"
  55:Middlewares/Third_Party/LwIP/src/core/udp.c **** #include "lwip/inet_chksum.h"
  56:Middlewares/Third_Party/LwIP/src/core/udp.c **** #include "lwip/ip_addr.h"
  57:Middlewares/Third_Party/LwIP/src/core/udp.c **** #include "lwip/ip6.h"
  58:Middlewares/Third_Party/LwIP/src/core/udp.c **** #include "lwip/ip6_addr.h"
  59:Middlewares/Third_Party/LwIP/src/core/udp.c **** #include "lwip/netif.h"
  60:Middlewares/Third_Party/LwIP/src/core/udp.c **** #include "lwip/icmp.h"
  61:Middlewares/Third_Party/LwIP/src/core/udp.c **** #include "lwip/icmp6.h"
  62:Middlewares/Third_Party/LwIP/src/core/udp.c **** #include "lwip/stats.h"
  63:Middlewares/Third_Party/LwIP/src/core/udp.c **** #include "lwip/snmp.h"
  64:Middlewares/Third_Party/LwIP/src/core/udp.c **** #include "lwip/dhcp.h"
  65:Middlewares/Third_Party/LwIP/src/core/udp.c **** 
  66:Middlewares/Third_Party/LwIP/src/core/udp.c **** #include <string.h>
  67:Middlewares/Third_Party/LwIP/src/core/udp.c **** 
  68:Middlewares/Third_Party/LwIP/src/core/udp.c **** #ifndef UDP_LOCAL_PORT_RANGE_START
  69:Middlewares/Third_Party/LwIP/src/core/udp.c **** /* From http://www.iana.org/assignments/port-numbers:
  70:Middlewares/Third_Party/LwIP/src/core/udp.c ****    "The Dynamic and/or Private Ports are those from 49152 through 65535" */
  71:Middlewares/Third_Party/LwIP/src/core/udp.c **** #define UDP_LOCAL_PORT_RANGE_START  0xc000
  72:Middlewares/Third_Party/LwIP/src/core/udp.c **** #define UDP_LOCAL_PORT_RANGE_END    0xffff
  73:Middlewares/Third_Party/LwIP/src/core/udp.c **** #define UDP_ENSURE_LOCAL_PORT_RANGE(port) ((u16_t)(((port) & (u16_t)~UDP_LOCAL_PORT_RANGE_START) + 
  74:Middlewares/Third_Party/LwIP/src/core/udp.c **** #endif
  75:Middlewares/Third_Party/LwIP/src/core/udp.c **** 
  76:Middlewares/Third_Party/LwIP/src/core/udp.c **** /* last local UDP port */
  77:Middlewares/Third_Party/LwIP/src/core/udp.c **** static u16_t udp_port = UDP_LOCAL_PORT_RANGE_START;
  78:Middlewares/Third_Party/LwIP/src/core/udp.c **** 
  79:Middlewares/Third_Party/LwIP/src/core/udp.c **** /* The list of UDP PCBs */
  80:Middlewares/Third_Party/LwIP/src/core/udp.c **** /* exported in udp.h (was static) */
  81:Middlewares/Third_Party/LwIP/src/core/udp.c **** struct udp_pcb *udp_pcbs;
  82:Middlewares/Third_Party/LwIP/src/core/udp.c **** 
  83:Middlewares/Third_Party/LwIP/src/core/udp.c **** /**
  84:Middlewares/Third_Party/LwIP/src/core/udp.c ****  * Initialize this module.
  85:Middlewares/Third_Party/LwIP/src/core/udp.c ****  */
  86:Middlewares/Third_Party/LwIP/src/core/udp.c **** void
  87:Middlewares/Third_Party/LwIP/src/core/udp.c **** udp_init(void)
  88:Middlewares/Third_Party/LwIP/src/core/udp.c **** {
  89:Middlewares/Third_Party/LwIP/src/core/udp.c **** #ifdef LWIP_RAND
  90:Middlewares/Third_Party/LwIP/src/core/udp.c ****   udp_port = UDP_ENSURE_LOCAL_PORT_RANGE(LWIP_RAND());
ARM GAS  /tmp/ccfwlTnO.s 			page 3


  91:Middlewares/Third_Party/LwIP/src/core/udp.c **** #endif /* LWIP_RAND */
  92:Middlewares/Third_Party/LwIP/src/core/udp.c **** }
  93:Middlewares/Third_Party/LwIP/src/core/udp.c **** 
  94:Middlewares/Third_Party/LwIP/src/core/udp.c **** /**
  95:Middlewares/Third_Party/LwIP/src/core/udp.c ****  * Allocate a new local UDP port.
  96:Middlewares/Third_Party/LwIP/src/core/udp.c ****  *
  97:Middlewares/Third_Party/LwIP/src/core/udp.c ****  * @return a new (free) local UDP port number
  98:Middlewares/Third_Party/LwIP/src/core/udp.c ****  */
  99:Middlewares/Third_Party/LwIP/src/core/udp.c **** static u16_t
 100:Middlewares/Third_Party/LwIP/src/core/udp.c **** udp_new_port(void)
 101:Middlewares/Third_Party/LwIP/src/core/udp.c **** {
  26              		.loc 1 101 0
  27              		.cfi_startproc
  28              		@ args = 0, pretend = 0, frame = 0
  29              		@ frame_needed = 0, uses_anonymous_args = 0
  30              		@ link register save eliminated.
  31              	.LVL0:
 102:Middlewares/Third_Party/LwIP/src/core/udp.c ****   u16_t n = 0;
  32              		.loc 1 102 0
  33 0000 0020     		movs	r0, #0
  34              	.LVL1:
  35              	.L2:
 103:Middlewares/Third_Party/LwIP/src/core/udp.c ****   struct udp_pcb *pcb;
 104:Middlewares/Third_Party/LwIP/src/core/udp.c **** 
 105:Middlewares/Third_Party/LwIP/src/core/udp.c **** again:
 106:Middlewares/Third_Party/LwIP/src/core/udp.c ****   if (udp_port++ == UDP_LOCAL_PORT_RANGE_END) {
  36              		.loc 1 106 0
  37 0002 104A     		ldr	r2, .L12
  38 0004 1388     		ldrh	r3, [r2]
  39 0006 591C     		adds	r1, r3, #1
  40 0008 1180     		strh	r1, [r2]	@ movhi
  41 000a 4FF6FF72 		movw	r2, #65535
  42 000e 9342     		cmp	r3, r2
  43 0010 09D0     		beq	.L9
  44              	.L3:
 107:Middlewares/Third_Party/LwIP/src/core/udp.c ****     udp_port = UDP_LOCAL_PORT_RANGE_START;
 108:Middlewares/Third_Party/LwIP/src/core/udp.c ****   }
 109:Middlewares/Third_Party/LwIP/src/core/udp.c ****   /* Check all PCBs. */
 110:Middlewares/Third_Party/LwIP/src/core/udp.c ****   for (pcb = udp_pcbs; pcb != NULL; pcb = pcb->next) {
  45              		.loc 1 110 0
  46 0012 0D4B     		ldr	r3, .L12+4
  47 0014 1B68     		ldr	r3, [r3]
  48              	.LVL2:
  49              	.L4:
  50              		.loc 1 110 0 is_stmt 0 discriminator 1
  51 0016 93B1     		cbz	r3, .L10
 111:Middlewares/Third_Party/LwIP/src/core/udp.c ****     if (pcb->local_port == udp_port) {
  52              		.loc 1 111 0 is_stmt 1
  53 0018 598A     		ldrh	r1, [r3, #18]
  54 001a 0A4A     		ldr	r2, .L12
  55 001c 1288     		ldrh	r2, [r2]
  56 001e 9142     		cmp	r1, r2
  57 0020 06D0     		beq	.L11
 110:Middlewares/Third_Party/LwIP/src/core/udp.c ****     if (pcb->local_port == udp_port) {
  58              		.loc 1 110 0 discriminator 2
  59 0022 DB68     		ldr	r3, [r3, #12]
  60              	.LVL3:
ARM GAS  /tmp/ccfwlTnO.s 			page 4


  61 0024 F7E7     		b	.L4
  62              	.LVL4:
  63              	.L9:
 107:Middlewares/Third_Party/LwIP/src/core/udp.c ****     udp_port = UDP_LOCAL_PORT_RANGE_START;
  64              		.loc 1 107 0
  65 0026 4FF44042 		mov	r2, #49152
  66 002a 064B     		ldr	r3, .L12
  67 002c 1A80     		strh	r2, [r3]	@ movhi
  68 002e F0E7     		b	.L3
  69              	.LVL5:
  70              	.L11:
 112:Middlewares/Third_Party/LwIP/src/core/udp.c ****       if (++n > (UDP_LOCAL_PORT_RANGE_END - UDP_LOCAL_PORT_RANGE_START)) {
  71              		.loc 1 112 0
  72 0030 0130     		adds	r0, r0, #1
  73              	.LVL6:
  74 0032 80B2     		uxth	r0, r0
  75              	.LVL7:
  76 0034 B0F5804F 		cmp	r0, #16384
  77 0038 E3D3     		bcc	.L2
 113:Middlewares/Third_Party/LwIP/src/core/udp.c ****         return 0;
  78              		.loc 1 113 0
  79 003a 0020     		movs	r0, #0
  80              	.LVL8:
 114:Middlewares/Third_Party/LwIP/src/core/udp.c ****       }
 115:Middlewares/Third_Party/LwIP/src/core/udp.c ****       goto again;
 116:Middlewares/Third_Party/LwIP/src/core/udp.c ****     }
 117:Middlewares/Third_Party/LwIP/src/core/udp.c ****   }
 118:Middlewares/Third_Party/LwIP/src/core/udp.c ****   return udp_port;
 119:Middlewares/Third_Party/LwIP/src/core/udp.c **** }
  81              		.loc 1 119 0
  82 003c 7047     		bx	lr
  83              	.LVL9:
  84              	.L10:
 118:Middlewares/Third_Party/LwIP/src/core/udp.c **** }
  85              		.loc 1 118 0
  86 003e 014B     		ldr	r3, .L12
  87              	.LVL10:
  88 0040 1888     		ldrh	r0, [r3]
  89              	.LVL11:
  90 0042 7047     		bx	lr
  91              	.L13:
  92              		.align	2
  93              	.L12:
  94 0044 00000000 		.word	.LANCHOR0
  95 0048 00000000 		.word	udp_pcbs
  96              		.cfi_endproc
  97              	.LFE159:
  99              		.section	.text.udp_input_local_match,"ax",%progbits
 100              		.align	1
 101              		.syntax unified
 102              		.thumb
 103              		.thumb_func
 104              		.fpu fpv5-d16
 106              	udp_input_local_match:
 107              	.LFB160:
 120:Middlewares/Third_Party/LwIP/src/core/udp.c **** 
 121:Middlewares/Third_Party/LwIP/src/core/udp.c **** /** Common code to see if the current input packet matches the pcb
ARM GAS  /tmp/ccfwlTnO.s 			page 5


 122:Middlewares/Third_Party/LwIP/src/core/udp.c ****  * (current input packet is accessed via ip(4/6)_current_* macros)
 123:Middlewares/Third_Party/LwIP/src/core/udp.c ****  *
 124:Middlewares/Third_Party/LwIP/src/core/udp.c ****  * @param pcb pcb to check
 125:Middlewares/Third_Party/LwIP/src/core/udp.c ****  * @param inp network interface on which the datagram was received (only used for IPv4)
 126:Middlewares/Third_Party/LwIP/src/core/udp.c ****  * @param broadcast 1 if his is an IPv4 broadcast (global or subnet-only), 0 otherwise (only used f
 127:Middlewares/Third_Party/LwIP/src/core/udp.c ****  * @return 1 on match, 0 otherwise
 128:Middlewares/Third_Party/LwIP/src/core/udp.c ****  */
 129:Middlewares/Third_Party/LwIP/src/core/udp.c **** static u8_t
 130:Middlewares/Third_Party/LwIP/src/core/udp.c **** udp_input_local_match(struct udp_pcb *pcb, struct netif *inp, u8_t broadcast)
 131:Middlewares/Third_Party/LwIP/src/core/udp.c **** {
 108              		.loc 1 131 0
 109              		.cfi_startproc
 110              		@ args = 0, pretend = 0, frame = 0
 111              		@ frame_needed = 0, uses_anonymous_args = 0
 112              	.LVL12:
 113 0000 70B5     		push	{r4, r5, r6, lr}
 114              	.LCFI0:
 115              		.cfi_def_cfa_offset 16
 116              		.cfi_offset 4, -16
 117              		.cfi_offset 5, -12
 118              		.cfi_offset 6, -8
 119              		.cfi_offset 14, -4
 120 0002 0D46     		mov	r5, r1
 121 0004 1646     		mov	r6, r2
 132:Middlewares/Third_Party/LwIP/src/core/udp.c ****   LWIP_UNUSED_ARG(inp);       /* in IPv6 only case */
 133:Middlewares/Third_Party/LwIP/src/core/udp.c ****   LWIP_UNUSED_ARG(broadcast); /* in IPv6 only case */
 134:Middlewares/Third_Party/LwIP/src/core/udp.c **** 
 135:Middlewares/Third_Party/LwIP/src/core/udp.c ****   LWIP_ASSERT("udp_input_local_match: invalid pcb", pcb != NULL);
 122              		.loc 1 135 0
 123 0006 0446     		mov	r4, r0
 124 0008 60B1     		cbz	r0, .L29
 125              	.LVL13:
 126              	.L15:
 136:Middlewares/Third_Party/LwIP/src/core/udp.c ****   LWIP_ASSERT("udp_input_local_match: invalid netif", inp != NULL);
 127              		.loc 1 136 0
 128 000a 95B1     		cbz	r5, .L30
 129              	.L16:
 137:Middlewares/Third_Party/LwIP/src/core/udp.c **** 
 138:Middlewares/Third_Party/LwIP/src/core/udp.c ****   /* check if PCB is bound to specific netif */
 139:Middlewares/Third_Party/LwIP/src/core/udp.c ****   if ((pcb->netif_idx != NETIF_NO_INDEX) &&
 130              		.loc 1 139 0
 131 000c 227A     		ldrb	r2, [r4, #8]	@ zero_extendqisi2
 132 000e BAB1     		cbz	r2, .L17
 140:Middlewares/Third_Party/LwIP/src/core/udp.c ****       (pcb->netif_idx != netif_get_index(ip_data.current_input_netif))) {
 133              		.loc 1 140 0 discriminator 1
 134 0010 1E4B     		ldr	r3, .L31
 135 0012 5B68     		ldr	r3, [r3, #4]
 136 0014 93F83430 		ldrb	r3, [r3, #52]	@ zero_extendqisi2
 137 0018 0133     		adds	r3, r3, #1
 138 001a DBB2     		uxtb	r3, r3
 139:Middlewares/Third_Party/LwIP/src/core/udp.c ****       (pcb->netif_idx != netif_get_index(ip_data.current_input_netif))) {
 139              		.loc 1 139 0 discriminator 1
 140 001c 9A42     		cmp	r2, r3
 141 001e 0FD0     		beq	.L17
 141:Middlewares/Third_Party/LwIP/src/core/udp.c ****     return 0;
 142              		.loc 1 141 0
 143 0020 0020     		movs	r0, #0
ARM GAS  /tmp/ccfwlTnO.s 			page 6


 144 0022 70BD     		pop	{r4, r5, r6, pc}
 145              	.LVL14:
 146              	.L29:
 135:Middlewares/Third_Party/LwIP/src/core/udp.c ****   LWIP_ASSERT("udp_input_local_match: invalid netif", inp != NULL);
 147              		.loc 1 135 0 discriminator 1
 148 0024 1A4B     		ldr	r3, .L31+4
 149 0026 8722     		movs	r2, #135
 150              	.LVL15:
 151 0028 1A49     		ldr	r1, .L31+8
 152              	.LVL16:
 153 002a 1B48     		ldr	r0, .L31+12
 154              	.LVL17:
 155 002c FFF7FEFF 		bl	printf
 156              	.LVL18:
 157 0030 EBE7     		b	.L15
 158              	.L30:
 136:Middlewares/Third_Party/LwIP/src/core/udp.c **** 
 159              		.loc 1 136 0 discriminator 1
 160 0032 174B     		ldr	r3, .L31+4
 161 0034 8822     		movs	r2, #136
 162 0036 1949     		ldr	r1, .L31+16
 163 0038 1748     		ldr	r0, .L31+12
 164 003a FFF7FEFF 		bl	printf
 165              	.LVL19:
 166 003e E5E7     		b	.L16
 167              	.L17:
 142:Middlewares/Third_Party/LwIP/src/core/udp.c ****   }
 143:Middlewares/Third_Party/LwIP/src/core/udp.c **** 
 144:Middlewares/Third_Party/LwIP/src/core/udp.c ****   /* Dual-stack: PCBs listening to any IP type also listen to any IP address */
 145:Middlewares/Third_Party/LwIP/src/core/udp.c ****   if (IP_IS_ANY_TYPE_VAL(pcb->local_ip)) {
 146:Middlewares/Third_Party/LwIP/src/core/udp.c **** #if LWIP_IPV4 && IP_SOF_BROADCAST_RECV
 147:Middlewares/Third_Party/LwIP/src/core/udp.c ****     if ((broadcast != 0) && !ip_get_option(pcb, SOF_BROADCAST)) {
 148:Middlewares/Third_Party/LwIP/src/core/udp.c ****       return 0;
 149:Middlewares/Third_Party/LwIP/src/core/udp.c ****     }
 150:Middlewares/Third_Party/LwIP/src/core/udp.c **** #endif /* LWIP_IPV4 && IP_SOF_BROADCAST_RECV */
 151:Middlewares/Third_Party/LwIP/src/core/udp.c ****     return 1;
 152:Middlewares/Third_Party/LwIP/src/core/udp.c ****   }
 153:Middlewares/Third_Party/LwIP/src/core/udp.c **** 
 154:Middlewares/Third_Party/LwIP/src/core/udp.c ****   /* Only need to check PCB if incoming IP version matches PCB IP version */
 155:Middlewares/Third_Party/LwIP/src/core/udp.c ****   if (IP_ADDR_PCB_VERSION_MATCH_EXACT(pcb, ip_current_dest_addr())) {
 156:Middlewares/Third_Party/LwIP/src/core/udp.c **** #if LWIP_IPV4
 157:Middlewares/Third_Party/LwIP/src/core/udp.c ****     /* Special case: IPv4 broadcast: all or broadcasts in my subnet
 158:Middlewares/Third_Party/LwIP/src/core/udp.c ****      * Note: broadcast variable can only be 1 if it is an IPv4 broadcast */
 159:Middlewares/Third_Party/LwIP/src/core/udp.c ****     if (broadcast != 0) {
 168              		.loc 1 159 0
 169 0040 6EB1     		cbz	r6, .L19
 160:Middlewares/Third_Party/LwIP/src/core/udp.c **** #if IP_SOF_BROADCAST_RECV
 161:Middlewares/Third_Party/LwIP/src/core/udp.c ****       if (ip_get_option(pcb, SOF_BROADCAST))
 162:Middlewares/Third_Party/LwIP/src/core/udp.c **** #endif /* IP_SOF_BROADCAST_RECV */
 163:Middlewares/Third_Party/LwIP/src/core/udp.c ****       {
 164:Middlewares/Third_Party/LwIP/src/core/udp.c ****         if (ip4_addr_isany(ip_2_ip4(&pcb->local_ip)) ||
 170              		.loc 1 164 0
 171 0042 ACB1     		cbz	r4, .L21
 172              		.loc 1 164 0 is_stmt 0 discriminator 1
 173 0044 2368     		ldr	r3, [r4]
 174 0046 ABB1     		cbz	r3, .L22
 165:Middlewares/Third_Party/LwIP/src/core/udp.c ****             ((ip4_current_dest_addr()->addr == IPADDR_BROADCAST)) ||
ARM GAS  /tmp/ccfwlTnO.s 			page 7


 175              		.loc 1 165 0 is_stmt 1 discriminator 2
 176 0048 104A     		ldr	r2, .L31
 177 004a 5269     		ldr	r2, [r2, #20]
 164:Middlewares/Third_Party/LwIP/src/core/udp.c ****             ((ip4_current_dest_addr()->addr == IPADDR_BROADCAST)) ||
 178              		.loc 1 164 0 discriminator 2
 179 004c B2F1FF3F 		cmp	r2, #-1
 180 0050 12D0     		beq	.L23
 166:Middlewares/Third_Party/LwIP/src/core/udp.c ****             ip4_addr_netcmp(ip_2_ip4(&pcb->local_ip), ip4_current_dest_addr(), netif_ip4_netmask(in
 181              		.loc 1 166 0
 182 0052 A968     		ldr	r1, [r5, #8]
 183 0054 5340     		eors	r3, r3, r2
 165:Middlewares/Third_Party/LwIP/src/core/udp.c ****             ((ip4_current_dest_addr()->addr == IPADDR_BROADCAST)) ||
 184              		.loc 1 165 0
 185 0056 0B42     		tst	r3, r1
 186 0058 10D0     		beq	.L24
 167:Middlewares/Third_Party/LwIP/src/core/udp.c ****           return 1;
 168:Middlewares/Third_Party/LwIP/src/core/udp.c ****         }
 169:Middlewares/Third_Party/LwIP/src/core/udp.c ****       }
 170:Middlewares/Third_Party/LwIP/src/core/udp.c ****     } else
 171:Middlewares/Third_Party/LwIP/src/core/udp.c **** #endif /* LWIP_IPV4 */
 172:Middlewares/Third_Party/LwIP/src/core/udp.c ****       /* Handle IPv4 and IPv6: all or exact match */
 173:Middlewares/Third_Party/LwIP/src/core/udp.c ****       if (ip_addr_isany(&pcb->local_ip) || ip_addr_cmp(&pcb->local_ip, ip_current_dest_addr())) {
 174:Middlewares/Third_Party/LwIP/src/core/udp.c ****         return 1;
 175:Middlewares/Third_Party/LwIP/src/core/udp.c ****       }
 176:Middlewares/Third_Party/LwIP/src/core/udp.c ****   }
 177:Middlewares/Third_Party/LwIP/src/core/udp.c **** 
 178:Middlewares/Third_Party/LwIP/src/core/udp.c ****   return 0;
 187              		.loc 1 178 0
 188 005a 0020     		movs	r0, #0
 189 005c 70BD     		pop	{r4, r5, r6, pc}
 190              	.LVL20:
 191              	.L19:
 173:Middlewares/Third_Party/LwIP/src/core/udp.c ****         return 1;
 192              		.loc 1 173 0
 193 005e 7CB1     		cbz	r4, .L25
 173:Middlewares/Third_Party/LwIP/src/core/udp.c ****         return 1;
 194              		.loc 1 173 0 is_stmt 0 discriminator 1
 195 0060 2368     		ldr	r3, [r4]
 196 0062 7BB1     		cbz	r3, .L26
 173:Middlewares/Third_Party/LwIP/src/core/udp.c ****         return 1;
 197              		.loc 1 173 0 discriminator 2
 198 0064 094A     		ldr	r2, .L31
 199 0066 5269     		ldr	r2, [r2, #20]
 200 0068 9342     		cmp	r3, r2
 201 006a 0DD0     		beq	.L27
 202              		.loc 1 178 0 is_stmt 1
 203 006c 0020     		movs	r0, #0
 204 006e 70BD     		pop	{r4, r5, r6, pc}
 205              	.LVL21:
 206              	.L21:
 167:Middlewares/Third_Party/LwIP/src/core/udp.c ****           return 1;
 207              		.loc 1 167 0
 208 0070 0120     		movs	r0, #1
 209 0072 70BD     		pop	{r4, r5, r6, pc}
 210              	.LVL22:
 211              	.L22:
 212 0074 0120     		movs	r0, #1
ARM GAS  /tmp/ccfwlTnO.s 			page 8


 213 0076 70BD     		pop	{r4, r5, r6, pc}
 214              	.LVL23:
 215              	.L23:
 216 0078 0120     		movs	r0, #1
 217 007a 70BD     		pop	{r4, r5, r6, pc}
 218              	.LVL24:
 219              	.L24:
 220 007c 0120     		movs	r0, #1
 221 007e 70BD     		pop	{r4, r5, r6, pc}
 222              	.LVL25:
 223              	.L25:
 174:Middlewares/Third_Party/LwIP/src/core/udp.c ****       }
 224              		.loc 1 174 0
 225 0080 0120     		movs	r0, #1
 226 0082 70BD     		pop	{r4, r5, r6, pc}
 227              	.LVL26:
 228              	.L26:
 229 0084 0120     		movs	r0, #1
 230 0086 70BD     		pop	{r4, r5, r6, pc}
 231              	.LVL27:
 232              	.L27:
 233 0088 0120     		movs	r0, #1
 179:Middlewares/Third_Party/LwIP/src/core/udp.c **** }
 234              		.loc 1 179 0
 235 008a 70BD     		pop	{r4, r5, r6, pc}
 236              	.LVL28:
 237              	.L32:
 238              		.align	2
 239              	.L31:
 240 008c 00000000 		.word	ip_data
 241 0090 00000000 		.word	.LC0
 242 0094 2C000000 		.word	.LC1
 243 0098 50000000 		.word	.LC2
 244 009c 78000000 		.word	.LC3
 245              		.cfi_endproc
 246              	.LFE160:
 248              		.section	.text.udp_init,"ax",%progbits
 249              		.align	1
 250              		.global	udp_init
 251              		.syntax unified
 252              		.thumb
 253              		.thumb_func
 254              		.fpu fpv5-d16
 256              	udp_init:
 257              	.LFB158:
  88:Middlewares/Third_Party/LwIP/src/core/udp.c **** #ifdef LWIP_RAND
 258              		.loc 1 88 0
 259              		.cfi_startproc
 260              		@ args = 0, pretend = 0, frame = 0
 261              		@ frame_needed = 0, uses_anonymous_args = 0
 262 0000 08B5     		push	{r3, lr}
 263              	.LCFI1:
 264              		.cfi_def_cfa_offset 8
 265              		.cfi_offset 3, -8
 266              		.cfi_offset 14, -4
  90:Middlewares/Third_Party/LwIP/src/core/udp.c **** #endif /* LWIP_RAND */
 267              		.loc 1 90 0
ARM GAS  /tmp/ccfwlTnO.s 			page 9


 268 0002 FFF7FEFF 		bl	rand
 269              	.LVL29:
 270 0006 024B     		ldr	r3, .L35
 271 0008 0343     		orrs	r3, r3, r0
 272 000a 024A     		ldr	r2, .L35+4
 273 000c 1380     		strh	r3, [r2]	@ movhi
 274 000e 08BD     		pop	{r3, pc}
 275              	.L36:
 276              		.align	2
 277              	.L35:
 278 0010 00C0FFFF 		.word	-16384
 279 0014 00000000 		.word	.LANCHOR0
 280              		.cfi_endproc
 281              	.LFE158:
 283              		.section	.text.udp_input,"ax",%progbits
 284              		.align	1
 285              		.global	udp_input
 286              		.syntax unified
 287              		.thumb
 288              		.thumb_func
 289              		.fpu fpv5-d16
 291              	udp_input:
 292              	.LFB161:
 180:Middlewares/Third_Party/LwIP/src/core/udp.c **** 
 181:Middlewares/Third_Party/LwIP/src/core/udp.c **** /**
 182:Middlewares/Third_Party/LwIP/src/core/udp.c ****  * Process an incoming UDP datagram.
 183:Middlewares/Third_Party/LwIP/src/core/udp.c ****  *
 184:Middlewares/Third_Party/LwIP/src/core/udp.c ****  * Given an incoming UDP datagram (as a chain of pbufs) this function
 185:Middlewares/Third_Party/LwIP/src/core/udp.c ****  * finds a corresponding UDP PCB and hands over the pbuf to the pcbs
 186:Middlewares/Third_Party/LwIP/src/core/udp.c ****  * recv function. If no pcb is found or the datagram is incorrect, the
 187:Middlewares/Third_Party/LwIP/src/core/udp.c ****  * pbuf is freed.
 188:Middlewares/Third_Party/LwIP/src/core/udp.c ****  *
 189:Middlewares/Third_Party/LwIP/src/core/udp.c ****  * @param p pbuf to be demultiplexed to a UDP PCB (p->payload pointing to the UDP header)
 190:Middlewares/Third_Party/LwIP/src/core/udp.c ****  * @param inp network interface on which the datagram was received.
 191:Middlewares/Third_Party/LwIP/src/core/udp.c ****  *
 192:Middlewares/Third_Party/LwIP/src/core/udp.c ****  */
 193:Middlewares/Third_Party/LwIP/src/core/udp.c **** void
 194:Middlewares/Third_Party/LwIP/src/core/udp.c **** udp_input(struct pbuf *p, struct netif *inp)
 195:Middlewares/Third_Party/LwIP/src/core/udp.c **** {
 293              		.loc 1 195 0
 294              		.cfi_startproc
 295              		@ args = 0, pretend = 0, frame = 0
 296              		@ frame_needed = 0, uses_anonymous_args = 0
 297              	.LVL30:
 298 0000 2DE9F04F 		push	{r4, r5, r6, r7, r8, r9, r10, fp, lr}
 299              	.LCFI2:
 300              		.cfi_def_cfa_offset 36
 301              		.cfi_offset 4, -36
 302              		.cfi_offset 5, -32
 303              		.cfi_offset 6, -28
 304              		.cfi_offset 7, -24
 305              		.cfi_offset 8, -20
 306              		.cfi_offset 9, -16
 307              		.cfi_offset 10, -12
 308              		.cfi_offset 11, -8
 309              		.cfi_offset 14, -4
 310 0004 83B0     		sub	sp, sp, #12
ARM GAS  /tmp/ccfwlTnO.s 			page 10


 311              	.LCFI3:
 312              		.cfi_def_cfa_offset 48
 313 0006 0F46     		mov	r7, r1
 314              	.LVL31:
 196:Middlewares/Third_Party/LwIP/src/core/udp.c ****   struct udp_hdr *udphdr;
 197:Middlewares/Third_Party/LwIP/src/core/udp.c ****   struct udp_pcb *pcb, *prev;
 198:Middlewares/Third_Party/LwIP/src/core/udp.c ****   struct udp_pcb *uncon_pcb;
 199:Middlewares/Third_Party/LwIP/src/core/udp.c ****   u16_t src, dest;
 200:Middlewares/Third_Party/LwIP/src/core/udp.c ****   u8_t broadcast;
 201:Middlewares/Third_Party/LwIP/src/core/udp.c ****   u8_t for_us = 0;
 202:Middlewares/Third_Party/LwIP/src/core/udp.c **** 
 203:Middlewares/Third_Party/LwIP/src/core/udp.c ****   LWIP_UNUSED_ARG(inp);
 204:Middlewares/Third_Party/LwIP/src/core/udp.c **** 
 205:Middlewares/Third_Party/LwIP/src/core/udp.c ****   LWIP_ASSERT_CORE_LOCKED();
 206:Middlewares/Third_Party/LwIP/src/core/udp.c **** 
 207:Middlewares/Third_Party/LwIP/src/core/udp.c ****   LWIP_ASSERT("udp_input: invalid pbuf", p != NULL);
 315              		.loc 1 207 0
 316 0008 8046     		mov	r8, r0
 317 000a D0B1     		cbz	r0, .L60
 318              	.LVL32:
 319              	.L38:
 208:Middlewares/Third_Party/LwIP/src/core/udp.c ****   LWIP_ASSERT("udp_input: invalid netif", inp != NULL);
 320              		.loc 1 208 0
 321 000c 07B3     		cbz	r7, .L61
 322              	.L39:
 209:Middlewares/Third_Party/LwIP/src/core/udp.c **** 
 210:Middlewares/Third_Party/LwIP/src/core/udp.c ****   PERF_START;
 211:Middlewares/Third_Party/LwIP/src/core/udp.c **** 
 212:Middlewares/Third_Party/LwIP/src/core/udp.c ****   UDP_STATS_INC(udp.recv);
 213:Middlewares/Third_Party/LwIP/src/core/udp.c **** 
 214:Middlewares/Third_Party/LwIP/src/core/udp.c ****   /* Check minimum length (UDP header) */
 215:Middlewares/Third_Party/LwIP/src/core/udp.c ****   if (p->len < UDP_HLEN) {
 323              		.loc 1 215 0
 324 000e B8F80A30 		ldrh	r3, [r8, #10]
 325 0012 072B     		cmp	r3, #7
 326 0014 23D9     		bls	.L62
 216:Middlewares/Third_Party/LwIP/src/core/udp.c ****     /* drop short packets */
 217:Middlewares/Third_Party/LwIP/src/core/udp.c ****     LWIP_DEBUGF(UDP_DEBUG,
 218:Middlewares/Third_Party/LwIP/src/core/udp.c ****                 ("udp_input: short UDP datagram (%"U16_F" bytes) discarded\n", p->tot_len));
 219:Middlewares/Third_Party/LwIP/src/core/udp.c ****     UDP_STATS_INC(udp.lenerr);
 220:Middlewares/Third_Party/LwIP/src/core/udp.c ****     UDP_STATS_INC(udp.drop);
 221:Middlewares/Third_Party/LwIP/src/core/udp.c ****     MIB2_STATS_INC(mib2.udpinerrors);
 222:Middlewares/Third_Party/LwIP/src/core/udp.c ****     pbuf_free(p);
 223:Middlewares/Third_Party/LwIP/src/core/udp.c ****     goto end;
 224:Middlewares/Third_Party/LwIP/src/core/udp.c ****   }
 225:Middlewares/Third_Party/LwIP/src/core/udp.c **** 
 226:Middlewares/Third_Party/LwIP/src/core/udp.c ****   udphdr = (struct udp_hdr *)p->payload;
 327              		.loc 1 226 0
 328 0016 D8F80440 		ldr	r4, [r8, #4]
 329              	.LVL33:
 227:Middlewares/Third_Party/LwIP/src/core/udp.c **** 
 228:Middlewares/Third_Party/LwIP/src/core/udp.c ****   /* is broadcast packet ? */
 229:Middlewares/Third_Party/LwIP/src/core/udp.c ****   broadcast = ip_addr_isbroadcast(ip_current_dest_addr(), ip_current_netif());
 330              		.loc 1 229 0
 331 001a 554B     		ldr	r3, .L67
 332 001c 1968     		ldr	r1, [r3]
 333 001e 5869     		ldr	r0, [r3, #20]
ARM GAS  /tmp/ccfwlTnO.s 			page 11


 334 0020 FFF7FEFF 		bl	ip4_addr_isbroadcast_u32
 335              	.LVL34:
 336 0024 8146     		mov	r9, r0
 337              	.LVL35:
 230:Middlewares/Third_Party/LwIP/src/core/udp.c **** 
 231:Middlewares/Third_Party/LwIP/src/core/udp.c ****   LWIP_DEBUGF(UDP_DEBUG, ("udp_input: received datagram of length %"U16_F"\n", p->tot_len));
 232:Middlewares/Third_Party/LwIP/src/core/udp.c **** 
 233:Middlewares/Third_Party/LwIP/src/core/udp.c ****   /* convert src and dest ports to host byte order */
 234:Middlewares/Third_Party/LwIP/src/core/udp.c ****   src = lwip_ntohs(udphdr->src);
 338              		.loc 1 234 0
 339 0026 2088     		ldrh	r0, [r4]	@ unaligned
 340 0028 FFF7FEFF 		bl	lwip_htons
 341              	.LVL36:
 342 002c 8346     		mov	fp, r0
 343              	.LVL37:
 235:Middlewares/Third_Party/LwIP/src/core/udp.c ****   dest = lwip_ntohs(udphdr->dest);
 344              		.loc 1 235 0
 345 002e 6088     		ldrh	r0, [r4, #2]	@ unaligned
 346 0030 FFF7FEFF 		bl	lwip_htons
 347              	.LVL38:
 348 0034 0646     		mov	r6, r0
 349              	.LVL39:
 236:Middlewares/Third_Party/LwIP/src/core/udp.c **** 
 237:Middlewares/Third_Party/LwIP/src/core/udp.c ****   udp_debug_print(udphdr);
 238:Middlewares/Third_Party/LwIP/src/core/udp.c **** 
 239:Middlewares/Third_Party/LwIP/src/core/udp.c ****   /* print the UDP source and destination */
 240:Middlewares/Third_Party/LwIP/src/core/udp.c ****   LWIP_DEBUGF(UDP_DEBUG, ("udp ("));
 241:Middlewares/Third_Party/LwIP/src/core/udp.c ****   ip_addr_debug_print_val(UDP_DEBUG, *ip_current_dest_addr());
 242:Middlewares/Third_Party/LwIP/src/core/udp.c ****   LWIP_DEBUGF(UDP_DEBUG, (", %"U16_F") <-- (", lwip_ntohs(udphdr->dest)));
 243:Middlewares/Third_Party/LwIP/src/core/udp.c ****   ip_addr_debug_print_val(UDP_DEBUG, *ip_current_src_addr());
 244:Middlewares/Third_Party/LwIP/src/core/udp.c ****   LWIP_DEBUGF(UDP_DEBUG, (", %"U16_F")\n", lwip_ntohs(udphdr->src)));
 245:Middlewares/Third_Party/LwIP/src/core/udp.c **** 
 246:Middlewares/Third_Party/LwIP/src/core/udp.c ****   pcb = NULL;
 247:Middlewares/Third_Party/LwIP/src/core/udp.c ****   prev = NULL;
 248:Middlewares/Third_Party/LwIP/src/core/udp.c ****   uncon_pcb = NULL;
 249:Middlewares/Third_Party/LwIP/src/core/udp.c ****   /* Iterate through the UDP pcb list for a matching pcb.
 250:Middlewares/Third_Party/LwIP/src/core/udp.c ****    * 'Perfect match' pcbs (connected to the remote port & ip address) are
 251:Middlewares/Third_Party/LwIP/src/core/udp.c ****    * preferred. If no perfect match is found, the first unconnected pcb that
 252:Middlewares/Third_Party/LwIP/src/core/udp.c ****    * matches the local port and ip address gets the datagram. */
 253:Middlewares/Third_Party/LwIP/src/core/udp.c ****   for (pcb = udp_pcbs; pcb != NULL; pcb = pcb->next) {
 350              		.loc 1 253 0
 351 0036 4F4B     		ldr	r3, .L67+4
 352 0038 1C68     		ldr	r4, [r3]
 353              	.LVL40:
 248:Middlewares/Third_Party/LwIP/src/core/udp.c ****   /* Iterate through the UDP pcb list for a matching pcb.
 354              		.loc 1 248 0
 355 003a 4FF0000A 		mov	r10, #0
 247:Middlewares/Third_Party/LwIP/src/core/udp.c ****   uncon_pcb = NULL;
 356              		.loc 1 247 0
 357 003e 5546     		mov	r5, r10
 358              		.loc 1 253 0
 359 0040 19E0     		b	.L42
 360              	.LVL41:
 361              	.L60:
 207:Middlewares/Third_Party/LwIP/src/core/udp.c ****   LWIP_ASSERT("udp_input: invalid netif", inp != NULL);
 362              		.loc 1 207 0 discriminator 1
 363 0042 4D4B     		ldr	r3, .L67+8
ARM GAS  /tmp/ccfwlTnO.s 			page 12


 364 0044 CF22     		movs	r2, #207
 365 0046 4D49     		ldr	r1, .L67+12
 366              	.LVL42:
 367 0048 4D48     		ldr	r0, .L67+16
 368              	.LVL43:
 369 004a FFF7FEFF 		bl	printf
 370              	.LVL44:
 371 004e DDE7     		b	.L38
 372              	.L61:
 208:Middlewares/Third_Party/LwIP/src/core/udp.c **** 
 373              		.loc 1 208 0 discriminator 1
 374 0050 494B     		ldr	r3, .L67+8
 375 0052 D022     		movs	r2, #208
 376 0054 4B49     		ldr	r1, .L67+20
 377 0056 4A48     		ldr	r0, .L67+16
 378 0058 FFF7FEFF 		bl	printf
 379              	.LVL45:
 380 005c D7E7     		b	.L39
 381              	.L62:
 222:Middlewares/Third_Party/LwIP/src/core/udp.c ****     goto end;
 382              		.loc 1 222 0
 383 005e 4046     		mov	r0, r8
 384 0060 FFF7FEFF 		bl	pbuf_free
 385              	.LVL46:
 386              	.L41:
 387              	.L37:
 254:Middlewares/Third_Party/LwIP/src/core/udp.c ****     /* print the PCB local and remote address */
 255:Middlewares/Third_Party/LwIP/src/core/udp.c ****     LWIP_DEBUGF(UDP_DEBUG, ("pcb ("));
 256:Middlewares/Third_Party/LwIP/src/core/udp.c ****     ip_addr_debug_print_val(UDP_DEBUG, pcb->local_ip);
 257:Middlewares/Third_Party/LwIP/src/core/udp.c ****     LWIP_DEBUGF(UDP_DEBUG, (", %"U16_F") <-- (", pcb->local_port));
 258:Middlewares/Third_Party/LwIP/src/core/udp.c ****     ip_addr_debug_print_val(UDP_DEBUG, pcb->remote_ip);
 259:Middlewares/Third_Party/LwIP/src/core/udp.c ****     LWIP_DEBUGF(UDP_DEBUG, (", %"U16_F")\n", pcb->remote_port));
 260:Middlewares/Third_Party/LwIP/src/core/udp.c **** 
 261:Middlewares/Third_Party/LwIP/src/core/udp.c ****     /* compare PCB local addr+port to UDP destination addr+port */
 262:Middlewares/Third_Party/LwIP/src/core/udp.c ****     if ((pcb->local_port == dest) &&
 263:Middlewares/Third_Party/LwIP/src/core/udp.c ****         (udp_input_local_match(pcb, inp, broadcast) != 0)) {
 264:Middlewares/Third_Party/LwIP/src/core/udp.c ****       if ((pcb->flags & UDP_FLAGS_CONNECTED) == 0) {
 265:Middlewares/Third_Party/LwIP/src/core/udp.c ****         if (uncon_pcb == NULL) {
 266:Middlewares/Third_Party/LwIP/src/core/udp.c ****           /* the first unconnected matching PCB */
 267:Middlewares/Third_Party/LwIP/src/core/udp.c ****           uncon_pcb = pcb;
 268:Middlewares/Third_Party/LwIP/src/core/udp.c **** #if LWIP_IPV4
 269:Middlewares/Third_Party/LwIP/src/core/udp.c ****         } else if (broadcast && ip4_current_dest_addr()->addr == IPADDR_BROADCAST) {
 270:Middlewares/Third_Party/LwIP/src/core/udp.c ****           /* global broadcast address (only valid for IPv4; match was checked before) */
 271:Middlewares/Third_Party/LwIP/src/core/udp.c ****           if (!IP_IS_V4_VAL(uncon_pcb->local_ip) || !ip4_addr_cmp(ip_2_ip4(&uncon_pcb->local_ip), n
 272:Middlewares/Third_Party/LwIP/src/core/udp.c ****             /* uncon_pcb does not match the input netif, check this pcb */
 273:Middlewares/Third_Party/LwIP/src/core/udp.c ****             if (IP_IS_V4_VAL(pcb->local_ip) && ip4_addr_cmp(ip_2_ip4(&pcb->local_ip), netif_ip4_add
 274:Middlewares/Third_Party/LwIP/src/core/udp.c ****               /* better match */
 275:Middlewares/Third_Party/LwIP/src/core/udp.c ****               uncon_pcb = pcb;
 276:Middlewares/Third_Party/LwIP/src/core/udp.c ****             }
 277:Middlewares/Third_Party/LwIP/src/core/udp.c ****           }
 278:Middlewares/Third_Party/LwIP/src/core/udp.c **** #endif /* LWIP_IPV4 */
 279:Middlewares/Third_Party/LwIP/src/core/udp.c ****         }
 280:Middlewares/Third_Party/LwIP/src/core/udp.c **** #if SO_REUSE
 281:Middlewares/Third_Party/LwIP/src/core/udp.c ****         else if (!ip_addr_isany(&pcb->local_ip)) {
 282:Middlewares/Third_Party/LwIP/src/core/udp.c ****           /* prefer specific IPs over catch-all */
 283:Middlewares/Third_Party/LwIP/src/core/udp.c ****           uncon_pcb = pcb;
 284:Middlewares/Third_Party/LwIP/src/core/udp.c ****         }
ARM GAS  /tmp/ccfwlTnO.s 			page 13


 285:Middlewares/Third_Party/LwIP/src/core/udp.c **** #endif /* SO_REUSE */
 286:Middlewares/Third_Party/LwIP/src/core/udp.c ****       }
 287:Middlewares/Third_Party/LwIP/src/core/udp.c **** 
 288:Middlewares/Third_Party/LwIP/src/core/udp.c ****       /* compare PCB remote addr+port to UDP source addr+port */
 289:Middlewares/Third_Party/LwIP/src/core/udp.c ****       if ((pcb->remote_port == src) &&
 290:Middlewares/Third_Party/LwIP/src/core/udp.c ****           (ip_addr_isany_val(pcb->remote_ip) ||
 291:Middlewares/Third_Party/LwIP/src/core/udp.c ****            ip_addr_cmp(&pcb->remote_ip, ip_current_src_addr()))) {
 292:Middlewares/Third_Party/LwIP/src/core/udp.c ****         /* the first fully matching PCB */
 293:Middlewares/Third_Party/LwIP/src/core/udp.c ****         if (prev != NULL) {
 294:Middlewares/Third_Party/LwIP/src/core/udp.c ****           /* move the pcb to the front of udp_pcbs so that is
 295:Middlewares/Third_Party/LwIP/src/core/udp.c ****              found faster next time */
 296:Middlewares/Third_Party/LwIP/src/core/udp.c ****           prev->next = pcb->next;
 297:Middlewares/Third_Party/LwIP/src/core/udp.c ****           pcb->next = udp_pcbs;
 298:Middlewares/Third_Party/LwIP/src/core/udp.c ****           udp_pcbs = pcb;
 299:Middlewares/Third_Party/LwIP/src/core/udp.c ****         } else {
 300:Middlewares/Third_Party/LwIP/src/core/udp.c ****           UDP_STATS_INC(udp.cachehit);
 301:Middlewares/Third_Party/LwIP/src/core/udp.c ****         }
 302:Middlewares/Third_Party/LwIP/src/core/udp.c ****         break;
 303:Middlewares/Third_Party/LwIP/src/core/udp.c ****       }
 304:Middlewares/Third_Party/LwIP/src/core/udp.c ****     }
 305:Middlewares/Third_Party/LwIP/src/core/udp.c **** 
 306:Middlewares/Third_Party/LwIP/src/core/udp.c ****     prev = pcb;
 307:Middlewares/Third_Party/LwIP/src/core/udp.c ****   }
 308:Middlewares/Third_Party/LwIP/src/core/udp.c ****   /* no fully matching pcb found? then look for an unconnected pcb */
 309:Middlewares/Third_Party/LwIP/src/core/udp.c ****   if (pcb == NULL) {
 310:Middlewares/Third_Party/LwIP/src/core/udp.c ****     pcb = uncon_pcb;
 311:Middlewares/Third_Party/LwIP/src/core/udp.c ****   }
 312:Middlewares/Third_Party/LwIP/src/core/udp.c **** 
 313:Middlewares/Third_Party/LwIP/src/core/udp.c ****   /* Check checksum if this is a match or if it was directed at us. */
 314:Middlewares/Third_Party/LwIP/src/core/udp.c ****   if (pcb != NULL) {
 315:Middlewares/Third_Party/LwIP/src/core/udp.c ****     for_us = 1;
 316:Middlewares/Third_Party/LwIP/src/core/udp.c ****   } else {
 317:Middlewares/Third_Party/LwIP/src/core/udp.c **** #if LWIP_IPV6
 318:Middlewares/Third_Party/LwIP/src/core/udp.c ****     if (ip_current_is_v6()) {
 319:Middlewares/Third_Party/LwIP/src/core/udp.c ****       for_us = netif_get_ip6_addr_match(inp, ip6_current_dest_addr()) >= 0;
 320:Middlewares/Third_Party/LwIP/src/core/udp.c ****     }
 321:Middlewares/Third_Party/LwIP/src/core/udp.c **** #endif /* LWIP_IPV6 */
 322:Middlewares/Third_Party/LwIP/src/core/udp.c **** #if LWIP_IPV4
 323:Middlewares/Third_Party/LwIP/src/core/udp.c ****     if (!ip_current_is_v6()) {
 324:Middlewares/Third_Party/LwIP/src/core/udp.c ****       for_us = ip4_addr_cmp(netif_ip4_addr(inp), ip4_current_dest_addr());
 325:Middlewares/Third_Party/LwIP/src/core/udp.c ****     }
 326:Middlewares/Third_Party/LwIP/src/core/udp.c **** #endif /* LWIP_IPV4 */
 327:Middlewares/Third_Party/LwIP/src/core/udp.c ****   }
 328:Middlewares/Third_Party/LwIP/src/core/udp.c **** 
 329:Middlewares/Third_Party/LwIP/src/core/udp.c ****   if (for_us) {
 330:Middlewares/Third_Party/LwIP/src/core/udp.c ****     LWIP_DEBUGF(UDP_DEBUG | LWIP_DBG_TRACE, ("udp_input: calculating checksum\n"));
 331:Middlewares/Third_Party/LwIP/src/core/udp.c **** #if CHECKSUM_CHECK_UDP
 332:Middlewares/Third_Party/LwIP/src/core/udp.c ****     IF__NETIF_CHECKSUM_ENABLED(inp, NETIF_CHECKSUM_CHECK_UDP) {
 333:Middlewares/Third_Party/LwIP/src/core/udp.c **** #if LWIP_UDPLITE
 334:Middlewares/Third_Party/LwIP/src/core/udp.c ****       if (ip_current_header_proto() == IP_PROTO_UDPLITE) {
 335:Middlewares/Third_Party/LwIP/src/core/udp.c ****         /* Do the UDP Lite checksum */
 336:Middlewares/Third_Party/LwIP/src/core/udp.c ****         u16_t chklen = lwip_ntohs(udphdr->len);
 337:Middlewares/Third_Party/LwIP/src/core/udp.c ****         if (chklen < sizeof(struct udp_hdr)) {
 338:Middlewares/Third_Party/LwIP/src/core/udp.c ****           if (chklen == 0) {
 339:Middlewares/Third_Party/LwIP/src/core/udp.c ****             /* For UDP-Lite, checksum length of 0 means checksum
 340:Middlewares/Third_Party/LwIP/src/core/udp.c ****                over the complete packet (See RFC 3828 chap. 3.1) */
 341:Middlewares/Third_Party/LwIP/src/core/udp.c ****             chklen = p->tot_len;
ARM GAS  /tmp/ccfwlTnO.s 			page 14


 342:Middlewares/Third_Party/LwIP/src/core/udp.c ****           } else {
 343:Middlewares/Third_Party/LwIP/src/core/udp.c ****             /* At least the UDP-Lite header must be covered by the
 344:Middlewares/Third_Party/LwIP/src/core/udp.c ****                checksum! (Again, see RFC 3828 chap. 3.1) */
 345:Middlewares/Third_Party/LwIP/src/core/udp.c ****             goto chkerr;
 346:Middlewares/Third_Party/LwIP/src/core/udp.c ****           }
 347:Middlewares/Third_Party/LwIP/src/core/udp.c ****         }
 348:Middlewares/Third_Party/LwIP/src/core/udp.c ****         if (ip_chksum_pseudo_partial(p, IP_PROTO_UDPLITE,
 349:Middlewares/Third_Party/LwIP/src/core/udp.c ****                                      p->tot_len, chklen,
 350:Middlewares/Third_Party/LwIP/src/core/udp.c ****                                      ip_current_src_addr(), ip_current_dest_addr()) != 0) {
 351:Middlewares/Third_Party/LwIP/src/core/udp.c ****           goto chkerr;
 352:Middlewares/Third_Party/LwIP/src/core/udp.c ****         }
 353:Middlewares/Third_Party/LwIP/src/core/udp.c ****       } else
 354:Middlewares/Third_Party/LwIP/src/core/udp.c **** #endif /* LWIP_UDPLITE */
 355:Middlewares/Third_Party/LwIP/src/core/udp.c ****       {
 356:Middlewares/Third_Party/LwIP/src/core/udp.c ****         if (udphdr->chksum != 0) {
 357:Middlewares/Third_Party/LwIP/src/core/udp.c ****           if (ip_chksum_pseudo(p, IP_PROTO_UDP, p->tot_len,
 358:Middlewares/Third_Party/LwIP/src/core/udp.c ****                                ip_current_src_addr(),
 359:Middlewares/Third_Party/LwIP/src/core/udp.c ****                                ip_current_dest_addr()) != 0) {
 360:Middlewares/Third_Party/LwIP/src/core/udp.c ****             goto chkerr;
 361:Middlewares/Third_Party/LwIP/src/core/udp.c ****           }
 362:Middlewares/Third_Party/LwIP/src/core/udp.c ****         }
 363:Middlewares/Third_Party/LwIP/src/core/udp.c ****       }
 364:Middlewares/Third_Party/LwIP/src/core/udp.c ****     }
 365:Middlewares/Third_Party/LwIP/src/core/udp.c **** #endif /* CHECKSUM_CHECK_UDP */
 366:Middlewares/Third_Party/LwIP/src/core/udp.c ****     if (pbuf_remove_header(p, UDP_HLEN)) {
 367:Middlewares/Third_Party/LwIP/src/core/udp.c ****       /* Can we cope with this failing? Just assert for now */
 368:Middlewares/Third_Party/LwIP/src/core/udp.c ****       LWIP_ASSERT("pbuf_remove_header failed\n", 0);
 369:Middlewares/Third_Party/LwIP/src/core/udp.c ****       UDP_STATS_INC(udp.drop);
 370:Middlewares/Third_Party/LwIP/src/core/udp.c ****       MIB2_STATS_INC(mib2.udpinerrors);
 371:Middlewares/Third_Party/LwIP/src/core/udp.c ****       pbuf_free(p);
 372:Middlewares/Third_Party/LwIP/src/core/udp.c ****       goto end;
 373:Middlewares/Third_Party/LwIP/src/core/udp.c ****     }
 374:Middlewares/Third_Party/LwIP/src/core/udp.c **** 
 375:Middlewares/Third_Party/LwIP/src/core/udp.c ****     if (pcb != NULL) {
 376:Middlewares/Third_Party/LwIP/src/core/udp.c ****       MIB2_STATS_INC(mib2.udpindatagrams);
 377:Middlewares/Third_Party/LwIP/src/core/udp.c **** #if SO_REUSE && SO_REUSE_RXTOALL
 378:Middlewares/Third_Party/LwIP/src/core/udp.c ****       if (ip_get_option(pcb, SOF_REUSEADDR) &&
 379:Middlewares/Third_Party/LwIP/src/core/udp.c ****           (broadcast || ip_addr_ismulticast(ip_current_dest_addr()))) {
 380:Middlewares/Third_Party/LwIP/src/core/udp.c ****         /* pass broadcast- or multicast packets to all multicast pcbs
 381:Middlewares/Third_Party/LwIP/src/core/udp.c ****            if SOF_REUSEADDR is set on the first match */
 382:Middlewares/Third_Party/LwIP/src/core/udp.c ****         struct udp_pcb *mpcb;
 383:Middlewares/Third_Party/LwIP/src/core/udp.c ****         for (mpcb = udp_pcbs; mpcb != NULL; mpcb = mpcb->next) {
 384:Middlewares/Third_Party/LwIP/src/core/udp.c ****           if (mpcb != pcb) {
 385:Middlewares/Third_Party/LwIP/src/core/udp.c ****             /* compare PCB local addr+port to UDP destination addr+port */
 386:Middlewares/Third_Party/LwIP/src/core/udp.c ****             if ((mpcb->local_port == dest) &&
 387:Middlewares/Third_Party/LwIP/src/core/udp.c ****                 (udp_input_local_match(mpcb, inp, broadcast) != 0)) {
 388:Middlewares/Third_Party/LwIP/src/core/udp.c ****               /* pass a copy of the packet to all local matches */
 389:Middlewares/Third_Party/LwIP/src/core/udp.c ****               if (mpcb->recv != NULL) {
 390:Middlewares/Third_Party/LwIP/src/core/udp.c ****                 struct pbuf *q;
 391:Middlewares/Third_Party/LwIP/src/core/udp.c ****                 q = pbuf_clone(PBUF_RAW, PBUF_POOL, p);
 392:Middlewares/Third_Party/LwIP/src/core/udp.c ****                 if (q != NULL) {
 393:Middlewares/Third_Party/LwIP/src/core/udp.c ****                   mpcb->recv(mpcb->recv_arg, mpcb, q, ip_current_src_addr(), src);
 394:Middlewares/Third_Party/LwIP/src/core/udp.c ****                 }
 395:Middlewares/Third_Party/LwIP/src/core/udp.c ****               }
 396:Middlewares/Third_Party/LwIP/src/core/udp.c ****             }
 397:Middlewares/Third_Party/LwIP/src/core/udp.c ****           }
 398:Middlewares/Third_Party/LwIP/src/core/udp.c ****         }
ARM GAS  /tmp/ccfwlTnO.s 			page 15


 399:Middlewares/Third_Party/LwIP/src/core/udp.c ****       }
 400:Middlewares/Third_Party/LwIP/src/core/udp.c **** #endif /* SO_REUSE && SO_REUSE_RXTOALL */
 401:Middlewares/Third_Party/LwIP/src/core/udp.c ****       /* callback */
 402:Middlewares/Third_Party/LwIP/src/core/udp.c ****       if (pcb->recv != NULL) {
 403:Middlewares/Third_Party/LwIP/src/core/udp.c ****         /* now the recv function is responsible for freeing p */
 404:Middlewares/Third_Party/LwIP/src/core/udp.c ****         pcb->recv(pcb->recv_arg, pcb, p, ip_current_src_addr(), src);
 405:Middlewares/Third_Party/LwIP/src/core/udp.c ****       } else {
 406:Middlewares/Third_Party/LwIP/src/core/udp.c ****         /* no recv function registered? then we have to free the pbuf! */
 407:Middlewares/Third_Party/LwIP/src/core/udp.c ****         pbuf_free(p);
 408:Middlewares/Third_Party/LwIP/src/core/udp.c ****         goto end;
 409:Middlewares/Third_Party/LwIP/src/core/udp.c ****       }
 410:Middlewares/Third_Party/LwIP/src/core/udp.c ****     } else {
 411:Middlewares/Third_Party/LwIP/src/core/udp.c ****       LWIP_DEBUGF(UDP_DEBUG | LWIP_DBG_TRACE, ("udp_input: not for us.\n"));
 412:Middlewares/Third_Party/LwIP/src/core/udp.c **** 
 413:Middlewares/Third_Party/LwIP/src/core/udp.c **** #if LWIP_ICMP || LWIP_ICMP6
 414:Middlewares/Third_Party/LwIP/src/core/udp.c ****       /* No match was found, send ICMP destination port unreachable unless
 415:Middlewares/Third_Party/LwIP/src/core/udp.c ****          destination address was broadcast/multicast. */
 416:Middlewares/Third_Party/LwIP/src/core/udp.c ****       if (!broadcast && !ip_addr_ismulticast(ip_current_dest_addr())) {
 417:Middlewares/Third_Party/LwIP/src/core/udp.c ****         /* move payload pointer back to ip header */
 418:Middlewares/Third_Party/LwIP/src/core/udp.c ****         pbuf_header_force(p, (s16_t)(ip_current_header_tot_len() + UDP_HLEN));
 419:Middlewares/Third_Party/LwIP/src/core/udp.c ****         icmp_port_unreach(ip_current_is_v6(), p);
 420:Middlewares/Third_Party/LwIP/src/core/udp.c ****       }
 421:Middlewares/Third_Party/LwIP/src/core/udp.c **** #endif /* LWIP_ICMP || LWIP_ICMP6 */
 422:Middlewares/Third_Party/LwIP/src/core/udp.c ****       UDP_STATS_INC(udp.proterr);
 423:Middlewares/Third_Party/LwIP/src/core/udp.c ****       UDP_STATS_INC(udp.drop);
 424:Middlewares/Third_Party/LwIP/src/core/udp.c ****       MIB2_STATS_INC(mib2.udpnoports);
 425:Middlewares/Third_Party/LwIP/src/core/udp.c ****       pbuf_free(p);
 426:Middlewares/Third_Party/LwIP/src/core/udp.c ****     }
 427:Middlewares/Third_Party/LwIP/src/core/udp.c ****   } else {
 428:Middlewares/Third_Party/LwIP/src/core/udp.c ****     pbuf_free(p);
 429:Middlewares/Third_Party/LwIP/src/core/udp.c ****   }
 430:Middlewares/Third_Party/LwIP/src/core/udp.c **** end:
 431:Middlewares/Third_Party/LwIP/src/core/udp.c ****   PERF_STOP("udp_input");
 432:Middlewares/Third_Party/LwIP/src/core/udp.c ****   return;
 433:Middlewares/Third_Party/LwIP/src/core/udp.c **** #if CHECKSUM_CHECK_UDP
 434:Middlewares/Third_Party/LwIP/src/core/udp.c **** chkerr:
 435:Middlewares/Third_Party/LwIP/src/core/udp.c ****   LWIP_DEBUGF(UDP_DEBUG | LWIP_DBG_LEVEL_SERIOUS,
 436:Middlewares/Third_Party/LwIP/src/core/udp.c ****               ("udp_input: UDP (or UDP Lite) datagram discarded due to failing checksum\n"));
 437:Middlewares/Third_Party/LwIP/src/core/udp.c ****   UDP_STATS_INC(udp.chkerr);
 438:Middlewares/Third_Party/LwIP/src/core/udp.c ****   UDP_STATS_INC(udp.drop);
 439:Middlewares/Third_Party/LwIP/src/core/udp.c ****   MIB2_STATS_INC(mib2.udpinerrors);
 440:Middlewares/Third_Party/LwIP/src/core/udp.c ****   pbuf_free(p);
 441:Middlewares/Third_Party/LwIP/src/core/udp.c ****   PERF_STOP("udp_input");
 442:Middlewares/Third_Party/LwIP/src/core/udp.c **** #endif /* CHECKSUM_CHECK_UDP */
 443:Middlewares/Third_Party/LwIP/src/core/udp.c **** }
 388              		.loc 1 443 0
 389 0064 03B0     		add	sp, sp, #12
 390              	.LCFI4:
 391              		.cfi_remember_state
 392              		.cfi_def_cfa_offset 36
 393              		@ sp needed
 394 0066 BDE8F08F 		pop	{r4, r5, r6, r7, r8, r9, r10, fp, pc}
 395              	.LVL47:
 396              	.L55:
 397              	.LCFI5:
 398              		.cfi_restore_state
 267:Middlewares/Third_Party/LwIP/src/core/udp.c **** #if LWIP_IPV4
ARM GAS  /tmp/ccfwlTnO.s 			page 16


 399              		.loc 1 267 0
 400 006a A246     		mov	r10, r4
 401              	.LVL48:
 402              	.L44:
 289:Middlewares/Third_Party/LwIP/src/core/udp.c ****           (ip_addr_isany_val(pcb->remote_ip) ||
 403              		.loc 1 289 0
 404 006c A38A     		ldrh	r3, [r4, #20]
 405 006e 9B45     		cmp	fp, r3
 406 0070 26D0     		beq	.L63
 407              	.L43:
 408              	.LVL49:
 306:Middlewares/Third_Party/LwIP/src/core/udp.c ****   }
 409              		.loc 1 306 0 discriminator 2
 410 0072 2546     		mov	r5, r4
 253:Middlewares/Third_Party/LwIP/src/core/udp.c ****     /* print the PCB local and remote address */
 411              		.loc 1 253 0 discriminator 2
 412 0074 E468     		ldr	r4, [r4, #12]
 413              	.LVL50:
 414              	.L42:
 253:Middlewares/Third_Party/LwIP/src/core/udp.c ****     /* print the PCB local and remote address */
 415              		.loc 1 253 0 is_stmt 0 discriminator 1
 416 0076 002C     		cmp	r4, #0
 417 0078 2FD0     		beq	.L46
 262:Middlewares/Third_Party/LwIP/src/core/udp.c ****         (udp_input_local_match(pcb, inp, broadcast) != 0)) {
 418              		.loc 1 262 0 is_stmt 1
 419 007a 638A     		ldrh	r3, [r4, #18]
 420 007c 9E42     		cmp	r6, r3
 421 007e F8D1     		bne	.L43
 263:Middlewares/Third_Party/LwIP/src/core/udp.c ****       if ((pcb->flags & UDP_FLAGS_CONNECTED) == 0) {
 422              		.loc 1 263 0 discriminator 1
 423 0080 4A46     		mov	r2, r9
 424 0082 3946     		mov	r1, r7
 425 0084 2046     		mov	r0, r4
 426 0086 FFF7FEFF 		bl	udp_input_local_match
 427              	.LVL51:
 262:Middlewares/Third_Party/LwIP/src/core/udp.c ****         (udp_input_local_match(pcb, inp, broadcast) != 0)) {
 428              		.loc 1 262 0 discriminator 1
 429 008a 0028     		cmp	r0, #0
 430 008c F1D0     		beq	.L43
 264:Middlewares/Third_Party/LwIP/src/core/udp.c ****         if (uncon_pcb == NULL) {
 431              		.loc 1 264 0
 432 008e 237C     		ldrb	r3, [r4, #16]	@ zero_extendqisi2
 433 0090 13F0040F 		tst	r3, #4
 434 0094 EAD1     		bne	.L44
 265:Middlewares/Third_Party/LwIP/src/core/udp.c ****           /* the first unconnected matching PCB */
 435              		.loc 1 265 0
 436 0096 BAF1000F 		cmp	r10, #0
 437 009a E6D0     		beq	.L55
 269:Middlewares/Third_Party/LwIP/src/core/udp.c ****           /* global broadcast address (only valid for IPv4; match was checked before) */
 438              		.loc 1 269 0
 439 009c B9F1000F 		cmp	r9, #0
 440 00a0 E4D0     		beq	.L44
 269:Middlewares/Third_Party/LwIP/src/core/udp.c ****           /* global broadcast address (only valid for IPv4; match was checked before) */
 441              		.loc 1 269 0 is_stmt 0 discriminator 1
 442 00a2 334B     		ldr	r3, .L67
 443 00a4 5B69     		ldr	r3, [r3, #20]
 444 00a6 B3F1FF3F 		cmp	r3, #-1
ARM GAS  /tmp/ccfwlTnO.s 			page 17


 445 00aa DFD1     		bne	.L44
 271:Middlewares/Third_Party/LwIP/src/core/udp.c ****             /* uncon_pcb does not match the input netif, check this pcb */
 446              		.loc 1 271 0 is_stmt 1
 447 00ac DAF80020 		ldr	r2, [r10]
 448 00b0 7B68     		ldr	r3, [r7, #4]
 449 00b2 9A42     		cmp	r2, r3
 450 00b4 DAD0     		beq	.L44
 273:Middlewares/Third_Party/LwIP/src/core/udp.c ****               /* better match */
 451              		.loc 1 273 0
 452 00b6 2268     		ldr	r2, [r4]
 453 00b8 9342     		cmp	r3, r2
 454 00ba D7D1     		bne	.L44
 275:Middlewares/Third_Party/LwIP/src/core/udp.c ****             }
 455              		.loc 1 275 0
 456 00bc A246     		mov	r10, r4
 457              	.LVL52:
 458 00be D5E7     		b	.L44
 459              	.LVL53:
 460              	.L63:
 290:Middlewares/Third_Party/LwIP/src/core/udp.c ****            ip_addr_cmp(&pcb->remote_ip, ip_current_src_addr()))) {
 461              		.loc 1 290 0 discriminator 1
 462 00c0 6368     		ldr	r3, [r4, #4]
 289:Middlewares/Third_Party/LwIP/src/core/udp.c ****           (ip_addr_isany_val(pcb->remote_ip) ||
 463              		.loc 1 289 0 discriminator 1
 464 00c2 1BB1     		cbz	r3, .L45
 291:Middlewares/Third_Party/LwIP/src/core/udp.c ****         /* the first fully matching PCB */
 465              		.loc 1 291 0
 466 00c4 2A4A     		ldr	r2, .L67
 467 00c6 1269     		ldr	r2, [r2, #16]
 290:Middlewares/Third_Party/LwIP/src/core/udp.c ****            ip_addr_cmp(&pcb->remote_ip, ip_current_src_addr()))) {
 468              		.loc 1 290 0
 469 00c8 9342     		cmp	r3, r2
 470 00ca D2D1     		bne	.L43
 471              	.L45:
 293:Middlewares/Third_Party/LwIP/src/core/udp.c ****           /* move the pcb to the front of udp_pcbs so that is
 472              		.loc 1 293 0
 473 00cc 2DB1     		cbz	r5, .L46
 296:Middlewares/Third_Party/LwIP/src/core/udp.c ****           pcb->next = udp_pcbs;
 474              		.loc 1 296 0
 475 00ce E368     		ldr	r3, [r4, #12]
 476 00d0 EB60     		str	r3, [r5, #12]
 297:Middlewares/Third_Party/LwIP/src/core/udp.c ****           udp_pcbs = pcb;
 477              		.loc 1 297 0
 478 00d2 284B     		ldr	r3, .L67+4
 479 00d4 1A68     		ldr	r2, [r3]
 480 00d6 E260     		str	r2, [r4, #12]
 298:Middlewares/Third_Party/LwIP/src/core/udp.c ****         } else {
 481              		.loc 1 298 0
 482 00d8 1C60     		str	r4, [r3]
 483              	.L46:
 309:Middlewares/Third_Party/LwIP/src/core/udp.c ****     pcb = uncon_pcb;
 484              		.loc 1 309 0
 485 00da 9CB1     		cbz	r4, .L64
 486              	.LVL54:
 487              	.L48:
 314:Middlewares/Third_Party/LwIP/src/core/udp.c ****     for_us = 1;
 488              		.loc 1 314 0
ARM GAS  /tmp/ccfwlTnO.s 			page 18


 489 00dc A4B1     		cbz	r4, .L65
 315:Middlewares/Third_Party/LwIP/src/core/udp.c ****   } else {
 490              		.loc 1 315 0
 491 00de 0123     		movs	r3, #1
 492              	.LVL55:
 493              	.L49:
 329:Middlewares/Third_Party/LwIP/src/core/udp.c ****     LWIP_DEBUGF(UDP_DEBUG | LWIP_DBG_TRACE, ("udp_input: calculating checksum\n"));
 494              		.loc 1 329 0
 495 00e0 002B     		cmp	r3, #0
 496 00e2 40D0     		beq	.L50
 366:Middlewares/Third_Party/LwIP/src/core/udp.c ****       /* Can we cope with this failing? Just assert for now */
 497              		.loc 1 366 0
 498 00e4 0821     		movs	r1, #8
 499 00e6 4046     		mov	r0, r8
 500 00e8 FFF7FEFF 		bl	pbuf_remove_header
 501              	.LVL56:
 502 00ec A0B9     		cbnz	r0, .L66
 375:Middlewares/Third_Party/LwIP/src/core/udp.c ****       MIB2_STATS_INC(mib2.udpindatagrams);
 503              		.loc 1 375 0
 504 00ee 14B3     		cbz	r4, .L52
 402:Middlewares/Third_Party/LwIP/src/core/udp.c ****         /* now the recv function is responsible for freeing p */
 505              		.loc 1 402 0
 506 00f0 A569     		ldr	r5, [r4, #24]
 507              	.LVL57:
 508 00f2 E5B1     		cbz	r5, .L53
 404:Middlewares/Third_Party/LwIP/src/core/udp.c ****       } else {
 509              		.loc 1 404 0
 510 00f4 E069     		ldr	r0, [r4, #28]
 511 00f6 CDF800B0 		str	fp, [sp]
 512 00fa 234B     		ldr	r3, .L67+24
 513 00fc 4246     		mov	r2, r8
 514 00fe 2146     		mov	r1, r4
 515 0100 A847     		blx	r5
 516              	.LVL58:
 517 0102 AFE7     		b	.L37
 518              	.LVL59:
 519              	.L64:
 310:Middlewares/Third_Party/LwIP/src/core/udp.c ****   }
 520              		.loc 1 310 0
 521 0104 5446     		mov	r4, r10
 522              	.LVL60:
 523 0106 E9E7     		b	.L48
 524              	.LVL61:
 525              	.L65:
 324:Middlewares/Third_Party/LwIP/src/core/udp.c ****     }
 526              		.loc 1 324 0
 527 0108 7B68     		ldr	r3, [r7, #4]
 528 010a 194A     		ldr	r2, .L67
 529 010c 5269     		ldr	r2, [r2, #20]
 530 010e 9342     		cmp	r3, r2
 531 0110 14BF     		ite	ne
 532 0112 0023     		movne	r3, #0
 533 0114 0123     		moveq	r3, #1
 534              	.LVL62:
 535 0116 E3E7     		b	.L49
 536              	.LVL63:
 537              	.L66:
ARM GAS  /tmp/ccfwlTnO.s 			page 19


 368:Middlewares/Third_Party/LwIP/src/core/udp.c ****       UDP_STATS_INC(udp.drop);
 538              		.loc 1 368 0 discriminator 1
 539 0118 174B     		ldr	r3, .L67+8
 540 011a 4FF4B872 		mov	r2, #368
 541 011e 1B49     		ldr	r1, .L67+28
 542 0120 1748     		ldr	r0, .L67+16
 543 0122 FFF7FEFF 		bl	printf
 544              	.LVL64:
 371:Middlewares/Third_Party/LwIP/src/core/udp.c ****       goto end;
 545              		.loc 1 371 0 discriminator 1
 546 0126 4046     		mov	r0, r8
 547 0128 FFF7FEFF 		bl	pbuf_free
 548              	.LVL65:
 372:Middlewares/Third_Party/LwIP/src/core/udp.c ****     }
 549              		.loc 1 372 0 discriminator 1
 550 012c 9AE7     		b	.L37
 551              	.LVL66:
 552              	.L53:
 407:Middlewares/Third_Party/LwIP/src/core/udp.c ****         goto end;
 553              		.loc 1 407 0
 554 012e 4046     		mov	r0, r8
 555 0130 FFF7FEFF 		bl	pbuf_free
 556              	.LVL67:
 408:Middlewares/Third_Party/LwIP/src/core/udp.c ****       }
 557              		.loc 1 408 0
 558 0134 96E7     		b	.L37
 559              	.LVL68:
 560              	.L52:
 416:Middlewares/Third_Party/LwIP/src/core/udp.c ****         /* move payload pointer back to ip header */
 561              		.loc 1 416 0
 562 0136 B9F1000F 		cmp	r9, #0
 563 013a 10D1     		bne	.L54
 416:Middlewares/Third_Party/LwIP/src/core/udp.c ****         /* move payload pointer back to ip header */
 564              		.loc 1 416 0 is_stmt 0 discriminator 1
 565 013c 0C4B     		ldr	r3, .L67
 566 013e 5B69     		ldr	r3, [r3, #20]
 567 0140 03F0F003 		and	r3, r3, #240
 568 0144 E02B     		cmp	r3, #224
 569 0146 0AD0     		beq	.L54
 418:Middlewares/Third_Party/LwIP/src/core/udp.c ****         icmp_port_unreach(ip_current_is_v6(), p);
 570              		.loc 1 418 0 is_stmt 1
 571 0148 094B     		ldr	r3, .L67
 572 014a 9989     		ldrh	r1, [r3, #12]
 573 014c 0831     		adds	r1, r1, #8
 574 014e 09B2     		sxth	r1, r1
 575 0150 4046     		mov	r0, r8
 576 0152 FFF7FEFF 		bl	pbuf_header_force
 577              	.LVL69:
 419:Middlewares/Third_Party/LwIP/src/core/udp.c ****       }
 578              		.loc 1 419 0
 579 0156 0321     		movs	r1, #3
 580 0158 4046     		mov	r0, r8
 581 015a FFF7FEFF 		bl	icmp_dest_unreach
 582              	.LVL70:
 583              	.L54:
 425:Middlewares/Third_Party/LwIP/src/core/udp.c ****     }
 584              		.loc 1 425 0
ARM GAS  /tmp/ccfwlTnO.s 			page 20


 585 015e 4046     		mov	r0, r8
 586 0160 FFF7FEFF 		bl	pbuf_free
 587              	.LVL71:
 588 0164 7EE7     		b	.L37
 589              	.LVL72:
 590              	.L50:
 428:Middlewares/Third_Party/LwIP/src/core/udp.c ****   }
 591              		.loc 1 428 0
 592 0166 4046     		mov	r0, r8
 593 0168 FFF7FEFF 		bl	pbuf_free
 594              	.LVL73:
 432:Middlewares/Third_Party/LwIP/src/core/udp.c **** #if CHECKSUM_CHECK_UDP
 595              		.loc 1 432 0
 596 016c 7AE7     		b	.L37
 597              	.L68:
 598 016e 00BF     		.align	2
 599              	.L67:
 600 0170 00000000 		.word	ip_data
 601 0174 00000000 		.word	udp_pcbs
 602 0178 00000000 		.word	.LC0
 603 017c 00000000 		.word	.LC4
 604 0180 50000000 		.word	.LC2
 605 0184 18000000 		.word	.LC5
 606 0188 10000000 		.word	ip_data+16
 607 018c 34000000 		.word	.LC6
 608              		.cfi_endproc
 609              	.LFE161:
 611              		.section	.text.udp_bind,"ax",%progbits
 612              		.align	1
 613              		.global	udp_bind
 614              		.syntax unified
 615              		.thumb
 616              		.thumb_func
 617              		.fpu fpv5-d16
 619              	udp_bind:
 620              	.LFB166:
 444:Middlewares/Third_Party/LwIP/src/core/udp.c **** 
 445:Middlewares/Third_Party/LwIP/src/core/udp.c **** /**
 446:Middlewares/Third_Party/LwIP/src/core/udp.c ****  * @ingroup udp_raw
 447:Middlewares/Third_Party/LwIP/src/core/udp.c ****  * Sends the pbuf p using UDP. The pbuf is not deallocated.
 448:Middlewares/Third_Party/LwIP/src/core/udp.c ****  *
 449:Middlewares/Third_Party/LwIP/src/core/udp.c ****  *
 450:Middlewares/Third_Party/LwIP/src/core/udp.c ****  * @param pcb UDP PCB used to send the data.
 451:Middlewares/Third_Party/LwIP/src/core/udp.c ****  * @param p chain of pbuf's to be sent.
 452:Middlewares/Third_Party/LwIP/src/core/udp.c ****  *
 453:Middlewares/Third_Party/LwIP/src/core/udp.c ****  * The datagram will be sent to the current remote_ip & remote_port
 454:Middlewares/Third_Party/LwIP/src/core/udp.c ****  * stored in pcb. If the pcb is not bound to a port, it will
 455:Middlewares/Third_Party/LwIP/src/core/udp.c ****  * automatically be bound to a random port.
 456:Middlewares/Third_Party/LwIP/src/core/udp.c ****  *
 457:Middlewares/Third_Party/LwIP/src/core/udp.c ****  * @return lwIP error code.
 458:Middlewares/Third_Party/LwIP/src/core/udp.c ****  * - ERR_OK. Successful. No error occurred.
 459:Middlewares/Third_Party/LwIP/src/core/udp.c ****  * - ERR_MEM. Out of memory.
 460:Middlewares/Third_Party/LwIP/src/core/udp.c ****  * - ERR_RTE. Could not find route to destination address.
 461:Middlewares/Third_Party/LwIP/src/core/udp.c ****  * - ERR_VAL. No PCB or PCB is dual-stack
 462:Middlewares/Third_Party/LwIP/src/core/udp.c ****  * - More errors could be returned by lower protocol layers.
 463:Middlewares/Third_Party/LwIP/src/core/udp.c ****  *
 464:Middlewares/Third_Party/LwIP/src/core/udp.c ****  * @see udp_disconnect() udp_sendto()
ARM GAS  /tmp/ccfwlTnO.s 			page 21


 465:Middlewares/Third_Party/LwIP/src/core/udp.c ****  */
 466:Middlewares/Third_Party/LwIP/src/core/udp.c **** err_t
 467:Middlewares/Third_Party/LwIP/src/core/udp.c **** udp_send(struct udp_pcb *pcb, struct pbuf *p)
 468:Middlewares/Third_Party/LwIP/src/core/udp.c **** {
 469:Middlewares/Third_Party/LwIP/src/core/udp.c ****   LWIP_ERROR("udp_send: invalid pcb", pcb != NULL, return ERR_ARG);
 470:Middlewares/Third_Party/LwIP/src/core/udp.c ****   LWIP_ERROR("udp_send: invalid pbuf", p != NULL, return ERR_ARG);
 471:Middlewares/Third_Party/LwIP/src/core/udp.c **** 
 472:Middlewares/Third_Party/LwIP/src/core/udp.c ****   if (IP_IS_ANY_TYPE_VAL(pcb->remote_ip)) {
 473:Middlewares/Third_Party/LwIP/src/core/udp.c ****     return ERR_VAL;
 474:Middlewares/Third_Party/LwIP/src/core/udp.c ****   }
 475:Middlewares/Third_Party/LwIP/src/core/udp.c **** 
 476:Middlewares/Third_Party/LwIP/src/core/udp.c ****   /* send to the packet using remote ip and port stored in the pcb */
 477:Middlewares/Third_Party/LwIP/src/core/udp.c ****   return udp_sendto(pcb, p, &pcb->remote_ip, pcb->remote_port);
 478:Middlewares/Third_Party/LwIP/src/core/udp.c **** }
 479:Middlewares/Third_Party/LwIP/src/core/udp.c **** 
 480:Middlewares/Third_Party/LwIP/src/core/udp.c **** #if LWIP_CHECKSUM_ON_COPY && CHECKSUM_GEN_UDP
 481:Middlewares/Third_Party/LwIP/src/core/udp.c **** /** @ingroup udp_raw
 482:Middlewares/Third_Party/LwIP/src/core/udp.c ****  * Same as udp_send() but with checksum
 483:Middlewares/Third_Party/LwIP/src/core/udp.c ****  */
 484:Middlewares/Third_Party/LwIP/src/core/udp.c **** err_t
 485:Middlewares/Third_Party/LwIP/src/core/udp.c **** udp_send_chksum(struct udp_pcb *pcb, struct pbuf *p,
 486:Middlewares/Third_Party/LwIP/src/core/udp.c ****                 u8_t have_chksum, u16_t chksum)
 487:Middlewares/Third_Party/LwIP/src/core/udp.c **** {
 488:Middlewares/Third_Party/LwIP/src/core/udp.c ****   LWIP_ERROR("udp_send_chksum: invalid pcb", pcb != NULL, return ERR_ARG);
 489:Middlewares/Third_Party/LwIP/src/core/udp.c ****   LWIP_ERROR("udp_send_chksum: invalid pbuf", p != NULL, return ERR_ARG);
 490:Middlewares/Third_Party/LwIP/src/core/udp.c **** 
 491:Middlewares/Third_Party/LwIP/src/core/udp.c ****   if (IP_IS_ANY_TYPE_VAL(pcb->remote_ip)) {
 492:Middlewares/Third_Party/LwIP/src/core/udp.c ****     return ERR_VAL;
 493:Middlewares/Third_Party/LwIP/src/core/udp.c ****   }
 494:Middlewares/Third_Party/LwIP/src/core/udp.c **** 
 495:Middlewares/Third_Party/LwIP/src/core/udp.c ****   /* send to the packet using remote ip and port stored in the pcb */
 496:Middlewares/Third_Party/LwIP/src/core/udp.c ****   return udp_sendto_chksum(pcb, p, &pcb->remote_ip, pcb->remote_port,
 497:Middlewares/Third_Party/LwIP/src/core/udp.c ****                            have_chksum, chksum);
 498:Middlewares/Third_Party/LwIP/src/core/udp.c **** }
 499:Middlewares/Third_Party/LwIP/src/core/udp.c **** #endif /* LWIP_CHECKSUM_ON_COPY && CHECKSUM_GEN_UDP */
 500:Middlewares/Third_Party/LwIP/src/core/udp.c **** 
 501:Middlewares/Third_Party/LwIP/src/core/udp.c **** /**
 502:Middlewares/Third_Party/LwIP/src/core/udp.c ****  * @ingroup udp_raw
 503:Middlewares/Third_Party/LwIP/src/core/udp.c ****  * Send data to a specified address using UDP.
 504:Middlewares/Third_Party/LwIP/src/core/udp.c ****  *
 505:Middlewares/Third_Party/LwIP/src/core/udp.c ****  * @param pcb UDP PCB used to send the data.
 506:Middlewares/Third_Party/LwIP/src/core/udp.c ****  * @param p chain of pbuf's to be sent.
 507:Middlewares/Third_Party/LwIP/src/core/udp.c ****  * @param dst_ip Destination IP address.
 508:Middlewares/Third_Party/LwIP/src/core/udp.c ****  * @param dst_port Destination UDP port.
 509:Middlewares/Third_Party/LwIP/src/core/udp.c ****  *
 510:Middlewares/Third_Party/LwIP/src/core/udp.c ****  * dst_ip & dst_port are expected to be in the same byte order as in the pcb.
 511:Middlewares/Third_Party/LwIP/src/core/udp.c ****  *
 512:Middlewares/Third_Party/LwIP/src/core/udp.c ****  * If the PCB already has a remote address association, it will
 513:Middlewares/Third_Party/LwIP/src/core/udp.c ****  * be restored after the data is sent.
 514:Middlewares/Third_Party/LwIP/src/core/udp.c ****  *
 515:Middlewares/Third_Party/LwIP/src/core/udp.c ****  * @return lwIP error code (@see udp_send for possible error codes)
 516:Middlewares/Third_Party/LwIP/src/core/udp.c ****  *
 517:Middlewares/Third_Party/LwIP/src/core/udp.c ****  * @see udp_disconnect() udp_send()
 518:Middlewares/Third_Party/LwIP/src/core/udp.c ****  */
 519:Middlewares/Third_Party/LwIP/src/core/udp.c **** err_t
 520:Middlewares/Third_Party/LwIP/src/core/udp.c **** udp_sendto(struct udp_pcb *pcb, struct pbuf *p,
 521:Middlewares/Third_Party/LwIP/src/core/udp.c ****            const ip_addr_t *dst_ip, u16_t dst_port)
ARM GAS  /tmp/ccfwlTnO.s 			page 22


 522:Middlewares/Third_Party/LwIP/src/core/udp.c **** {
 523:Middlewares/Third_Party/LwIP/src/core/udp.c **** #if LWIP_CHECKSUM_ON_COPY && CHECKSUM_GEN_UDP
 524:Middlewares/Third_Party/LwIP/src/core/udp.c ****   return udp_sendto_chksum(pcb, p, dst_ip, dst_port, 0, 0);
 525:Middlewares/Third_Party/LwIP/src/core/udp.c **** }
 526:Middlewares/Third_Party/LwIP/src/core/udp.c **** 
 527:Middlewares/Third_Party/LwIP/src/core/udp.c **** /** @ingroup udp_raw
 528:Middlewares/Third_Party/LwIP/src/core/udp.c ****  * Same as udp_sendto(), but with checksum */
 529:Middlewares/Third_Party/LwIP/src/core/udp.c **** err_t
 530:Middlewares/Third_Party/LwIP/src/core/udp.c **** udp_sendto_chksum(struct udp_pcb *pcb, struct pbuf *p, const ip_addr_t *dst_ip,
 531:Middlewares/Third_Party/LwIP/src/core/udp.c ****                   u16_t dst_port, u8_t have_chksum, u16_t chksum)
 532:Middlewares/Third_Party/LwIP/src/core/udp.c **** {
 533:Middlewares/Third_Party/LwIP/src/core/udp.c **** #endif /* LWIP_CHECKSUM_ON_COPY && CHECKSUM_GEN_UDP */
 534:Middlewares/Third_Party/LwIP/src/core/udp.c ****   struct netif *netif;
 535:Middlewares/Third_Party/LwIP/src/core/udp.c **** 
 536:Middlewares/Third_Party/LwIP/src/core/udp.c ****   LWIP_ERROR("udp_sendto: invalid pcb", pcb != NULL, return ERR_ARG);
 537:Middlewares/Third_Party/LwIP/src/core/udp.c ****   LWIP_ERROR("udp_sendto: invalid pbuf", p != NULL, return ERR_ARG);
 538:Middlewares/Third_Party/LwIP/src/core/udp.c ****   LWIP_ERROR("udp_sendto: invalid dst_ip", dst_ip != NULL, return ERR_ARG);
 539:Middlewares/Third_Party/LwIP/src/core/udp.c **** 
 540:Middlewares/Third_Party/LwIP/src/core/udp.c ****   if (!IP_ADDR_PCB_VERSION_MATCH(pcb, dst_ip)) {
 541:Middlewares/Third_Party/LwIP/src/core/udp.c ****     return ERR_VAL;
 542:Middlewares/Third_Party/LwIP/src/core/udp.c ****   }
 543:Middlewares/Third_Party/LwIP/src/core/udp.c **** 
 544:Middlewares/Third_Party/LwIP/src/core/udp.c ****   LWIP_DEBUGF(UDP_DEBUG | LWIP_DBG_TRACE, ("udp_send\n"));
 545:Middlewares/Third_Party/LwIP/src/core/udp.c **** 
 546:Middlewares/Third_Party/LwIP/src/core/udp.c ****   if (pcb->netif_idx != NETIF_NO_INDEX) {
 547:Middlewares/Third_Party/LwIP/src/core/udp.c ****     netif = netif_get_by_index(pcb->netif_idx);
 548:Middlewares/Third_Party/LwIP/src/core/udp.c ****   } else {
 549:Middlewares/Third_Party/LwIP/src/core/udp.c **** #if LWIP_MULTICAST_TX_OPTIONS
 550:Middlewares/Third_Party/LwIP/src/core/udp.c ****     netif = NULL;
 551:Middlewares/Third_Party/LwIP/src/core/udp.c ****     if (ip_addr_ismulticast(dst_ip)) {
 552:Middlewares/Third_Party/LwIP/src/core/udp.c ****       /* For IPv6, the interface to use for packets with a multicast destination
 553:Middlewares/Third_Party/LwIP/src/core/udp.c ****        * is specified using an interface index. The same approach may be used for
 554:Middlewares/Third_Party/LwIP/src/core/udp.c ****        * IPv4 as well, in which case it overrides the IPv4 multicast override
 555:Middlewares/Third_Party/LwIP/src/core/udp.c ****        * address below. Here we have to look up the netif by going through the
 556:Middlewares/Third_Party/LwIP/src/core/udp.c ****        * list, but by doing so we skip a route lookup. If the interface index has
 557:Middlewares/Third_Party/LwIP/src/core/udp.c ****        * gone stale, we fall through and do the regular route lookup after all. */
 558:Middlewares/Third_Party/LwIP/src/core/udp.c ****       if (pcb->mcast_ifindex != NETIF_NO_INDEX) {
 559:Middlewares/Third_Party/LwIP/src/core/udp.c ****         netif = netif_get_by_index(pcb->mcast_ifindex);
 560:Middlewares/Third_Party/LwIP/src/core/udp.c ****       }
 561:Middlewares/Third_Party/LwIP/src/core/udp.c **** #if LWIP_IPV4
 562:Middlewares/Third_Party/LwIP/src/core/udp.c ****       else
 563:Middlewares/Third_Party/LwIP/src/core/udp.c **** #if LWIP_IPV6
 564:Middlewares/Third_Party/LwIP/src/core/udp.c ****         if (IP_IS_V4(dst_ip))
 565:Middlewares/Third_Party/LwIP/src/core/udp.c **** #endif /* LWIP_IPV6 */
 566:Middlewares/Third_Party/LwIP/src/core/udp.c ****         {
 567:Middlewares/Third_Party/LwIP/src/core/udp.c ****           /* IPv4 does not use source-based routing by default, so we use an
 568:Middlewares/Third_Party/LwIP/src/core/udp.c ****              administratively selected interface for multicast by default.
 569:Middlewares/Third_Party/LwIP/src/core/udp.c ****              However, this can be overridden by setting an interface address
 570:Middlewares/Third_Party/LwIP/src/core/udp.c ****              in pcb->mcast_ip4 that is used for routing. If this routing lookup
 571:Middlewares/Third_Party/LwIP/src/core/udp.c ****              fails, we try regular routing as though no override was set. */
 572:Middlewares/Third_Party/LwIP/src/core/udp.c ****           if (!ip4_addr_isany_val(pcb->mcast_ip4) &&
 573:Middlewares/Third_Party/LwIP/src/core/udp.c ****               !ip4_addr_cmp(&pcb->mcast_ip4, IP4_ADDR_BROADCAST)) {
 574:Middlewares/Third_Party/LwIP/src/core/udp.c ****             netif = ip4_route_src(ip_2_ip4(&pcb->local_ip), &pcb->mcast_ip4);
 575:Middlewares/Third_Party/LwIP/src/core/udp.c ****           }
 576:Middlewares/Third_Party/LwIP/src/core/udp.c ****         }
 577:Middlewares/Third_Party/LwIP/src/core/udp.c **** #endif /* LWIP_IPV4 */
 578:Middlewares/Third_Party/LwIP/src/core/udp.c ****     }
ARM GAS  /tmp/ccfwlTnO.s 			page 23


 579:Middlewares/Third_Party/LwIP/src/core/udp.c **** 
 580:Middlewares/Third_Party/LwIP/src/core/udp.c ****     if (netif == NULL)
 581:Middlewares/Third_Party/LwIP/src/core/udp.c **** #endif /* LWIP_MULTICAST_TX_OPTIONS */
 582:Middlewares/Third_Party/LwIP/src/core/udp.c ****     {
 583:Middlewares/Third_Party/LwIP/src/core/udp.c ****       /* find the outgoing network interface for this packet */
 584:Middlewares/Third_Party/LwIP/src/core/udp.c ****       netif = ip_route(&pcb->local_ip, dst_ip);
 585:Middlewares/Third_Party/LwIP/src/core/udp.c ****     }
 586:Middlewares/Third_Party/LwIP/src/core/udp.c ****   }
 587:Middlewares/Third_Party/LwIP/src/core/udp.c **** 
 588:Middlewares/Third_Party/LwIP/src/core/udp.c ****   /* no outgoing network interface could be found? */
 589:Middlewares/Third_Party/LwIP/src/core/udp.c ****   if (netif == NULL) {
 590:Middlewares/Third_Party/LwIP/src/core/udp.c ****     LWIP_DEBUGF(UDP_DEBUG | LWIP_DBG_LEVEL_SERIOUS, ("udp_send: No route to "));
 591:Middlewares/Third_Party/LwIP/src/core/udp.c ****     ip_addr_debug_print(UDP_DEBUG | LWIP_DBG_LEVEL_SERIOUS, dst_ip);
 592:Middlewares/Third_Party/LwIP/src/core/udp.c ****     LWIP_DEBUGF(UDP_DEBUG, ("\n"));
 593:Middlewares/Third_Party/LwIP/src/core/udp.c ****     UDP_STATS_INC(udp.rterr);
 594:Middlewares/Third_Party/LwIP/src/core/udp.c ****     return ERR_RTE;
 595:Middlewares/Third_Party/LwIP/src/core/udp.c ****   }
 596:Middlewares/Third_Party/LwIP/src/core/udp.c **** #if LWIP_CHECKSUM_ON_COPY && CHECKSUM_GEN_UDP
 597:Middlewares/Third_Party/LwIP/src/core/udp.c ****   return udp_sendto_if_chksum(pcb, p, dst_ip, dst_port, netif, have_chksum, chksum);
 598:Middlewares/Third_Party/LwIP/src/core/udp.c **** #else /* LWIP_CHECKSUM_ON_COPY && CHECKSUM_GEN_UDP */
 599:Middlewares/Third_Party/LwIP/src/core/udp.c ****   return udp_sendto_if(pcb, p, dst_ip, dst_port, netif);
 600:Middlewares/Third_Party/LwIP/src/core/udp.c **** #endif /* LWIP_CHECKSUM_ON_COPY && CHECKSUM_GEN_UDP */
 601:Middlewares/Third_Party/LwIP/src/core/udp.c **** }
 602:Middlewares/Third_Party/LwIP/src/core/udp.c **** 
 603:Middlewares/Third_Party/LwIP/src/core/udp.c **** /**
 604:Middlewares/Third_Party/LwIP/src/core/udp.c ****  * @ingroup udp_raw
 605:Middlewares/Third_Party/LwIP/src/core/udp.c ****  * Send data to a specified address using UDP.
 606:Middlewares/Third_Party/LwIP/src/core/udp.c ****  * The netif used for sending can be specified.
 607:Middlewares/Third_Party/LwIP/src/core/udp.c ****  *
 608:Middlewares/Third_Party/LwIP/src/core/udp.c ****  * This function exists mainly for DHCP, to be able to send UDP packets
 609:Middlewares/Third_Party/LwIP/src/core/udp.c ****  * on a netif that is still down.
 610:Middlewares/Third_Party/LwIP/src/core/udp.c ****  *
 611:Middlewares/Third_Party/LwIP/src/core/udp.c ****  * @param pcb UDP PCB used to send the data.
 612:Middlewares/Third_Party/LwIP/src/core/udp.c ****  * @param p chain of pbuf's to be sent.
 613:Middlewares/Third_Party/LwIP/src/core/udp.c ****  * @param dst_ip Destination IP address.
 614:Middlewares/Third_Party/LwIP/src/core/udp.c ****  * @param dst_port Destination UDP port.
 615:Middlewares/Third_Party/LwIP/src/core/udp.c ****  * @param netif the netif used for sending.
 616:Middlewares/Third_Party/LwIP/src/core/udp.c ****  *
 617:Middlewares/Third_Party/LwIP/src/core/udp.c ****  * dst_ip & dst_port are expected to be in the same byte order as in the pcb.
 618:Middlewares/Third_Party/LwIP/src/core/udp.c ****  *
 619:Middlewares/Third_Party/LwIP/src/core/udp.c ****  * @return lwIP error code (@see udp_send for possible error codes)
 620:Middlewares/Third_Party/LwIP/src/core/udp.c ****  *
 621:Middlewares/Third_Party/LwIP/src/core/udp.c ****  * @see udp_disconnect() udp_send()
 622:Middlewares/Third_Party/LwIP/src/core/udp.c ****  */
 623:Middlewares/Third_Party/LwIP/src/core/udp.c **** err_t
 624:Middlewares/Third_Party/LwIP/src/core/udp.c **** udp_sendto_if(struct udp_pcb *pcb, struct pbuf *p,
 625:Middlewares/Third_Party/LwIP/src/core/udp.c ****               const ip_addr_t *dst_ip, u16_t dst_port, struct netif *netif)
 626:Middlewares/Third_Party/LwIP/src/core/udp.c **** {
 627:Middlewares/Third_Party/LwIP/src/core/udp.c **** #if LWIP_CHECKSUM_ON_COPY && CHECKSUM_GEN_UDP
 628:Middlewares/Third_Party/LwIP/src/core/udp.c ****   return udp_sendto_if_chksum(pcb, p, dst_ip, dst_port, netif, 0, 0);
 629:Middlewares/Third_Party/LwIP/src/core/udp.c **** }
 630:Middlewares/Third_Party/LwIP/src/core/udp.c **** 
 631:Middlewares/Third_Party/LwIP/src/core/udp.c **** /** Same as udp_sendto_if(), but with checksum */
 632:Middlewares/Third_Party/LwIP/src/core/udp.c **** err_t
 633:Middlewares/Third_Party/LwIP/src/core/udp.c **** udp_sendto_if_chksum(struct udp_pcb *pcb, struct pbuf *p, const ip_addr_t *dst_ip,
 634:Middlewares/Third_Party/LwIP/src/core/udp.c ****                      u16_t dst_port, struct netif *netif, u8_t have_chksum,
 635:Middlewares/Third_Party/LwIP/src/core/udp.c ****                      u16_t chksum)
ARM GAS  /tmp/ccfwlTnO.s 			page 24


 636:Middlewares/Third_Party/LwIP/src/core/udp.c **** {
 637:Middlewares/Third_Party/LwIP/src/core/udp.c **** #endif /* LWIP_CHECKSUM_ON_COPY && CHECKSUM_GEN_UDP */
 638:Middlewares/Third_Party/LwIP/src/core/udp.c ****   const ip_addr_t *src_ip;
 639:Middlewares/Third_Party/LwIP/src/core/udp.c **** 
 640:Middlewares/Third_Party/LwIP/src/core/udp.c ****   LWIP_ERROR("udp_sendto_if: invalid pcb", pcb != NULL, return ERR_ARG);
 641:Middlewares/Third_Party/LwIP/src/core/udp.c ****   LWIP_ERROR("udp_sendto_if: invalid pbuf", p != NULL, return ERR_ARG);
 642:Middlewares/Third_Party/LwIP/src/core/udp.c ****   LWIP_ERROR("udp_sendto_if: invalid dst_ip", dst_ip != NULL, return ERR_ARG);
 643:Middlewares/Third_Party/LwIP/src/core/udp.c ****   LWIP_ERROR("udp_sendto_if: invalid netif", netif != NULL, return ERR_ARG);
 644:Middlewares/Third_Party/LwIP/src/core/udp.c **** 
 645:Middlewares/Third_Party/LwIP/src/core/udp.c ****   if (!IP_ADDR_PCB_VERSION_MATCH(pcb, dst_ip)) {
 646:Middlewares/Third_Party/LwIP/src/core/udp.c ****     return ERR_VAL;
 647:Middlewares/Third_Party/LwIP/src/core/udp.c ****   }
 648:Middlewares/Third_Party/LwIP/src/core/udp.c **** 
 649:Middlewares/Third_Party/LwIP/src/core/udp.c ****   /* PCB local address is IP_ANY_ADDR or multicast? */
 650:Middlewares/Third_Party/LwIP/src/core/udp.c **** #if LWIP_IPV6
 651:Middlewares/Third_Party/LwIP/src/core/udp.c ****   if (IP_IS_V6(dst_ip)) {
 652:Middlewares/Third_Party/LwIP/src/core/udp.c ****     if (ip6_addr_isany(ip_2_ip6(&pcb->local_ip)) ||
 653:Middlewares/Third_Party/LwIP/src/core/udp.c ****         ip6_addr_ismulticast(ip_2_ip6(&pcb->local_ip))) {
 654:Middlewares/Third_Party/LwIP/src/core/udp.c ****       src_ip = ip6_select_source_address(netif, ip_2_ip6(dst_ip));
 655:Middlewares/Third_Party/LwIP/src/core/udp.c ****       if (src_ip == NULL) {
 656:Middlewares/Third_Party/LwIP/src/core/udp.c ****         /* No suitable source address was found. */
 657:Middlewares/Third_Party/LwIP/src/core/udp.c ****         return ERR_RTE;
 658:Middlewares/Third_Party/LwIP/src/core/udp.c ****       }
 659:Middlewares/Third_Party/LwIP/src/core/udp.c ****     } else {
 660:Middlewares/Third_Party/LwIP/src/core/udp.c ****       /* use UDP PCB local IPv6 address as source address, if still valid. */
 661:Middlewares/Third_Party/LwIP/src/core/udp.c ****       if (netif_get_ip6_addr_match(netif, ip_2_ip6(&pcb->local_ip)) < 0) {
 662:Middlewares/Third_Party/LwIP/src/core/udp.c ****         /* Address isn't valid anymore. */
 663:Middlewares/Third_Party/LwIP/src/core/udp.c ****         return ERR_RTE;
 664:Middlewares/Third_Party/LwIP/src/core/udp.c ****       }
 665:Middlewares/Third_Party/LwIP/src/core/udp.c ****       src_ip = &pcb->local_ip;
 666:Middlewares/Third_Party/LwIP/src/core/udp.c ****     }
 667:Middlewares/Third_Party/LwIP/src/core/udp.c ****   }
 668:Middlewares/Third_Party/LwIP/src/core/udp.c **** #endif /* LWIP_IPV6 */
 669:Middlewares/Third_Party/LwIP/src/core/udp.c **** #if LWIP_IPV4 && LWIP_IPV6
 670:Middlewares/Third_Party/LwIP/src/core/udp.c ****   else
 671:Middlewares/Third_Party/LwIP/src/core/udp.c **** #endif /* LWIP_IPV4 && LWIP_IPV6 */
 672:Middlewares/Third_Party/LwIP/src/core/udp.c **** #if LWIP_IPV4
 673:Middlewares/Third_Party/LwIP/src/core/udp.c ****     if (ip4_addr_isany(ip_2_ip4(&pcb->local_ip)) ||
 674:Middlewares/Third_Party/LwIP/src/core/udp.c ****         ip4_addr_ismulticast(ip_2_ip4(&pcb->local_ip))) {
 675:Middlewares/Third_Party/LwIP/src/core/udp.c ****       /* if the local_ip is any or multicast
 676:Middlewares/Third_Party/LwIP/src/core/udp.c ****        * use the outgoing network interface IP address as source address */
 677:Middlewares/Third_Party/LwIP/src/core/udp.c ****       src_ip = netif_ip_addr4(netif);
 678:Middlewares/Third_Party/LwIP/src/core/udp.c ****     } else {
 679:Middlewares/Third_Party/LwIP/src/core/udp.c ****       /* check if UDP PCB local IP address is correct
 680:Middlewares/Third_Party/LwIP/src/core/udp.c ****        * this could be an old address if netif->ip_addr has changed */
 681:Middlewares/Third_Party/LwIP/src/core/udp.c ****       if (!ip4_addr_cmp(ip_2_ip4(&(pcb->local_ip)), netif_ip4_addr(netif))) {
 682:Middlewares/Third_Party/LwIP/src/core/udp.c ****         /* local_ip doesn't match, drop the packet */
 683:Middlewares/Third_Party/LwIP/src/core/udp.c ****         return ERR_RTE;
 684:Middlewares/Third_Party/LwIP/src/core/udp.c ****       }
 685:Middlewares/Third_Party/LwIP/src/core/udp.c ****       /* use UDP PCB local IP address as source address */
 686:Middlewares/Third_Party/LwIP/src/core/udp.c ****       src_ip = &pcb->local_ip;
 687:Middlewares/Third_Party/LwIP/src/core/udp.c ****     }
 688:Middlewares/Third_Party/LwIP/src/core/udp.c **** #endif /* LWIP_IPV4 */
 689:Middlewares/Third_Party/LwIP/src/core/udp.c **** #if LWIP_CHECKSUM_ON_COPY && CHECKSUM_GEN_UDP
 690:Middlewares/Third_Party/LwIP/src/core/udp.c ****   return udp_sendto_if_src_chksum(pcb, p, dst_ip, dst_port, netif, have_chksum, chksum, src_ip);
 691:Middlewares/Third_Party/LwIP/src/core/udp.c **** #else /* LWIP_CHECKSUM_ON_COPY && CHECKSUM_GEN_UDP */
 692:Middlewares/Third_Party/LwIP/src/core/udp.c ****   return udp_sendto_if_src(pcb, p, dst_ip, dst_port, netif, src_ip);
ARM GAS  /tmp/ccfwlTnO.s 			page 25


 693:Middlewares/Third_Party/LwIP/src/core/udp.c **** #endif /* LWIP_CHECKSUM_ON_COPY && CHECKSUM_GEN_UDP */
 694:Middlewares/Third_Party/LwIP/src/core/udp.c **** }
 695:Middlewares/Third_Party/LwIP/src/core/udp.c **** 
 696:Middlewares/Third_Party/LwIP/src/core/udp.c **** /** @ingroup udp_raw
 697:Middlewares/Third_Party/LwIP/src/core/udp.c ****  * Same as @ref udp_sendto_if, but with source address */
 698:Middlewares/Third_Party/LwIP/src/core/udp.c **** err_t
 699:Middlewares/Third_Party/LwIP/src/core/udp.c **** udp_sendto_if_src(struct udp_pcb *pcb, struct pbuf *p,
 700:Middlewares/Third_Party/LwIP/src/core/udp.c ****                   const ip_addr_t *dst_ip, u16_t dst_port, struct netif *netif, const ip_addr_t *sr
 701:Middlewares/Third_Party/LwIP/src/core/udp.c **** {
 702:Middlewares/Third_Party/LwIP/src/core/udp.c **** #if LWIP_CHECKSUM_ON_COPY && CHECKSUM_GEN_UDP
 703:Middlewares/Third_Party/LwIP/src/core/udp.c ****   return udp_sendto_if_src_chksum(pcb, p, dst_ip, dst_port, netif, 0, 0, src_ip);
 704:Middlewares/Third_Party/LwIP/src/core/udp.c **** }
 705:Middlewares/Third_Party/LwIP/src/core/udp.c **** 
 706:Middlewares/Third_Party/LwIP/src/core/udp.c **** /** Same as udp_sendto_if_src(), but with checksum */
 707:Middlewares/Third_Party/LwIP/src/core/udp.c **** err_t
 708:Middlewares/Third_Party/LwIP/src/core/udp.c **** udp_sendto_if_src_chksum(struct udp_pcb *pcb, struct pbuf *p, const ip_addr_t *dst_ip,
 709:Middlewares/Third_Party/LwIP/src/core/udp.c ****                          u16_t dst_port, struct netif *netif, u8_t have_chksum,
 710:Middlewares/Third_Party/LwIP/src/core/udp.c ****                          u16_t chksum, const ip_addr_t *src_ip)
 711:Middlewares/Third_Party/LwIP/src/core/udp.c **** {
 712:Middlewares/Third_Party/LwIP/src/core/udp.c **** #endif /* LWIP_CHECKSUM_ON_COPY && CHECKSUM_GEN_UDP */
 713:Middlewares/Third_Party/LwIP/src/core/udp.c ****   struct udp_hdr *udphdr;
 714:Middlewares/Third_Party/LwIP/src/core/udp.c ****   err_t err;
 715:Middlewares/Third_Party/LwIP/src/core/udp.c ****   struct pbuf *q; /* q will be sent down the stack */
 716:Middlewares/Third_Party/LwIP/src/core/udp.c ****   u8_t ip_proto;
 717:Middlewares/Third_Party/LwIP/src/core/udp.c ****   u8_t ttl;
 718:Middlewares/Third_Party/LwIP/src/core/udp.c **** 
 719:Middlewares/Third_Party/LwIP/src/core/udp.c ****   LWIP_ASSERT_CORE_LOCKED();
 720:Middlewares/Third_Party/LwIP/src/core/udp.c **** 
 721:Middlewares/Third_Party/LwIP/src/core/udp.c ****   LWIP_ERROR("udp_sendto_if_src: invalid pcb", pcb != NULL, return ERR_ARG);
 722:Middlewares/Third_Party/LwIP/src/core/udp.c ****   LWIP_ERROR("udp_sendto_if_src: invalid pbuf", p != NULL, return ERR_ARG);
 723:Middlewares/Third_Party/LwIP/src/core/udp.c ****   LWIP_ERROR("udp_sendto_if_src: invalid dst_ip", dst_ip != NULL, return ERR_ARG);
 724:Middlewares/Third_Party/LwIP/src/core/udp.c ****   LWIP_ERROR("udp_sendto_if_src: invalid src_ip", src_ip != NULL, return ERR_ARG);
 725:Middlewares/Third_Party/LwIP/src/core/udp.c ****   LWIP_ERROR("udp_sendto_if_src: invalid netif", netif != NULL, return ERR_ARG);
 726:Middlewares/Third_Party/LwIP/src/core/udp.c **** 
 727:Middlewares/Third_Party/LwIP/src/core/udp.c ****   if (!IP_ADDR_PCB_VERSION_MATCH(pcb, src_ip) ||
 728:Middlewares/Third_Party/LwIP/src/core/udp.c ****       !IP_ADDR_PCB_VERSION_MATCH(pcb, dst_ip)) {
 729:Middlewares/Third_Party/LwIP/src/core/udp.c ****     return ERR_VAL;
 730:Middlewares/Third_Party/LwIP/src/core/udp.c ****   }
 731:Middlewares/Third_Party/LwIP/src/core/udp.c **** 
 732:Middlewares/Third_Party/LwIP/src/core/udp.c **** #if LWIP_IPV4 && IP_SOF_BROADCAST
 733:Middlewares/Third_Party/LwIP/src/core/udp.c ****   /* broadcast filter? */
 734:Middlewares/Third_Party/LwIP/src/core/udp.c ****   if (!ip_get_option(pcb, SOF_BROADCAST) &&
 735:Middlewares/Third_Party/LwIP/src/core/udp.c **** #if LWIP_IPV6
 736:Middlewares/Third_Party/LwIP/src/core/udp.c ****       IP_IS_V4(dst_ip) &&
 737:Middlewares/Third_Party/LwIP/src/core/udp.c **** #endif /* LWIP_IPV6 */
 738:Middlewares/Third_Party/LwIP/src/core/udp.c ****       ip_addr_isbroadcast(dst_ip, netif)) {
 739:Middlewares/Third_Party/LwIP/src/core/udp.c ****     LWIP_DEBUGF(UDP_DEBUG | LWIP_DBG_LEVEL_SERIOUS,
 740:Middlewares/Third_Party/LwIP/src/core/udp.c ****                 ("udp_sendto_if: SOF_BROADCAST not enabled on pcb %p\n", (void *)pcb));
 741:Middlewares/Third_Party/LwIP/src/core/udp.c ****     return ERR_VAL;
 742:Middlewares/Third_Party/LwIP/src/core/udp.c ****   }
 743:Middlewares/Third_Party/LwIP/src/core/udp.c **** #endif /* LWIP_IPV4 && IP_SOF_BROADCAST */
 744:Middlewares/Third_Party/LwIP/src/core/udp.c **** 
 745:Middlewares/Third_Party/LwIP/src/core/udp.c ****   /* if the PCB is not yet bound to a port, bind it here */
 746:Middlewares/Third_Party/LwIP/src/core/udp.c ****   if (pcb->local_port == 0) {
 747:Middlewares/Third_Party/LwIP/src/core/udp.c ****     LWIP_DEBUGF(UDP_DEBUG | LWIP_DBG_TRACE, ("udp_send: not yet bound to a port, binding now\n"));
 748:Middlewares/Third_Party/LwIP/src/core/udp.c ****     err = udp_bind(pcb, &pcb->local_ip, pcb->local_port);
 749:Middlewares/Third_Party/LwIP/src/core/udp.c ****     if (err != ERR_OK) {
ARM GAS  /tmp/ccfwlTnO.s 			page 26


 750:Middlewares/Third_Party/LwIP/src/core/udp.c ****       LWIP_DEBUGF(UDP_DEBUG | LWIP_DBG_TRACE | LWIP_DBG_LEVEL_SERIOUS, ("udp_send: forced port bind
 751:Middlewares/Third_Party/LwIP/src/core/udp.c ****       return err;
 752:Middlewares/Third_Party/LwIP/src/core/udp.c ****     }
 753:Middlewares/Third_Party/LwIP/src/core/udp.c ****   }
 754:Middlewares/Third_Party/LwIP/src/core/udp.c **** 
 755:Middlewares/Third_Party/LwIP/src/core/udp.c ****   /* packet too large to add a UDP header without causing an overflow? */
 756:Middlewares/Third_Party/LwIP/src/core/udp.c ****   if ((u16_t)(p->tot_len + UDP_HLEN) < p->tot_len) {
 757:Middlewares/Third_Party/LwIP/src/core/udp.c ****     return ERR_MEM;
 758:Middlewares/Third_Party/LwIP/src/core/udp.c ****   }
 759:Middlewares/Third_Party/LwIP/src/core/udp.c ****   /* not enough space to add an UDP header to first pbuf in given p chain? */
 760:Middlewares/Third_Party/LwIP/src/core/udp.c ****   if (pbuf_add_header(p, UDP_HLEN)) {
 761:Middlewares/Third_Party/LwIP/src/core/udp.c ****     /* allocate header in a separate new pbuf */
 762:Middlewares/Third_Party/LwIP/src/core/udp.c ****     q = pbuf_alloc(PBUF_IP, UDP_HLEN, PBUF_RAM);
 763:Middlewares/Third_Party/LwIP/src/core/udp.c ****     /* new header pbuf could not be allocated? */
 764:Middlewares/Third_Party/LwIP/src/core/udp.c ****     if (q == NULL) {
 765:Middlewares/Third_Party/LwIP/src/core/udp.c ****       LWIP_DEBUGF(UDP_DEBUG | LWIP_DBG_TRACE | LWIP_DBG_LEVEL_SERIOUS, ("udp_send: could not alloca
 766:Middlewares/Third_Party/LwIP/src/core/udp.c ****       return ERR_MEM;
 767:Middlewares/Third_Party/LwIP/src/core/udp.c ****     }
 768:Middlewares/Third_Party/LwIP/src/core/udp.c ****     if (p->tot_len != 0) {
 769:Middlewares/Third_Party/LwIP/src/core/udp.c ****       /* chain header q in front of given pbuf p (only if p contains data) */
 770:Middlewares/Third_Party/LwIP/src/core/udp.c ****       pbuf_chain(q, p);
 771:Middlewares/Third_Party/LwIP/src/core/udp.c ****     }
 772:Middlewares/Third_Party/LwIP/src/core/udp.c ****     /* first pbuf q points to header pbuf */
 773:Middlewares/Third_Party/LwIP/src/core/udp.c ****     LWIP_DEBUGF(UDP_DEBUG,
 774:Middlewares/Third_Party/LwIP/src/core/udp.c ****                 ("udp_send: added header pbuf %p before given pbuf %p\n", (void *)q, (void *)p));
 775:Middlewares/Third_Party/LwIP/src/core/udp.c ****   } else {
 776:Middlewares/Third_Party/LwIP/src/core/udp.c ****     /* adding space for header within p succeeded */
 777:Middlewares/Third_Party/LwIP/src/core/udp.c ****     /* first pbuf q equals given pbuf */
 778:Middlewares/Third_Party/LwIP/src/core/udp.c ****     q = p;
 779:Middlewares/Third_Party/LwIP/src/core/udp.c ****     LWIP_DEBUGF(UDP_DEBUG, ("udp_send: added header in given pbuf %p\n", (void *)p));
 780:Middlewares/Third_Party/LwIP/src/core/udp.c ****   }
 781:Middlewares/Third_Party/LwIP/src/core/udp.c ****   LWIP_ASSERT("check that first pbuf can hold struct udp_hdr",
 782:Middlewares/Third_Party/LwIP/src/core/udp.c ****               (q->len >= sizeof(struct udp_hdr)));
 783:Middlewares/Third_Party/LwIP/src/core/udp.c ****   /* q now represents the packet to be sent */
 784:Middlewares/Third_Party/LwIP/src/core/udp.c ****   udphdr = (struct udp_hdr *)q->payload;
 785:Middlewares/Third_Party/LwIP/src/core/udp.c ****   udphdr->src = lwip_htons(pcb->local_port);
 786:Middlewares/Third_Party/LwIP/src/core/udp.c ****   udphdr->dest = lwip_htons(dst_port);
 787:Middlewares/Third_Party/LwIP/src/core/udp.c ****   /* in UDP, 0 checksum means 'no checksum' */
 788:Middlewares/Third_Party/LwIP/src/core/udp.c ****   udphdr->chksum = 0x0000;
 789:Middlewares/Third_Party/LwIP/src/core/udp.c **** 
 790:Middlewares/Third_Party/LwIP/src/core/udp.c ****   /* Multicast Loop? */
 791:Middlewares/Third_Party/LwIP/src/core/udp.c **** #if LWIP_MULTICAST_TX_OPTIONS
 792:Middlewares/Third_Party/LwIP/src/core/udp.c ****   if (((pcb->flags & UDP_FLAGS_MULTICAST_LOOP) != 0) && ip_addr_ismulticast(dst_ip)) {
 793:Middlewares/Third_Party/LwIP/src/core/udp.c ****     q->flags |= PBUF_FLAG_MCASTLOOP;
 794:Middlewares/Third_Party/LwIP/src/core/udp.c ****   }
 795:Middlewares/Third_Party/LwIP/src/core/udp.c **** #endif /* LWIP_MULTICAST_TX_OPTIONS */
 796:Middlewares/Third_Party/LwIP/src/core/udp.c **** 
 797:Middlewares/Third_Party/LwIP/src/core/udp.c ****   LWIP_DEBUGF(UDP_DEBUG, ("udp_send: sending datagram of length %"U16_F"\n", q->tot_len));
 798:Middlewares/Third_Party/LwIP/src/core/udp.c **** 
 799:Middlewares/Third_Party/LwIP/src/core/udp.c **** #if LWIP_UDPLITE
 800:Middlewares/Third_Party/LwIP/src/core/udp.c ****   /* UDP Lite protocol? */
 801:Middlewares/Third_Party/LwIP/src/core/udp.c ****   if (pcb->flags & UDP_FLAGS_UDPLITE) {
 802:Middlewares/Third_Party/LwIP/src/core/udp.c ****     u16_t chklen, chklen_hdr;
 803:Middlewares/Third_Party/LwIP/src/core/udp.c ****     LWIP_DEBUGF(UDP_DEBUG, ("udp_send: UDP LITE packet length %"U16_F"\n", q->tot_len));
 804:Middlewares/Third_Party/LwIP/src/core/udp.c ****     /* set UDP message length in UDP header */
 805:Middlewares/Third_Party/LwIP/src/core/udp.c ****     chklen_hdr = chklen = pcb->chksum_len_tx;
 806:Middlewares/Third_Party/LwIP/src/core/udp.c ****     if ((chklen < sizeof(struct udp_hdr)) || (chklen > q->tot_len)) {
ARM GAS  /tmp/ccfwlTnO.s 			page 27


 807:Middlewares/Third_Party/LwIP/src/core/udp.c ****       if (chklen != 0) {
 808:Middlewares/Third_Party/LwIP/src/core/udp.c ****         LWIP_DEBUGF(UDP_DEBUG, ("udp_send: UDP LITE pcb->chksum_len is illegal: %"U16_F"\n", chklen
 809:Middlewares/Third_Party/LwIP/src/core/udp.c ****       }
 810:Middlewares/Third_Party/LwIP/src/core/udp.c ****       /* For UDP-Lite, checksum length of 0 means checksum
 811:Middlewares/Third_Party/LwIP/src/core/udp.c ****          over the complete packet. (See RFC 3828 chap. 3.1)
 812:Middlewares/Third_Party/LwIP/src/core/udp.c ****          At least the UDP-Lite header must be covered by the
 813:Middlewares/Third_Party/LwIP/src/core/udp.c ****          checksum, therefore, if chksum_len has an illegal
 814:Middlewares/Third_Party/LwIP/src/core/udp.c ****          value, we generate the checksum over the complete
 815:Middlewares/Third_Party/LwIP/src/core/udp.c ****          packet to be safe. */
 816:Middlewares/Third_Party/LwIP/src/core/udp.c ****       chklen_hdr = 0;
 817:Middlewares/Third_Party/LwIP/src/core/udp.c ****       chklen = q->tot_len;
 818:Middlewares/Third_Party/LwIP/src/core/udp.c ****     }
 819:Middlewares/Third_Party/LwIP/src/core/udp.c ****     udphdr->len = lwip_htons(chklen_hdr);
 820:Middlewares/Third_Party/LwIP/src/core/udp.c ****     /* calculate checksum */
 821:Middlewares/Third_Party/LwIP/src/core/udp.c **** #if CHECKSUM_GEN_UDP
 822:Middlewares/Third_Party/LwIP/src/core/udp.c ****     IF__NETIF_CHECKSUM_ENABLED(netif, NETIF_CHECKSUM_GEN_UDP) {
 823:Middlewares/Third_Party/LwIP/src/core/udp.c **** #if LWIP_CHECKSUM_ON_COPY
 824:Middlewares/Third_Party/LwIP/src/core/udp.c ****       if (have_chksum) {
 825:Middlewares/Third_Party/LwIP/src/core/udp.c ****         chklen = UDP_HLEN;
 826:Middlewares/Third_Party/LwIP/src/core/udp.c ****       }
 827:Middlewares/Third_Party/LwIP/src/core/udp.c **** #endif /* LWIP_CHECKSUM_ON_COPY */
 828:Middlewares/Third_Party/LwIP/src/core/udp.c ****       udphdr->chksum = ip_chksum_pseudo_partial(q, IP_PROTO_UDPLITE,
 829:Middlewares/Third_Party/LwIP/src/core/udp.c ****                        q->tot_len, chklen, src_ip, dst_ip);
 830:Middlewares/Third_Party/LwIP/src/core/udp.c **** #if LWIP_CHECKSUM_ON_COPY
 831:Middlewares/Third_Party/LwIP/src/core/udp.c ****       if (have_chksum) {
 832:Middlewares/Third_Party/LwIP/src/core/udp.c ****         u32_t acc;
 833:Middlewares/Third_Party/LwIP/src/core/udp.c ****         acc = udphdr->chksum + (u16_t)~(chksum);
 834:Middlewares/Third_Party/LwIP/src/core/udp.c ****         udphdr->chksum = FOLD_U32T(acc);
 835:Middlewares/Third_Party/LwIP/src/core/udp.c ****       }
 836:Middlewares/Third_Party/LwIP/src/core/udp.c **** #endif /* LWIP_CHECKSUM_ON_COPY */
 837:Middlewares/Third_Party/LwIP/src/core/udp.c **** 
 838:Middlewares/Third_Party/LwIP/src/core/udp.c ****       /* chksum zero must become 0xffff, as zero means 'no checksum' */
 839:Middlewares/Third_Party/LwIP/src/core/udp.c ****       if (udphdr->chksum == 0x0000) {
 840:Middlewares/Third_Party/LwIP/src/core/udp.c ****         udphdr->chksum = 0xffff;
 841:Middlewares/Third_Party/LwIP/src/core/udp.c ****       }
 842:Middlewares/Third_Party/LwIP/src/core/udp.c ****     }
 843:Middlewares/Third_Party/LwIP/src/core/udp.c **** #endif /* CHECKSUM_GEN_UDP */
 844:Middlewares/Third_Party/LwIP/src/core/udp.c **** 
 845:Middlewares/Third_Party/LwIP/src/core/udp.c ****     ip_proto = IP_PROTO_UDPLITE;
 846:Middlewares/Third_Party/LwIP/src/core/udp.c ****   } else
 847:Middlewares/Third_Party/LwIP/src/core/udp.c **** #endif /* LWIP_UDPLITE */
 848:Middlewares/Third_Party/LwIP/src/core/udp.c ****   {      /* UDP */
 849:Middlewares/Third_Party/LwIP/src/core/udp.c ****     LWIP_DEBUGF(UDP_DEBUG, ("udp_send: UDP packet length %"U16_F"\n", q->tot_len));
 850:Middlewares/Third_Party/LwIP/src/core/udp.c ****     udphdr->len = lwip_htons(q->tot_len);
 851:Middlewares/Third_Party/LwIP/src/core/udp.c ****     /* calculate checksum */
 852:Middlewares/Third_Party/LwIP/src/core/udp.c **** #if CHECKSUM_GEN_UDP
 853:Middlewares/Third_Party/LwIP/src/core/udp.c ****     IF__NETIF_CHECKSUM_ENABLED(netif, NETIF_CHECKSUM_GEN_UDP) {
 854:Middlewares/Third_Party/LwIP/src/core/udp.c ****       /* Checksum is mandatory over IPv6. */
 855:Middlewares/Third_Party/LwIP/src/core/udp.c ****       if (IP_IS_V6(dst_ip) || (pcb->flags & UDP_FLAGS_NOCHKSUM) == 0) {
 856:Middlewares/Third_Party/LwIP/src/core/udp.c ****         u16_t udpchksum;
 857:Middlewares/Third_Party/LwIP/src/core/udp.c **** #if LWIP_CHECKSUM_ON_COPY
 858:Middlewares/Third_Party/LwIP/src/core/udp.c ****         if (have_chksum) {
 859:Middlewares/Third_Party/LwIP/src/core/udp.c ****           u32_t acc;
 860:Middlewares/Third_Party/LwIP/src/core/udp.c ****           udpchksum = ip_chksum_pseudo_partial(q, IP_PROTO_UDP,
 861:Middlewares/Third_Party/LwIP/src/core/udp.c ****                                                q->tot_len, UDP_HLEN, src_ip, dst_ip);
 862:Middlewares/Third_Party/LwIP/src/core/udp.c ****           acc = udpchksum + (u16_t)~(chksum);
 863:Middlewares/Third_Party/LwIP/src/core/udp.c ****           udpchksum = FOLD_U32T(acc);
ARM GAS  /tmp/ccfwlTnO.s 			page 28


 864:Middlewares/Third_Party/LwIP/src/core/udp.c ****         } else
 865:Middlewares/Third_Party/LwIP/src/core/udp.c **** #endif /* LWIP_CHECKSUM_ON_COPY */
 866:Middlewares/Third_Party/LwIP/src/core/udp.c ****         {
 867:Middlewares/Third_Party/LwIP/src/core/udp.c ****           udpchksum = ip_chksum_pseudo(q, IP_PROTO_UDP, q->tot_len,
 868:Middlewares/Third_Party/LwIP/src/core/udp.c ****                                        src_ip, dst_ip);
 869:Middlewares/Third_Party/LwIP/src/core/udp.c ****         }
 870:Middlewares/Third_Party/LwIP/src/core/udp.c **** 
 871:Middlewares/Third_Party/LwIP/src/core/udp.c ****         /* chksum zero must become 0xffff, as zero means 'no checksum' */
 872:Middlewares/Third_Party/LwIP/src/core/udp.c ****         if (udpchksum == 0x0000) {
 873:Middlewares/Third_Party/LwIP/src/core/udp.c ****           udpchksum = 0xffff;
 874:Middlewares/Third_Party/LwIP/src/core/udp.c ****         }
 875:Middlewares/Third_Party/LwIP/src/core/udp.c ****         udphdr->chksum = udpchksum;
 876:Middlewares/Third_Party/LwIP/src/core/udp.c ****       }
 877:Middlewares/Third_Party/LwIP/src/core/udp.c ****     }
 878:Middlewares/Third_Party/LwIP/src/core/udp.c **** #endif /* CHECKSUM_GEN_UDP */
 879:Middlewares/Third_Party/LwIP/src/core/udp.c ****     ip_proto = IP_PROTO_UDP;
 880:Middlewares/Third_Party/LwIP/src/core/udp.c ****   }
 881:Middlewares/Third_Party/LwIP/src/core/udp.c **** 
 882:Middlewares/Third_Party/LwIP/src/core/udp.c ****   /* Determine TTL to use */
 883:Middlewares/Third_Party/LwIP/src/core/udp.c **** #if LWIP_MULTICAST_TX_OPTIONS
 884:Middlewares/Third_Party/LwIP/src/core/udp.c ****   ttl = (ip_addr_ismulticast(dst_ip) ? udp_get_multicast_ttl(pcb) : pcb->ttl);
 885:Middlewares/Third_Party/LwIP/src/core/udp.c **** #else /* LWIP_MULTICAST_TX_OPTIONS */
 886:Middlewares/Third_Party/LwIP/src/core/udp.c ****   ttl = pcb->ttl;
 887:Middlewares/Third_Party/LwIP/src/core/udp.c **** #endif /* LWIP_MULTICAST_TX_OPTIONS */
 888:Middlewares/Third_Party/LwIP/src/core/udp.c **** 
 889:Middlewares/Third_Party/LwIP/src/core/udp.c ****   LWIP_DEBUGF(UDP_DEBUG, ("udp_send: UDP checksum 0x%04"X16_F"\n", udphdr->chksum));
 890:Middlewares/Third_Party/LwIP/src/core/udp.c ****   LWIP_DEBUGF(UDP_DEBUG, ("udp_send: ip_output_if (,,,,0x%02"X16_F",)\n", (u16_t)ip_proto));
 891:Middlewares/Third_Party/LwIP/src/core/udp.c ****   /* output to IP */
 892:Middlewares/Third_Party/LwIP/src/core/udp.c ****   NETIF_SET_HINTS(netif, &(pcb->netif_hints));
 893:Middlewares/Third_Party/LwIP/src/core/udp.c ****   err = ip_output_if_src(q, src_ip, dst_ip, ttl, pcb->tos, ip_proto, netif);
 894:Middlewares/Third_Party/LwIP/src/core/udp.c ****   NETIF_RESET_HINTS(netif);
 895:Middlewares/Third_Party/LwIP/src/core/udp.c **** 
 896:Middlewares/Third_Party/LwIP/src/core/udp.c ****   /* @todo: must this be increased even if error occurred? */
 897:Middlewares/Third_Party/LwIP/src/core/udp.c ****   MIB2_STATS_INC(mib2.udpoutdatagrams);
 898:Middlewares/Third_Party/LwIP/src/core/udp.c **** 
 899:Middlewares/Third_Party/LwIP/src/core/udp.c ****   /* did we chain a separate header pbuf earlier? */
 900:Middlewares/Third_Party/LwIP/src/core/udp.c ****   if (q != p) {
 901:Middlewares/Third_Party/LwIP/src/core/udp.c ****     /* free the header pbuf */
 902:Middlewares/Third_Party/LwIP/src/core/udp.c ****     pbuf_free(q);
 903:Middlewares/Third_Party/LwIP/src/core/udp.c ****     q = NULL;
 904:Middlewares/Third_Party/LwIP/src/core/udp.c ****     /* p is still referenced by the caller, and will live on */
 905:Middlewares/Third_Party/LwIP/src/core/udp.c ****   }
 906:Middlewares/Third_Party/LwIP/src/core/udp.c **** 
 907:Middlewares/Third_Party/LwIP/src/core/udp.c ****   UDP_STATS_INC(udp.xmit);
 908:Middlewares/Third_Party/LwIP/src/core/udp.c ****   return err;
 909:Middlewares/Third_Party/LwIP/src/core/udp.c **** }
 910:Middlewares/Third_Party/LwIP/src/core/udp.c **** 
 911:Middlewares/Third_Party/LwIP/src/core/udp.c **** /**
 912:Middlewares/Third_Party/LwIP/src/core/udp.c ****  * @ingroup udp_raw
 913:Middlewares/Third_Party/LwIP/src/core/udp.c ****  * Bind an UDP PCB.
 914:Middlewares/Third_Party/LwIP/src/core/udp.c ****  * 
 915:Middlewares/Third_Party/LwIP/src/core/udp.c ****  * @param pcb UDP PCB to be bound with a local address ipaddr and port.
 916:Middlewares/Third_Party/LwIP/src/core/udp.c ****  * @param ipaddr local IP address to bind with. Use IP_ANY_TYPE to
 917:Middlewares/Third_Party/LwIP/src/core/udp.c ****  * bind to all local interfaces.
 918:Middlewares/Third_Party/LwIP/src/core/udp.c ****  * @param port local UDP port to bind with. Use 0 to automatically bind
 919:Middlewares/Third_Party/LwIP/src/core/udp.c ****  * to a random port between UDP_LOCAL_PORT_RANGE_START and
 920:Middlewares/Third_Party/LwIP/src/core/udp.c ****  * UDP_LOCAL_PORT_RANGE_END.
ARM GAS  /tmp/ccfwlTnO.s 			page 29


 921:Middlewares/Third_Party/LwIP/src/core/udp.c ****  *
 922:Middlewares/Third_Party/LwIP/src/core/udp.c ****  * ipaddr & port are expected to be in the same byte order as in the pcb.
 923:Middlewares/Third_Party/LwIP/src/core/udp.c ****  *
 924:Middlewares/Third_Party/LwIP/src/core/udp.c ****  * @return lwIP error code.
 925:Middlewares/Third_Party/LwIP/src/core/udp.c ****  * - ERR_OK. Successful. No error occurred.
 926:Middlewares/Third_Party/LwIP/src/core/udp.c ****  * - ERR_USE. The specified ipaddr and port are already bound to by
 927:Middlewares/Third_Party/LwIP/src/core/udp.c ****  * another UDP PCB.
 928:Middlewares/Third_Party/LwIP/src/core/udp.c ****  *
 929:Middlewares/Third_Party/LwIP/src/core/udp.c ****  * @see udp_disconnect()
 930:Middlewares/Third_Party/LwIP/src/core/udp.c ****  */
 931:Middlewares/Third_Party/LwIP/src/core/udp.c **** err_t
 932:Middlewares/Third_Party/LwIP/src/core/udp.c **** udp_bind(struct udp_pcb *pcb, const ip_addr_t *ipaddr, u16_t port)
 933:Middlewares/Third_Party/LwIP/src/core/udp.c **** {
 621              		.loc 1 933 0
 622              		.cfi_startproc
 623              		@ args = 0, pretend = 0, frame = 0
 624              		@ frame_needed = 0, uses_anonymous_args = 0
 625              	.LVL74:
 626 0000 70B5     		push	{r4, r5, r6, lr}
 627              	.LCFI6:
 628              		.cfi_def_cfa_offset 16
 629              		.cfi_offset 4, -16
 630              		.cfi_offset 5, -12
 631              		.cfi_offset 6, -8
 632              		.cfi_offset 14, -4
 633 0002 0446     		mov	r4, r0
 934:Middlewares/Third_Party/LwIP/src/core/udp.c ****   struct udp_pcb *ipcb;
 935:Middlewares/Third_Party/LwIP/src/core/udp.c ****   u8_t rebind;
 936:Middlewares/Third_Party/LwIP/src/core/udp.c **** #if LWIP_IPV6 && LWIP_IPV6_SCOPES
 937:Middlewares/Third_Party/LwIP/src/core/udp.c ****   ip_addr_t zoned_ipaddr;
 938:Middlewares/Third_Party/LwIP/src/core/udp.c **** #endif /* LWIP_IPV6 && LWIP_IPV6_SCOPES */
 939:Middlewares/Third_Party/LwIP/src/core/udp.c **** 
 940:Middlewares/Third_Party/LwIP/src/core/udp.c ****   LWIP_ASSERT_CORE_LOCKED();
 941:Middlewares/Third_Party/LwIP/src/core/udp.c **** 
 942:Middlewares/Third_Party/LwIP/src/core/udp.c **** #if LWIP_IPV4
 943:Middlewares/Third_Party/LwIP/src/core/udp.c ****   /* Don't propagate NULL pointer (IPv4 ANY) to subsequent functions */
 944:Middlewares/Third_Party/LwIP/src/core/udp.c ****   if (ipaddr == NULL) {
 634              		.loc 1 944 0
 635 0004 0D46     		mov	r5, r1
 636 0006 41B1     		cbz	r1, .L92
 637              	.L70:
 638              	.LVL75:
 945:Middlewares/Third_Party/LwIP/src/core/udp.c ****     ipaddr = IP4_ADDR_ANY;
 946:Middlewares/Third_Party/LwIP/src/core/udp.c ****   }
 947:Middlewares/Third_Party/LwIP/src/core/udp.c **** #else /* LWIP_IPV4 */
 948:Middlewares/Third_Party/LwIP/src/core/udp.c ****   LWIP_ERROR("udp_bind: invalid ipaddr", ipaddr != NULL, return ERR_ARG);
 949:Middlewares/Third_Party/LwIP/src/core/udp.c **** #endif /* LWIP_IPV4 */
 950:Middlewares/Third_Party/LwIP/src/core/udp.c **** 
 951:Middlewares/Third_Party/LwIP/src/core/udp.c ****   LWIP_ERROR("udp_bind: invalid pcb", pcb != NULL, return ERR_ARG);
 639              		.loc 1 951 0
 640 0008 4CB1     		cbz	r4, .L93
 641              	.LVL76:
 952:Middlewares/Third_Party/LwIP/src/core/udp.c **** 
 953:Middlewares/Third_Party/LwIP/src/core/udp.c ****   LWIP_DEBUGF(UDP_DEBUG | LWIP_DBG_TRACE, ("udp_bind(ipaddr = "));
 954:Middlewares/Third_Party/LwIP/src/core/udp.c ****   ip_addr_debug_print(UDP_DEBUG | LWIP_DBG_TRACE, ipaddr);
 955:Middlewares/Third_Party/LwIP/src/core/udp.c ****   LWIP_DEBUGF(UDP_DEBUG | LWIP_DBG_TRACE, (", port = %"U16_F")\n", port));
 956:Middlewares/Third_Party/LwIP/src/core/udp.c **** 
ARM GAS  /tmp/ccfwlTnO.s 			page 30


 957:Middlewares/Third_Party/LwIP/src/core/udp.c ****   rebind = 0;
 958:Middlewares/Third_Party/LwIP/src/core/udp.c ****   /* Check for double bind and rebind of the same pcb */
 959:Middlewares/Third_Party/LwIP/src/core/udp.c ****   for (ipcb = udp_pcbs; ipcb != NULL; ipcb = ipcb->next) {
 642              		.loc 1 959 0
 643 000a 274B     		ldr	r3, .L96
 644 000c 1B68     		ldr	r3, [r3]
 645              	.LVL77:
 646 000e 1946     		mov	r1, r3
 647              	.LVL78:
 648              	.L73:
 649              		.loc 1 959 0 is_stmt 0 discriminator 1
 650 0010 79B1     		cbz	r1, .L94
 960:Middlewares/Third_Party/LwIP/src/core/udp.c ****     /* is this UDP PCB already on active list? */
 961:Middlewares/Third_Party/LwIP/src/core/udp.c ****     if (pcb == ipcb) {
 651              		.loc 1 961 0 is_stmt 1
 652 0012 A142     		cmp	r1, r4
 653 0014 1ED0     		beq	.L82
 959:Middlewares/Third_Party/LwIP/src/core/udp.c ****     /* is this UDP PCB already on active list? */
 654              		.loc 1 959 0 discriminator 2
 655 0016 C968     		ldr	r1, [r1, #12]
 656              	.LVL79:
 657 0018 FAE7     		b	.L73
 658              	.LVL80:
 659              	.L92:
 945:Middlewares/Third_Party/LwIP/src/core/udp.c ****   }
 660              		.loc 1 945 0
 661 001a 244D     		ldr	r5, .L96+4
 662 001c F4E7     		b	.L70
 663              	.LVL81:
 664              	.L93:
 951:Middlewares/Third_Party/LwIP/src/core/udp.c **** 
 665              		.loc 1 951 0 discriminator 1
 666 001e 244B     		ldr	r3, .L96+8
 667 0020 40F2B732 		movw	r2, #951
 668              	.LVL82:
 669 0024 2349     		ldr	r1, .L96+12
 670 0026 2448     		ldr	r0, .L96+16
 671              	.LVL83:
 672 0028 FFF7FEFF 		bl	printf
 673              	.LVL84:
 674 002c 6FF00F00 		mvn	r0, #15
 675 0030 70BD     		pop	{r4, r5, r6, pc}
 676              	.LVL85:
 677              	.L94:
 957:Middlewares/Third_Party/LwIP/src/core/udp.c ****   /* Check for double bind and rebind of the same pcb */
 678              		.loc 1 957 0
 679 0032 0026     		movs	r6, #0
 680              	.L74:
 681              	.LVL86:
 962:Middlewares/Third_Party/LwIP/src/core/udp.c ****       rebind = 1;
 963:Middlewares/Third_Party/LwIP/src/core/udp.c ****       break;
 964:Middlewares/Third_Party/LwIP/src/core/udp.c ****     }
 965:Middlewares/Third_Party/LwIP/src/core/udp.c ****   }
 966:Middlewares/Third_Party/LwIP/src/core/udp.c **** 
 967:Middlewares/Third_Party/LwIP/src/core/udp.c **** #if LWIP_IPV6 && LWIP_IPV6_SCOPES
 968:Middlewares/Third_Party/LwIP/src/core/udp.c ****   /* If the given IP address should have a zone but doesn't, assign one now.
 969:Middlewares/Third_Party/LwIP/src/core/udp.c ****    * This is legacy support: scope-aware callers should always provide properly
ARM GAS  /tmp/ccfwlTnO.s 			page 31


 970:Middlewares/Third_Party/LwIP/src/core/udp.c ****    * zoned source addresses. Do the zone selection before the address-in-use
 971:Middlewares/Third_Party/LwIP/src/core/udp.c ****    * check below; as such we have to make a temporary copy of the address. */
 972:Middlewares/Third_Party/LwIP/src/core/udp.c ****   if (IP_IS_V6(ipaddr) && ip6_addr_lacks_zone(ip_2_ip6(ipaddr), IP6_UNKNOWN)) {
 973:Middlewares/Third_Party/LwIP/src/core/udp.c ****     ip_addr_copy(zoned_ipaddr, *ipaddr);
 974:Middlewares/Third_Party/LwIP/src/core/udp.c ****     ip6_addr_select_zone(ip_2_ip6(&zoned_ipaddr), ip_2_ip6(&zoned_ipaddr));
 975:Middlewares/Third_Party/LwIP/src/core/udp.c ****     ipaddr = &zoned_ipaddr;
 976:Middlewares/Third_Party/LwIP/src/core/udp.c ****   }
 977:Middlewares/Third_Party/LwIP/src/core/udp.c **** #endif /* LWIP_IPV6 && LWIP_IPV6_SCOPES */
 978:Middlewares/Third_Party/LwIP/src/core/udp.c **** 
 979:Middlewares/Third_Party/LwIP/src/core/udp.c ****   /* no port specified? */
 980:Middlewares/Third_Party/LwIP/src/core/udp.c ****   if (port == 0) {
 682              		.loc 1 980 0
 683 0034 8AB9     		cbnz	r2, .L76
 981:Middlewares/Third_Party/LwIP/src/core/udp.c ****     port = udp_new_port();
 684              		.loc 1 981 0
 685 0036 FFF7FEFF 		bl	udp_new_port
 686              	.LVL87:
 982:Middlewares/Third_Party/LwIP/src/core/udp.c ****     if (port == 0) {
 687              		.loc 1 982 0
 688 003a 0246     		mov	r2, r0
 689 003c 10B3     		cbz	r0, .L95
 690              	.LVL88:
 691              	.L77:
 983:Middlewares/Third_Party/LwIP/src/core/udp.c ****       /* no more ports available in local range */
 984:Middlewares/Third_Party/LwIP/src/core/udp.c ****       LWIP_DEBUGF(UDP_DEBUG, ("udp_bind: out of free UDP ports\n"));
 985:Middlewares/Third_Party/LwIP/src/core/udp.c ****       return ERR_USE;
 986:Middlewares/Third_Party/LwIP/src/core/udp.c ****     }
 987:Middlewares/Third_Party/LwIP/src/core/udp.c ****   } else {
 988:Middlewares/Third_Party/LwIP/src/core/udp.c ****     for (ipcb = udp_pcbs; ipcb != NULL; ipcb = ipcb->next) {
 989:Middlewares/Third_Party/LwIP/src/core/udp.c ****       if (pcb != ipcb) {
 990:Middlewares/Third_Party/LwIP/src/core/udp.c ****         /* By default, we don't allow to bind to a port that any other udp
 991:Middlewares/Third_Party/LwIP/src/core/udp.c ****            PCB is already bound to, unless *all* PCBs with that port have tha
 992:Middlewares/Third_Party/LwIP/src/core/udp.c ****            REUSEADDR flag set. */
 993:Middlewares/Third_Party/LwIP/src/core/udp.c **** #if SO_REUSE
 994:Middlewares/Third_Party/LwIP/src/core/udp.c ****         if (!ip_get_option(pcb, SOF_REUSEADDR) ||
 995:Middlewares/Third_Party/LwIP/src/core/udp.c ****             !ip_get_option(ipcb, SOF_REUSEADDR))
 996:Middlewares/Third_Party/LwIP/src/core/udp.c **** #endif /* SO_REUSE */
 997:Middlewares/Third_Party/LwIP/src/core/udp.c ****         {
 998:Middlewares/Third_Party/LwIP/src/core/udp.c ****           /* port matches that of PCB in list and REUSEADDR not set -> reject */
 999:Middlewares/Third_Party/LwIP/src/core/udp.c ****           if ((ipcb->local_port == port) &&
1000:Middlewares/Third_Party/LwIP/src/core/udp.c ****               /* IP address matches or any IP used? */
1001:Middlewares/Third_Party/LwIP/src/core/udp.c ****               (ip_addr_cmp(&ipcb->local_ip, ipaddr) || ip_addr_isany(ipaddr) ||
1002:Middlewares/Third_Party/LwIP/src/core/udp.c ****               ip_addr_isany(&ipcb->local_ip))) {
1003:Middlewares/Third_Party/LwIP/src/core/udp.c ****             /* other PCB already binds to this local IP and port */
1004:Middlewares/Third_Party/LwIP/src/core/udp.c ****             LWIP_DEBUGF(UDP_DEBUG,
1005:Middlewares/Third_Party/LwIP/src/core/udp.c ****                         ("udp_bind: local port %"U16_F" already bound by another pcb\n", port));
1006:Middlewares/Third_Party/LwIP/src/core/udp.c ****             return ERR_USE;
1007:Middlewares/Third_Party/LwIP/src/core/udp.c ****           }
1008:Middlewares/Third_Party/LwIP/src/core/udp.c ****         }
1009:Middlewares/Third_Party/LwIP/src/core/udp.c ****       }
1010:Middlewares/Third_Party/LwIP/src/core/udp.c ****     }
1011:Middlewares/Third_Party/LwIP/src/core/udp.c ****   }
1012:Middlewares/Third_Party/LwIP/src/core/udp.c **** 
1013:Middlewares/Third_Party/LwIP/src/core/udp.c ****   ip_addr_set_ipaddr(&pcb->local_ip, ipaddr);
 692              		.loc 1 1013 0
 693 003e FDB1     		cbz	r5, .L89
 694              		.loc 1 1013 0 is_stmt 0 discriminator 1
ARM GAS  /tmp/ccfwlTnO.s 			page 32


 695 0040 2B68     		ldr	r3, [r5]
 696              	.L80:
 697              		.loc 1 1013 0 discriminator 4
 698 0042 2360     		str	r3, [r4]
1014:Middlewares/Third_Party/LwIP/src/core/udp.c **** 
1015:Middlewares/Third_Party/LwIP/src/core/udp.c ****   pcb->local_port = port;
 699              		.loc 1 1015 0 is_stmt 1 discriminator 4
 700 0044 6282     		strh	r2, [r4, #18]	@ movhi
1016:Middlewares/Third_Party/LwIP/src/core/udp.c ****   mib2_udp_bind(pcb);
1017:Middlewares/Third_Party/LwIP/src/core/udp.c ****   /* pcb not active yet? */
1018:Middlewares/Third_Party/LwIP/src/core/udp.c ****   if (rebind == 0) {
 701              		.loc 1 1018 0 discriminator 4
 702 0046 66BB     		cbnz	r6, .L90
1019:Middlewares/Third_Party/LwIP/src/core/udp.c ****     /* place the PCB on the active list if not already there */
1020:Middlewares/Third_Party/LwIP/src/core/udp.c ****     pcb->next = udp_pcbs;
 703              		.loc 1 1020 0
 704 0048 174B     		ldr	r3, .L96
 705 004a 1A68     		ldr	r2, [r3]
 706              	.LVL89:
 707 004c E260     		str	r2, [r4, #12]
1021:Middlewares/Third_Party/LwIP/src/core/udp.c ****     udp_pcbs = pcb;
 708              		.loc 1 1021 0
 709 004e 1C60     		str	r4, [r3]
1022:Middlewares/Third_Party/LwIP/src/core/udp.c ****   }
1023:Middlewares/Third_Party/LwIP/src/core/udp.c ****   LWIP_DEBUGF(UDP_DEBUG | LWIP_DBG_TRACE | LWIP_DBG_STATE, ("udp_bind: bound to "));
1024:Middlewares/Third_Party/LwIP/src/core/udp.c ****   ip_addr_debug_print_val(UDP_DEBUG | LWIP_DBG_TRACE | LWIP_DBG_STATE, pcb->local_ip);
1025:Middlewares/Third_Party/LwIP/src/core/udp.c ****   LWIP_DEBUGF(UDP_DEBUG | LWIP_DBG_TRACE | LWIP_DBG_STATE, (", port %"U16_F")\n", pcb->local_port))
1026:Middlewares/Third_Party/LwIP/src/core/udp.c ****   return ERR_OK;
 710              		.loc 1 1026 0
 711 0050 0020     		movs	r0, #0
 712 0052 70BD     		pop	{r4, r5, r6, pc}
 713              	.LVL90:
 714              	.L82:
 962:Middlewares/Third_Party/LwIP/src/core/udp.c ****       break;
 715              		.loc 1 962 0
 716 0054 0126     		movs	r6, #1
 717 0056 EDE7     		b	.L74
 718              	.LVL91:
 719              	.L78:
 988:Middlewares/Third_Party/LwIP/src/core/udp.c ****       if (pcb != ipcb) {
 720              		.loc 1 988 0 discriminator 2
 721 0058 DB68     		ldr	r3, [r3, #12]
 722              	.LVL92:
 723              	.L76:
 988:Middlewares/Third_Party/LwIP/src/core/udp.c ****       if (pcb != ipcb) {
 724              		.loc 1 988 0 is_stmt 0 discriminator 1
 725 005a 002B     		cmp	r3, #0
 726 005c EFD0     		beq	.L77
 989:Middlewares/Third_Party/LwIP/src/core/udp.c ****         /* By default, we don't allow to bind to a port that any other udp
 727              		.loc 1 989 0 is_stmt 1
 728 005e A342     		cmp	r3, r4
 729 0060 FAD0     		beq	.L78
 999:Middlewares/Third_Party/LwIP/src/core/udp.c ****               /* IP address matches or any IP used? */
 730              		.loc 1 999 0
 731 0062 598A     		ldrh	r1, [r3, #18]
 732 0064 8A42     		cmp	r2, r1
 733 0066 F7D1     		bne	.L78
ARM GAS  /tmp/ccfwlTnO.s 			page 33


1001:Middlewares/Third_Party/LwIP/src/core/udp.c ****               ip_addr_isany(&ipcb->local_ip))) {
 734              		.loc 1 1001 0 discriminator 1
 735 0068 1868     		ldr	r0, [r3]
 736 006a 2968     		ldr	r1, [r5]
 999:Middlewares/Third_Party/LwIP/src/core/udp.c ****               /* IP address matches or any IP used? */
 737              		.loc 1 999 0 discriminator 1
 738 006c 8842     		cmp	r0, r1
 739 006e 0CD0     		beq	.L84
1001:Middlewares/Third_Party/LwIP/src/core/udp.c ****               ip_addr_isany(&ipcb->local_ip))) {
 740              		.loc 1 1001 0
 741 0070 75B1     		cbz	r5, .L85
1001:Middlewares/Third_Party/LwIP/src/core/udp.c ****               ip_addr_isany(&ipcb->local_ip))) {
 742              		.loc 1 1001 0 is_stmt 0 discriminator 1
 743 0072 81B1     		cbz	r1, .L86
1001:Middlewares/Third_Party/LwIP/src/core/udp.c ****               ip_addr_isany(&ipcb->local_ip))) {
 744              		.loc 1 1001 0 discriminator 2
 745 0074 93B1     		cbz	r3, .L87
1002:Middlewares/Third_Party/LwIP/src/core/udp.c ****             /* other PCB already binds to this local IP and port */
 746              		.loc 1 1002 0 is_stmt 1
 747 0076 0028     		cmp	r0, #0
 748 0078 EED1     		bne	.L78
1006:Middlewares/Third_Party/LwIP/src/core/udp.c ****           }
 749              		.loc 1 1006 0
 750 007a 6FF00700 		mvn	r0, #7
 751 007e 70BD     		pop	{r4, r5, r6, pc}
 752              	.LVL93:
 753              	.L89:
1013:Middlewares/Third_Party/LwIP/src/core/udp.c **** 
 754              		.loc 1 1013 0
 755 0080 0023     		movs	r3, #0
 756 0082 DEE7     		b	.L80
 757              	.LVL94:
 758              	.L95:
 985:Middlewares/Third_Party/LwIP/src/core/udp.c ****     }
 759              		.loc 1 985 0
 760 0084 6FF00700 		mvn	r0, #7
 761              	.LVL95:
 762 0088 70BD     		pop	{r4, r5, r6, pc}
 763              	.LVL96:
 764              	.L84:
1006:Middlewares/Third_Party/LwIP/src/core/udp.c ****           }
 765              		.loc 1 1006 0
 766 008a 6FF00700 		mvn	r0, #7
 767 008e 70BD     		pop	{r4, r5, r6, pc}
 768              	.LVL97:
 769              	.L85:
 770 0090 6FF00700 		mvn	r0, #7
 771 0094 70BD     		pop	{r4, r5, r6, pc}
 772              	.LVL98:
 773              	.L86:
 774 0096 6FF00700 		mvn	r0, #7
 775 009a 70BD     		pop	{r4, r5, r6, pc}
 776              	.LVL99:
 777              	.L87:
 778 009c 6FF00700 		mvn	r0, #7
 779 00a0 70BD     		pop	{r4, r5, r6, pc}
 780              	.LVL100:
ARM GAS  /tmp/ccfwlTnO.s 			page 34


 781              	.L90:
 782              		.loc 1 1026 0
 783 00a2 0020     		movs	r0, #0
1027:Middlewares/Third_Party/LwIP/src/core/udp.c **** }
 784              		.loc 1 1027 0
 785 00a4 70BD     		pop	{r4, r5, r6, pc}
 786              	.LVL101:
 787              	.L97:
 788 00a6 00BF     		.align	2
 789              	.L96:
 790 00a8 00000000 		.word	udp_pcbs
 791 00ac 00000000 		.word	ip_addr_any
 792 00b0 00000000 		.word	.LC0
 793 00b4 00000000 		.word	.LC7
 794 00b8 50000000 		.word	.LC2
 795              		.cfi_endproc
 796              	.LFE166:
 798              		.section	.text.udp_sendto_if_src,"ax",%progbits
 799              		.align	1
 800              		.global	udp_sendto_if_src
 801              		.syntax unified
 802              		.thumb
 803              		.thumb_func
 804              		.fpu fpv5-d16
 806              	udp_sendto_if_src:
 807              	.LFB165:
 701:Middlewares/Third_Party/LwIP/src/core/udp.c **** #if LWIP_CHECKSUM_ON_COPY && CHECKSUM_GEN_UDP
 808              		.loc 1 701 0
 809              		.cfi_startproc
 810              		@ args = 8, pretend = 0, frame = 0
 811              		@ frame_needed = 0, uses_anonymous_args = 0
 812              	.LVL102:
 813 0000 2DE9F04D 		push	{r4, r5, r6, r7, r8, r10, fp, lr}
 814              	.LCFI7:
 815              		.cfi_def_cfa_offset 32
 816              		.cfi_offset 4, -32
 817              		.cfi_offset 5, -28
 818              		.cfi_offset 6, -24
 819              		.cfi_offset 7, -20
 820              		.cfi_offset 8, -16
 821              		.cfi_offset 10, -12
 822              		.cfi_offset 11, -8
 823              		.cfi_offset 14, -4
 824 0004 84B0     		sub	sp, sp, #16
 825              	.LCFI8:
 826              		.cfi_def_cfa_offset 48
 827 0006 DDF830A0 		ldr	r10, [sp, #48]
 721:Middlewares/Third_Party/LwIP/src/core/udp.c ****   LWIP_ERROR("udp_sendto_if_src: invalid pbuf", p != NULL, return ERR_ARG);
 828              		.loc 1 721 0
 829 000a 0028     		cmp	r0, #0
 830 000c 4DD0     		beq	.L112
 831 000e 0D46     		mov	r5, r1
 832 0010 1746     		mov	r7, r2
 833 0012 9B46     		mov	fp, r3
 834 0014 0646     		mov	r6, r0
 722:Middlewares/Third_Party/LwIP/src/core/udp.c ****   LWIP_ERROR("udp_sendto_if_src: invalid dst_ip", dst_ip != NULL, return ERR_ARG);
 835              		.loc 1 722 0
ARM GAS  /tmp/ccfwlTnO.s 			page 35


 836 0016 0029     		cmp	r1, #0
 837 0018 51D0     		beq	.L113
 723:Middlewares/Third_Party/LwIP/src/core/udp.c ****   LWIP_ERROR("udp_sendto_if_src: invalid src_ip", src_ip != NULL, return ERR_ARG);
 838              		.loc 1 723 0
 839 001a 002A     		cmp	r2, #0
 840 001c 59D0     		beq	.L114
 724:Middlewares/Third_Party/LwIP/src/core/udp.c ****   LWIP_ERROR("udp_sendto_if_src: invalid netif", netif != NULL, return ERR_ARG);
 841              		.loc 1 724 0
 842 001e 0D9B     		ldr	r3, [sp, #52]
 843              	.LVL103:
 844 0020 002B     		cmp	r3, #0
 845 0022 60D0     		beq	.L115
 725:Middlewares/Third_Party/LwIP/src/core/udp.c **** 
 846              		.loc 1 725 0
 847 0024 BAF1000F 		cmp	r10, #0
 848 0028 67D0     		beq	.L116
 746:Middlewares/Third_Party/LwIP/src/core/udp.c ****     LWIP_DEBUGF(UDP_DEBUG | LWIP_DBG_TRACE, ("udp_send: not yet bound to a port, binding now\n"));
 849              		.loc 1 746 0
 850 002a 428A     		ldrh	r2, [r0, #18]
 851              	.LVL104:
 852 002c 002A     		cmp	r2, #0
 853 002e 6ED0     		beq	.L117
 854              	.LVL105:
 855              	.L105:
 756:Middlewares/Third_Party/LwIP/src/core/udp.c ****     return ERR_MEM;
 856              		.loc 1 756 0
 857 0030 2A89     		ldrh	r2, [r5, #8]
 858 0032 02F10803 		add	r3, r2, #8
 859 0036 9BB2     		uxth	r3, r3
 860 0038 9A42     		cmp	r2, r3
 861 003a 00F28680 		bhi	.L108
 760:Middlewares/Third_Party/LwIP/src/core/udp.c ****     /* allocate header in a separate new pbuf */
 862              		.loc 1 760 0
 863 003e 0821     		movs	r1, #8
 864 0040 2846     		mov	r0, r5
 865 0042 FFF7FEFF 		bl	pbuf_add_header
 866              	.LVL106:
 867 0046 0028     		cmp	r0, #0
 868 0048 68D1     		bne	.L118
 778:Middlewares/Third_Party/LwIP/src/core/udp.c ****     LWIP_DEBUGF(UDP_DEBUG, ("udp_send: added header in given pbuf %p\n", (void *)p));
 869              		.loc 1 778 0
 870 004a 2C46     		mov	r4, r5
 871              	.L106:
 872              	.LVL107:
 781:Middlewares/Third_Party/LwIP/src/core/udp.c ****               (q->len >= sizeof(struct udp_hdr)));
 873              		.loc 1 781 0
 874 004c 6389     		ldrh	r3, [r4, #10]
 875 004e 072B     		cmp	r3, #7
 876 0050 73D9     		bls	.L119
 877              	.L107:
 784:Middlewares/Third_Party/LwIP/src/core/udp.c ****   udphdr->src = lwip_htons(pcb->local_port);
 878              		.loc 1 784 0
 879 0052 D4F80480 		ldr	r8, [r4, #4]
 880              	.LVL108:
 785:Middlewares/Third_Party/LwIP/src/core/udp.c ****   udphdr->dest = lwip_htons(dst_port);
 881              		.loc 1 785 0
 882 0056 708A     		ldrh	r0, [r6, #18]
ARM GAS  /tmp/ccfwlTnO.s 			page 36


 883 0058 FFF7FEFF 		bl	lwip_htons
 884              	.LVL109:
 885 005c A8F80000 		strh	r0, [r8]	@ unaligned
 786:Middlewares/Third_Party/LwIP/src/core/udp.c ****   /* in UDP, 0 checksum means 'no checksum' */
 886              		.loc 1 786 0
 887 0060 5846     		mov	r0, fp
 888 0062 FFF7FEFF 		bl	lwip_htons
 889              	.LVL110:
 890 0066 A8F80200 		strh	r0, [r8, #2]	@ unaligned
 788:Middlewares/Third_Party/LwIP/src/core/udp.c **** 
 891              		.loc 1 788 0
 892 006a 0023     		movs	r3, #0
 893 006c 88F80630 		strb	r3, [r8, #6]
 894 0070 88F80730 		strb	r3, [r8, #7]
 850:Middlewares/Third_Party/LwIP/src/core/udp.c ****     /* calculate checksum */
 895              		.loc 1 850 0
 896 0074 2089     		ldrh	r0, [r4, #8]
 897 0076 FFF7FEFF 		bl	lwip_htons
 898              	.LVL111:
 899 007a A8F80400 		strh	r0, [r8, #4]	@ unaligned
 900              	.LVL112:
 886:Middlewares/Third_Party/LwIP/src/core/udp.c **** #endif /* LWIP_MULTICAST_TX_OPTIONS */
 901              		.loc 1 886 0
 902 007e F37A     		ldrb	r3, [r6, #11]	@ zero_extendqisi2
 903              	.LVL113:
 893:Middlewares/Third_Party/LwIP/src/core/udp.c ****   NETIF_RESET_HINTS(netif);
 904              		.loc 1 893 0
 905 0080 B27A     		ldrb	r2, [r6, #10]	@ zero_extendqisi2
 906 0082 CDF808A0 		str	r10, [sp, #8]
 907 0086 1121     		movs	r1, #17
 908 0088 0191     		str	r1, [sp, #4]
 909 008a 0092     		str	r2, [sp]
 910 008c 3A46     		mov	r2, r7
 911 008e 0D99     		ldr	r1, [sp, #52]
 912 0090 2046     		mov	r0, r4
 913 0092 FFF7FEFF 		bl	ip4_output_if_src
 914              	.LVL114:
 915 0096 8046     		mov	r8, r0
 916              	.LVL115:
 900:Middlewares/Third_Party/LwIP/src/core/udp.c ****     /* free the header pbuf */
 917              		.loc 1 900 0
 918 0098 AC42     		cmp	r4, r5
 919 009a 02D0     		beq	.L100
 902:Middlewares/Third_Party/LwIP/src/core/udp.c ****     q = NULL;
 920              		.loc 1 902 0
 921 009c 2046     		mov	r0, r4
 922 009e FFF7FEFF 		bl	pbuf_free
 923              	.LVL116:
 924              	.L100:
 909:Middlewares/Third_Party/LwIP/src/core/udp.c **** 
 925              		.loc 1 909 0
 926 00a2 4046     		mov	r0, r8
 927 00a4 04B0     		add	sp, sp, #16
 928              	.LCFI9:
 929              		.cfi_remember_state
 930              		.cfi_def_cfa_offset 32
 931              		@ sp needed
ARM GAS  /tmp/ccfwlTnO.s 			page 37


 932 00a6 BDE8F08D 		pop	{r4, r5, r6, r7, r8, r10, fp, pc}
 933              	.LVL117:
 934              	.L112:
 935              	.LCFI10:
 936              		.cfi_restore_state
 721:Middlewares/Third_Party/LwIP/src/core/udp.c ****   LWIP_ERROR("udp_sendto_if_src: invalid pbuf", p != NULL, return ERR_ARG);
 937              		.loc 1 721 0 discriminator 1
 938 00aa 2B4B     		ldr	r3, .L120
 939              	.LVL118:
 940 00ac 40F2D122 		movw	r2, #721
 941              	.LVL119:
 942 00b0 2A49     		ldr	r1, .L120+4
 943              	.LVL120:
 944 00b2 2B48     		ldr	r0, .L120+8
 945              	.LVL121:
 946 00b4 FFF7FEFF 		bl	printf
 947              	.LVL122:
 948 00b8 6FF00F08 		mvn	r8, #15
 949 00bc F1E7     		b	.L100
 950              	.LVL123:
 951              	.L113:
 722:Middlewares/Third_Party/LwIP/src/core/udp.c ****   LWIP_ERROR("udp_sendto_if_src: invalid dst_ip", dst_ip != NULL, return ERR_ARG);
 952              		.loc 1 722 0 discriminator 1
 953 00be 264B     		ldr	r3, .L120
 954              	.LVL124:
 955 00c0 40F2D222 		movw	r2, #722
 956              	.LVL125:
 957 00c4 2749     		ldr	r1, .L120+12
 958              	.LVL126:
 959 00c6 2648     		ldr	r0, .L120+8
 960              	.LVL127:
 961 00c8 FFF7FEFF 		bl	printf
 962              	.LVL128:
 963 00cc 6FF00F08 		mvn	r8, #15
 964 00d0 E7E7     		b	.L100
 965              	.LVL129:
 966              	.L114:
 723:Middlewares/Third_Party/LwIP/src/core/udp.c ****   LWIP_ERROR("udp_sendto_if_src: invalid src_ip", src_ip != NULL, return ERR_ARG);
 967              		.loc 1 723 0 discriminator 1
 968 00d2 214B     		ldr	r3, .L120
 969              	.LVL130:
 970 00d4 40F2D322 		movw	r2, #723
 971              	.LVL131:
 972 00d8 2349     		ldr	r1, .L120+16
 973              	.LVL132:
 974 00da 2148     		ldr	r0, .L120+8
 975              	.LVL133:
 976 00dc FFF7FEFF 		bl	printf
 977              	.LVL134:
 978 00e0 6FF00F08 		mvn	r8, #15
 979 00e4 DDE7     		b	.L100
 980              	.LVL135:
 981              	.L115:
 724:Middlewares/Third_Party/LwIP/src/core/udp.c ****   LWIP_ERROR("udp_sendto_if_src: invalid netif", netif != NULL, return ERR_ARG);
 982              		.loc 1 724 0 discriminator 1
 983 00e6 1C4B     		ldr	r3, .L120
 984 00e8 4FF43572 		mov	r2, #724
ARM GAS  /tmp/ccfwlTnO.s 			page 38


 985              	.LVL136:
 986 00ec 1F49     		ldr	r1, .L120+20
 987              	.LVL137:
 988 00ee 1C48     		ldr	r0, .L120+8
 989              	.LVL138:
 990 00f0 FFF7FEFF 		bl	printf
 991              	.LVL139:
 992 00f4 6FF00F08 		mvn	r8, #15
 993 00f8 D3E7     		b	.L100
 994              	.LVL140:
 995              	.L116:
 725:Middlewares/Third_Party/LwIP/src/core/udp.c **** 
 996              		.loc 1 725 0 discriminator 1
 997 00fa 174B     		ldr	r3, .L120
 998 00fc 40F2D522 		movw	r2, #725
 999              	.LVL141:
 1000 0100 1B49     		ldr	r1, .L120+24
 1001              	.LVL142:
 1002 0102 1748     		ldr	r0, .L120+8
 1003              	.LVL143:
 1004 0104 FFF7FEFF 		bl	printf
 1005              	.LVL144:
 1006 0108 6FF00F08 		mvn	r8, #15
 1007 010c C9E7     		b	.L100
 1008              	.LVL145:
 1009              	.L117:
 748:Middlewares/Third_Party/LwIP/src/core/udp.c ****     if (err != ERR_OK) {
 1010              		.loc 1 748 0
 1011 010e 0146     		mov	r1, r0
 1012              	.LVL146:
 1013 0110 FFF7FEFF 		bl	udp_bind
 1014              	.LVL147:
 749:Middlewares/Third_Party/LwIP/src/core/udp.c ****       LWIP_DEBUGF(UDP_DEBUG | LWIP_DBG_TRACE | LWIP_DBG_LEVEL_SERIOUS, ("udp_send: forced port bind
 1015              		.loc 1 749 0
 1016 0114 8046     		mov	r8, r0
 1017 0116 0028     		cmp	r0, #0
 1018 0118 8AD0     		beq	.L105
 1019 011a C2E7     		b	.L100
 1020              	.LVL148:
 1021              	.L118:
 762:Middlewares/Third_Party/LwIP/src/core/udp.c ****     /* new header pbuf could not be allocated? */
 1022              		.loc 1 762 0
 1023 011c 4FF42072 		mov	r2, #640
 1024 0120 0821     		movs	r1, #8
 1025 0122 2220     		movs	r0, #34
 1026 0124 FFF7FEFF 		bl	pbuf_alloc
 1027              	.LVL149:
 764:Middlewares/Third_Party/LwIP/src/core/udp.c ****       LWIP_DEBUGF(UDP_DEBUG | LWIP_DBG_TRACE | LWIP_DBG_LEVEL_SERIOUS, ("udp_send: could not alloca
 1028              		.loc 1 764 0
 1029 0128 0446     		mov	r4, r0
 1030 012a 88B1     		cbz	r0, .L110
 768:Middlewares/Third_Party/LwIP/src/core/udp.c ****       /* chain header q in front of given pbuf p (only if p contains data) */
 1031              		.loc 1 768 0
 1032 012c 2B89     		ldrh	r3, [r5, #8]
 1033 012e 002B     		cmp	r3, #0
 1034 0130 8CD0     		beq	.L106
 770:Middlewares/Third_Party/LwIP/src/core/udp.c ****     }
ARM GAS  /tmp/ccfwlTnO.s 			page 39


 1035              		.loc 1 770 0
 1036 0132 2946     		mov	r1, r5
 1037 0134 FFF7FEFF 		bl	pbuf_chain
 1038              	.LVL150:
 1039 0138 88E7     		b	.L106
 1040              	.L119:
 781:Middlewares/Third_Party/LwIP/src/core/udp.c ****               (q->len >= sizeof(struct udp_hdr)));
 1041              		.loc 1 781 0 discriminator 1
 1042 013a 074B     		ldr	r3, .L120
 1043 013c 40F20E32 		movw	r2, #782
 1044 0140 0C49     		ldr	r1, .L120+28
 1045 0142 0748     		ldr	r0, .L120+8
 1046 0144 FFF7FEFF 		bl	printf
 1047              	.LVL151:
 1048 0148 83E7     		b	.L107
 1049              	.LVL152:
 1050              	.L108:
 757:Middlewares/Third_Party/LwIP/src/core/udp.c ****   }
 1051              		.loc 1 757 0
 1052 014a 4FF0FF38 		mov	r8, #-1
 1053 014e A8E7     		b	.L100
 1054              	.LVL153:
 1055              	.L110:
 766:Middlewares/Third_Party/LwIP/src/core/udp.c ****     }
 1056              		.loc 1 766 0
 1057 0150 4FF0FF38 		mov	r8, #-1
 1058 0154 A5E7     		b	.L100
 1059              	.L121:
 1060 0156 00BF     		.align	2
 1061              	.L120:
 1062 0158 00000000 		.word	.LC0
 1063 015c 00000000 		.word	.LC8
 1064 0160 50000000 		.word	.LC2
 1065 0164 20000000 		.word	.LC9
 1066 0168 40000000 		.word	.LC10
 1067 016c 64000000 		.word	.LC11
 1068 0170 88000000 		.word	.LC12
 1069 0174 AC000000 		.word	.LC13
 1070              		.cfi_endproc
 1071              	.LFE165:
 1073              		.section	.text.udp_sendto_if,"ax",%progbits
 1074              		.align	1
 1075              		.global	udp_sendto_if
 1076              		.syntax unified
 1077              		.thumb
 1078              		.thumb_func
 1079              		.fpu fpv5-d16
 1081              	udp_sendto_if:
 1082              	.LFB164:
 626:Middlewares/Third_Party/LwIP/src/core/udp.c **** #if LWIP_CHECKSUM_ON_COPY && CHECKSUM_GEN_UDP
 1083              		.loc 1 626 0
 1084              		.cfi_startproc
 1085              		@ args = 4, pretend = 0, frame = 0
 1086              		@ frame_needed = 0, uses_anonymous_args = 0
 1087              	.LVL154:
 1088 0000 70B5     		push	{r4, r5, r6, lr}
 1089              	.LCFI11:
ARM GAS  /tmp/ccfwlTnO.s 			page 40


 1090              		.cfi_def_cfa_offset 16
 1091              		.cfi_offset 4, -16
 1092              		.cfi_offset 5, -12
 1093              		.cfi_offset 6, -8
 1094              		.cfi_offset 14, -4
 1095 0002 82B0     		sub	sp, sp, #8
 1096              	.LCFI12:
 1097              		.cfi_def_cfa_offset 24
 1098 0004 069D     		ldr	r5, [sp, #24]
 640:Middlewares/Third_Party/LwIP/src/core/udp.c ****   LWIP_ERROR("udp_sendto_if: invalid pbuf", p != NULL, return ERR_ARG);
 1099              		.loc 1 640 0
 1100 0006 80B1     		cbz	r0, .L133
 1101 0008 0446     		mov	r4, r0
 641:Middlewares/Third_Party/LwIP/src/core/udp.c ****   LWIP_ERROR("udp_sendto_if: invalid dst_ip", dst_ip != NULL, return ERR_ARG);
 1102              		.loc 1 641 0
 1103 000a C1B1     		cbz	r1, .L134
 642:Middlewares/Third_Party/LwIP/src/core/udp.c ****   LWIP_ERROR("udp_sendto_if: invalid netif", netif != NULL, return ERR_ARG);
 1104              		.loc 1 642 0
 1105 000c 0AB3     		cbz	r2, .L135
 643:Middlewares/Third_Party/LwIP/src/core/udp.c **** 
 1106              		.loc 1 643 0
 1107 000e 55B3     		cbz	r5, .L136
 673:Middlewares/Third_Party/LwIP/src/core/udp.c ****         ip4_addr_ismulticast(ip_2_ip4(&pcb->local_ip))) {
 1108              		.loc 1 673 0
 1109 0010 0028     		cmp	r0, #0
 1110 0012 32D0     		beq	.L128
 673:Middlewares/Third_Party/LwIP/src/core/udp.c ****         ip4_addr_ismulticast(ip_2_ip4(&pcb->local_ip))) {
 1111              		.loc 1 673 0 is_stmt 0 discriminator 1
 1112 0014 0068     		ldr	r0, [r0]
 1113              	.LVL155:
 1114 0016 80B3     		cbz	r0, .L128
 674:Middlewares/Third_Party/LwIP/src/core/udp.c ****       /* if the local_ip is any or multicast
 1115              		.loc 1 674 0 is_stmt 1 discriminator 2
 1116 0018 00F0F006 		and	r6, r0, #240
 673:Middlewares/Third_Party/LwIP/src/core/udp.c ****         ip4_addr_ismulticast(ip_2_ip4(&pcb->local_ip))) {
 1117              		.loc 1 673 0 discriminator 2
 1118 001c E02E     		cmp	r6, #224
 1119 001e 2CD0     		beq	.L128
 681:Middlewares/Third_Party/LwIP/src/core/udp.c ****         /* local_ip doesn't match, drop the packet */
 1120              		.loc 1 681 0
 1121 0020 6E68     		ldr	r6, [r5, #4]
 1122 0022 B042     		cmp	r0, r6
 1123 0024 31D1     		bne	.L131
 686:Middlewares/Third_Party/LwIP/src/core/udp.c ****     }
 1124              		.loc 1 686 0
 1125 0026 2046     		mov	r0, r4
 1126 0028 28E0     		b	.L130
 1127              	.LVL156:
 1128              	.L133:
 640:Middlewares/Third_Party/LwIP/src/core/udp.c ****   LWIP_ERROR("udp_sendto_if: invalid pbuf", p != NULL, return ERR_ARG);
 1129              		.loc 1 640 0 discriminator 1
 1130 002a 194B     		ldr	r3, .L137
 1131              	.LVL157:
 1132 002c 4FF42072 		mov	r2, #640
 1133              	.LVL158:
 1134 0030 1849     		ldr	r1, .L137+4
 1135              	.LVL159:
ARM GAS  /tmp/ccfwlTnO.s 			page 41


 1136 0032 1948     		ldr	r0, .L137+8
 1137              	.LVL160:
 1138 0034 FFF7FEFF 		bl	printf
 1139              	.LVL161:
 1140 0038 6FF00F00 		mvn	r0, #15
 1141 003c 23E0     		b	.L124
 1142              	.LVL162:
 1143              	.L134:
 641:Middlewares/Third_Party/LwIP/src/core/udp.c ****   LWIP_ERROR("udp_sendto_if: invalid dst_ip", dst_ip != NULL, return ERR_ARG);
 1144              		.loc 1 641 0 discriminator 1
 1145 003e 144B     		ldr	r3, .L137
 1146              	.LVL163:
 1147 0040 40F28122 		movw	r2, #641
 1148              	.LVL164:
 1149 0044 1549     		ldr	r1, .L137+12
 1150              	.LVL165:
 1151 0046 1448     		ldr	r0, .L137+8
 1152              	.LVL166:
 1153 0048 FFF7FEFF 		bl	printf
 1154              	.LVL167:
 1155 004c 6FF00F00 		mvn	r0, #15
 1156 0050 19E0     		b	.L124
 1157              	.LVL168:
 1158              	.L135:
 642:Middlewares/Third_Party/LwIP/src/core/udp.c ****   LWIP_ERROR("udp_sendto_if: invalid netif", netif != NULL, return ERR_ARG);
 1159              		.loc 1 642 0 discriminator 1
 1160 0052 0F4B     		ldr	r3, .L137
 1161              	.LVL169:
 1162 0054 40F28222 		movw	r2, #642
 1163              	.LVL170:
 1164 0058 1149     		ldr	r1, .L137+16
 1165              	.LVL171:
 1166 005a 0F48     		ldr	r0, .L137+8
 1167              	.LVL172:
 1168 005c FFF7FEFF 		bl	printf
 1169              	.LVL173:
 1170 0060 6FF00F00 		mvn	r0, #15
 1171 0064 0FE0     		b	.L124
 1172              	.LVL174:
 1173              	.L136:
 643:Middlewares/Third_Party/LwIP/src/core/udp.c **** 
 1174              		.loc 1 643 0 discriminator 1
 1175 0066 0A4B     		ldr	r3, .L137
 1176              	.LVL175:
 1177 0068 40F28322 		movw	r2, #643
 1178              	.LVL176:
 1179 006c 0D49     		ldr	r1, .L137+20
 1180              	.LVL177:
 1181 006e 0A48     		ldr	r0, .L137+8
 1182              	.LVL178:
 1183 0070 FFF7FEFF 		bl	printf
 1184              	.LVL179:
 1185 0074 6FF00F00 		mvn	r0, #15
 1186 0078 05E0     		b	.L124
 1187              	.LVL180:
 1188              	.L128:
 677:Middlewares/Third_Party/LwIP/src/core/udp.c ****     } else {
ARM GAS  /tmp/ccfwlTnO.s 			page 42


 1189              		.loc 1 677 0
 1190 007a 281D     		adds	r0, r5, #4
 1191              	.LVL181:
 1192              	.L130:
 692:Middlewares/Third_Party/LwIP/src/core/udp.c **** #endif /* LWIP_CHECKSUM_ON_COPY && CHECKSUM_GEN_UDP */
 1193              		.loc 1 692 0
 1194 007c 0190     		str	r0, [sp, #4]
 1195 007e 0095     		str	r5, [sp]
 1196 0080 2046     		mov	r0, r4
 1197              	.LVL182:
 1198 0082 FFF7FEFF 		bl	udp_sendto_if_src
 1199              	.LVL183:
 1200              	.L124:
 694:Middlewares/Third_Party/LwIP/src/core/udp.c **** 
 1201              		.loc 1 694 0
 1202 0086 02B0     		add	sp, sp, #8
 1203              	.LCFI13:
 1204              		.cfi_remember_state
 1205              		.cfi_def_cfa_offset 16
 1206              		@ sp needed
 1207 0088 70BD     		pop	{r4, r5, r6, pc}
 1208              	.LVL184:
 1209              	.L131:
 1210              	.LCFI14:
 1211              		.cfi_restore_state
 683:Middlewares/Third_Party/LwIP/src/core/udp.c ****       }
 1212              		.loc 1 683 0
 1213 008a 6FF00300 		mvn	r0, #3
 1214 008e FAE7     		b	.L124
 1215              	.L138:
 1216              		.align	2
 1217              	.L137:
 1218 0090 00000000 		.word	.LC0
 1219 0094 00000000 		.word	.LC14
 1220 0098 50000000 		.word	.LC2
 1221 009c 1C000000 		.word	.LC15
 1222 00a0 38000000 		.word	.LC16
 1223 00a4 58000000 		.word	.LC17
 1224              		.cfi_endproc
 1225              	.LFE164:
 1227              		.section	.text.udp_sendto,"ax",%progbits
 1228              		.align	1
 1229              		.global	udp_sendto
 1230              		.syntax unified
 1231              		.thumb
 1232              		.thumb_func
 1233              		.fpu fpv5-d16
 1235              	udp_sendto:
 1236              	.LFB163:
 522:Middlewares/Third_Party/LwIP/src/core/udp.c **** #if LWIP_CHECKSUM_ON_COPY && CHECKSUM_GEN_UDP
 1237              		.loc 1 522 0
 1238              		.cfi_startproc
 1239              		@ args = 0, pretend = 0, frame = 0
 1240              		@ frame_needed = 0, uses_anonymous_args = 0
 1241              	.LVL185:
 1242 0000 F0B5     		push	{r4, r5, r6, r7, lr}
 1243              	.LCFI15:
ARM GAS  /tmp/ccfwlTnO.s 			page 43


 1244              		.cfi_def_cfa_offset 20
 1245              		.cfi_offset 4, -20
 1246              		.cfi_offset 5, -16
 1247              		.cfi_offset 6, -12
 1248              		.cfi_offset 7, -8
 1249              		.cfi_offset 14, -4
 1250 0002 83B0     		sub	sp, sp, #12
 1251              	.LCFI16:
 1252              		.cfi_def_cfa_offset 32
 536:Middlewares/Third_Party/LwIP/src/core/udp.c ****   LWIP_ERROR("udp_sendto: invalid pbuf", p != NULL, return ERR_ARG);
 1253              		.loc 1 536 0
 1254 0004 98B1     		cbz	r0, .L148
 1255 0006 0D46     		mov	r5, r1
 1256 0008 1446     		mov	r4, r2
 1257 000a 1F46     		mov	r7, r3
 1258 000c 0646     		mov	r6, r0
 537:Middlewares/Third_Party/LwIP/src/core/udp.c ****   LWIP_ERROR("udp_sendto: invalid dst_ip", dst_ip != NULL, return ERR_ARG);
 1259              		.loc 1 537 0
 1260 000e C1B1     		cbz	r1, .L149
 538:Middlewares/Third_Party/LwIP/src/core/udp.c **** 
 1261              		.loc 1 538 0
 1262 0010 0AB3     		cbz	r2, .L150
 546:Middlewares/Third_Party/LwIP/src/core/udp.c ****     netif = netif_get_by_index(pcb->netif_idx);
 1263              		.loc 1 546 0
 1264 0012 007A     		ldrb	r0, [r0, #8]	@ zero_extendqisi2
 1265              	.LVL186:
 1266 0014 48B3     		cbz	r0, .L144
 547:Middlewares/Third_Party/LwIP/src/core/udp.c ****   } else {
 1267              		.loc 1 547 0
 1268 0016 FFF7FEFF 		bl	netif_get_by_index
 1269              	.LVL187:
 1270              	.L145:
 589:Middlewares/Third_Party/LwIP/src/core/udp.c ****     LWIP_DEBUGF(UDP_DEBUG | LWIP_DBG_LEVEL_SERIOUS, ("udp_send: No route to "));
 1271              		.loc 1 589 0
 1272 001a 50B3     		cbz	r0, .L146
 599:Middlewares/Third_Party/LwIP/src/core/udp.c **** #endif /* LWIP_CHECKSUM_ON_COPY && CHECKSUM_GEN_UDP */
 1273              		.loc 1 599 0
 1274 001c 0090     		str	r0, [sp]
 1275 001e 3B46     		mov	r3, r7
 1276 0020 2246     		mov	r2, r4
 1277 0022 2946     		mov	r1, r5
 1278 0024 3046     		mov	r0, r6
 1279              	.LVL188:
 1280 0026 FFF7FEFF 		bl	udp_sendto_if
 1281              	.LVL189:
 1282              	.L141:
 601:Middlewares/Third_Party/LwIP/src/core/udp.c **** 
 1283              		.loc 1 601 0
 1284 002a 03B0     		add	sp, sp, #12
 1285              	.LCFI17:
 1286              		.cfi_remember_state
 1287              		.cfi_def_cfa_offset 20
 1288              		@ sp needed
 1289 002c F0BD     		pop	{r4, r5, r6, r7, pc}
 1290              	.LVL190:
 1291              	.L148:
 1292              	.LCFI18:
ARM GAS  /tmp/ccfwlTnO.s 			page 44


 1293              		.cfi_restore_state
 536:Middlewares/Third_Party/LwIP/src/core/udp.c ****   LWIP_ERROR("udp_sendto: invalid pbuf", p != NULL, return ERR_ARG);
 1294              		.loc 1 536 0 discriminator 1
 1295 002e 124B     		ldr	r3, .L151
 1296              	.LVL191:
 1297 0030 4FF40672 		mov	r2, #536
 1298              	.LVL192:
 1299 0034 1149     		ldr	r1, .L151+4
 1300              	.LVL193:
 1301 0036 1248     		ldr	r0, .L151+8
 1302              	.LVL194:
 1303 0038 FFF7FEFF 		bl	printf
 1304              	.LVL195:
 1305 003c 6FF00F00 		mvn	r0, #15
 1306 0040 F3E7     		b	.L141
 1307              	.LVL196:
 1308              	.L149:
 537:Middlewares/Third_Party/LwIP/src/core/udp.c ****   LWIP_ERROR("udp_sendto: invalid dst_ip", dst_ip != NULL, return ERR_ARG);
 1309              		.loc 1 537 0 discriminator 1
 1310 0042 0D4B     		ldr	r3, .L151
 1311              	.LVL197:
 1312 0044 40F21922 		movw	r2, #537
 1313              	.LVL198:
 1314 0048 0E49     		ldr	r1, .L151+12
 1315              	.LVL199:
 1316 004a 0D48     		ldr	r0, .L151+8
 1317              	.LVL200:
 1318 004c FFF7FEFF 		bl	printf
 1319              	.LVL201:
 1320 0050 6FF00F00 		mvn	r0, #15
 1321 0054 E9E7     		b	.L141
 1322              	.LVL202:
 1323              	.L150:
 538:Middlewares/Third_Party/LwIP/src/core/udp.c **** 
 1324              		.loc 1 538 0 discriminator 1
 1325 0056 084B     		ldr	r3, .L151
 1326              	.LVL203:
 1327 0058 40F21A22 		movw	r2, #538
 1328              	.LVL204:
 1329 005c 0A49     		ldr	r1, .L151+16
 1330              	.LVL205:
 1331 005e 0848     		ldr	r0, .L151+8
 1332              	.LVL206:
 1333 0060 FFF7FEFF 		bl	printf
 1334              	.LVL207:
 1335 0064 6FF00F00 		mvn	r0, #15
 1336 0068 DFE7     		b	.L141
 1337              	.LVL208:
 1338              	.L144:
 584:Middlewares/Third_Party/LwIP/src/core/udp.c ****     }
 1339              		.loc 1 584 0
 1340 006a 1046     		mov	r0, r2
 1341 006c FFF7FEFF 		bl	ip4_route
 1342              	.LVL209:
 1343 0070 D3E7     		b	.L145
 1344              	.L146:
 594:Middlewares/Third_Party/LwIP/src/core/udp.c ****   }
ARM GAS  /tmp/ccfwlTnO.s 			page 45


 1345              		.loc 1 594 0
 1346 0072 6FF00300 		mvn	r0, #3
 1347              	.LVL210:
 1348 0076 D8E7     		b	.L141
 1349              	.L152:
 1350              		.align	2
 1351              	.L151:
 1352 0078 00000000 		.word	.LC0
 1353 007c 00000000 		.word	.LC18
 1354 0080 50000000 		.word	.LC2
 1355 0084 18000000 		.word	.LC19
 1356 0088 34000000 		.word	.LC20
 1357              		.cfi_endproc
 1358              	.LFE163:
 1360              		.section	.text.udp_send,"ax",%progbits
 1361              		.align	1
 1362              		.global	udp_send
 1363              		.syntax unified
 1364              		.thumb
 1365              		.thumb_func
 1366              		.fpu fpv5-d16
 1368              	udp_send:
 1369              	.LFB162:
 468:Middlewares/Third_Party/LwIP/src/core/udp.c ****   LWIP_ERROR("udp_send: invalid pcb", pcb != NULL, return ERR_ARG);
 1370              		.loc 1 468 0
 1371              		.cfi_startproc
 1372              		@ args = 0, pretend = 0, frame = 0
 1373              		@ frame_needed = 0, uses_anonymous_args = 0
 1374              	.LVL211:
 1375 0000 10B5     		push	{r4, lr}
 1376              	.LCFI19:
 1377              		.cfi_def_cfa_offset 8
 1378              		.cfi_offset 4, -8
 1379              		.cfi_offset 14, -4
 469:Middlewares/Third_Party/LwIP/src/core/udp.c ****   LWIP_ERROR("udp_send: invalid pbuf", p != NULL, return ERR_ARG);
 1380              		.loc 1 469 0
 1381 0002 28B1     		cbz	r0, .L158
 470:Middlewares/Third_Party/LwIP/src/core/udp.c **** 
 1382              		.loc 1 470 0
 1383 0004 71B1     		cbz	r1, .L159
 477:Middlewares/Third_Party/LwIP/src/core/udp.c **** }
 1384              		.loc 1 477 0
 1385 0006 838A     		ldrh	r3, [r0, #20]
 1386 0008 021D     		adds	r2, r0, #4
 1387 000a FFF7FEFF 		bl	udp_sendto
 1388              	.LVL212:
 478:Middlewares/Third_Party/LwIP/src/core/udp.c **** 
 1389              		.loc 1 478 0
 1390 000e 10BD     		pop	{r4, pc}
 1391              	.LVL213:
 1392              	.L158:
 469:Middlewares/Third_Party/LwIP/src/core/udp.c ****   LWIP_ERROR("udp_send: invalid pbuf", p != NULL, return ERR_ARG);
 1393              		.loc 1 469 0 discriminator 1
 1394 0010 094B     		ldr	r3, .L160
 1395 0012 40F2D512 		movw	r2, #469
 1396 0016 0949     		ldr	r1, .L160+4
 1397              	.LVL214:
ARM GAS  /tmp/ccfwlTnO.s 			page 46


 1398 0018 0948     		ldr	r0, .L160+8
 1399              	.LVL215:
 1400 001a FFF7FEFF 		bl	printf
 1401              	.LVL216:
 1402 001e 6FF00F00 		mvn	r0, #15
 1403 0022 10BD     		pop	{r4, pc}
 1404              	.LVL217:
 1405              	.L159:
 470:Middlewares/Third_Party/LwIP/src/core/udp.c **** 
 1406              		.loc 1 470 0 discriminator 1
 1407 0024 044B     		ldr	r3, .L160
 1408 0026 4FF4EB72 		mov	r2, #470
 1409 002a 0649     		ldr	r1, .L160+12
 1410              	.LVL218:
 1411 002c 0448     		ldr	r0, .L160+8
 1412              	.LVL219:
 1413 002e FFF7FEFF 		bl	printf
 1414              	.LVL220:
 1415 0032 6FF00F00 		mvn	r0, #15
 1416 0036 10BD     		pop	{r4, pc}
 1417              	.L161:
 1418              		.align	2
 1419              	.L160:
 1420 0038 00000000 		.word	.LC0
 1421 003c 00000000 		.word	.LC21
 1422 0040 50000000 		.word	.LC2
 1423 0044 18000000 		.word	.LC22
 1424              		.cfi_endproc
 1425              	.LFE162:
 1427              		.section	.text.udp_bind_netif,"ax",%progbits
 1428              		.align	1
 1429              		.global	udp_bind_netif
 1430              		.syntax unified
 1431              		.thumb
 1432              		.thumb_func
 1433              		.fpu fpv5-d16
 1435              	udp_bind_netif:
 1436              	.LFB167:
1028:Middlewares/Third_Party/LwIP/src/core/udp.c **** 
1029:Middlewares/Third_Party/LwIP/src/core/udp.c **** /**
1030:Middlewares/Third_Party/LwIP/src/core/udp.c ****  * @ingroup udp_raw
1031:Middlewares/Third_Party/LwIP/src/core/udp.c ****  * Bind an UDP PCB to a specific netif.
1032:Middlewares/Third_Party/LwIP/src/core/udp.c ****  * After calling this function, all packets received via this PCB
1033:Middlewares/Third_Party/LwIP/src/core/udp.c ****  * are guaranteed to have come in via the specified netif, and all
1034:Middlewares/Third_Party/LwIP/src/core/udp.c ****  * outgoing packets will go out via the specified netif.
1035:Middlewares/Third_Party/LwIP/src/core/udp.c ****  *
1036:Middlewares/Third_Party/LwIP/src/core/udp.c ****  * @param pcb UDP PCB to be bound.
1037:Middlewares/Third_Party/LwIP/src/core/udp.c ****  * @param netif netif to bind udp pcb to. Can be NULL.
1038:Middlewares/Third_Party/LwIP/src/core/udp.c ****  *
1039:Middlewares/Third_Party/LwIP/src/core/udp.c ****  * @see udp_disconnect()
1040:Middlewares/Third_Party/LwIP/src/core/udp.c ****  */
1041:Middlewares/Third_Party/LwIP/src/core/udp.c **** void
1042:Middlewares/Third_Party/LwIP/src/core/udp.c **** udp_bind_netif(struct udp_pcb *pcb, const struct netif *netif)
1043:Middlewares/Third_Party/LwIP/src/core/udp.c **** {
 1437              		.loc 1 1043 0
 1438              		.cfi_startproc
 1439              		@ args = 0, pretend = 0, frame = 0
ARM GAS  /tmp/ccfwlTnO.s 			page 47


 1440              		@ frame_needed = 0, uses_anonymous_args = 0
 1441              		@ link register save eliminated.
 1442              	.LVL221:
1044:Middlewares/Third_Party/LwIP/src/core/udp.c ****   LWIP_ASSERT_CORE_LOCKED();
1045:Middlewares/Third_Party/LwIP/src/core/udp.c **** 
1046:Middlewares/Third_Party/LwIP/src/core/udp.c ****   if (netif != NULL) {
 1443              		.loc 1 1046 0
 1444 0000 21B1     		cbz	r1, .L163
1047:Middlewares/Third_Party/LwIP/src/core/udp.c ****     pcb->netif_idx = netif_get_index(netif);
 1445              		.loc 1 1047 0
 1446 0002 91F83430 		ldrb	r3, [r1, #52]	@ zero_extendqisi2
 1447 0006 0133     		adds	r3, r3, #1
 1448 0008 0372     		strb	r3, [r0, #8]
 1449 000a 7047     		bx	lr
 1450              	.L163:
1048:Middlewares/Third_Party/LwIP/src/core/udp.c ****   } else {
1049:Middlewares/Third_Party/LwIP/src/core/udp.c ****     pcb->netif_idx = NETIF_NO_INDEX;
 1451              		.loc 1 1049 0
 1452 000c 0023     		movs	r3, #0
 1453 000e 0372     		strb	r3, [r0, #8]
 1454 0010 7047     		bx	lr
 1455              		.cfi_endproc
 1456              	.LFE167:
 1458              		.section	.text.udp_connect,"ax",%progbits
 1459              		.align	1
 1460              		.global	udp_connect
 1461              		.syntax unified
 1462              		.thumb
 1463              		.thumb_func
 1464              		.fpu fpv5-d16
 1466              	udp_connect:
 1467              	.LFB168:
1050:Middlewares/Third_Party/LwIP/src/core/udp.c ****   }
1051:Middlewares/Third_Party/LwIP/src/core/udp.c **** }
1052:Middlewares/Third_Party/LwIP/src/core/udp.c **** 
1053:Middlewares/Third_Party/LwIP/src/core/udp.c **** /**
1054:Middlewares/Third_Party/LwIP/src/core/udp.c ****  * @ingroup udp_raw
1055:Middlewares/Third_Party/LwIP/src/core/udp.c ****  * Sets the remote end of the pcb. This function does not generate any
1056:Middlewares/Third_Party/LwIP/src/core/udp.c ****  * network traffic, but only sets the remote address of the pcb.
1057:Middlewares/Third_Party/LwIP/src/core/udp.c ****  *
1058:Middlewares/Third_Party/LwIP/src/core/udp.c ****  * @param pcb UDP PCB to be connected with remote address ipaddr and port.
1059:Middlewares/Third_Party/LwIP/src/core/udp.c ****  * @param ipaddr remote IP address to connect with.
1060:Middlewares/Third_Party/LwIP/src/core/udp.c ****  * @param port remote UDP port to connect with.
1061:Middlewares/Third_Party/LwIP/src/core/udp.c ****  *
1062:Middlewares/Third_Party/LwIP/src/core/udp.c ****  * @return lwIP error code
1063:Middlewares/Third_Party/LwIP/src/core/udp.c ****  *
1064:Middlewares/Third_Party/LwIP/src/core/udp.c ****  * ipaddr & port are expected to be in the same byte order as in the pcb.
1065:Middlewares/Third_Party/LwIP/src/core/udp.c ****  *
1066:Middlewares/Third_Party/LwIP/src/core/udp.c ****  * The udp pcb is bound to a random local port if not already bound.
1067:Middlewares/Third_Party/LwIP/src/core/udp.c ****  *
1068:Middlewares/Third_Party/LwIP/src/core/udp.c ****  * @see udp_disconnect()
1069:Middlewares/Third_Party/LwIP/src/core/udp.c ****  */
1070:Middlewares/Third_Party/LwIP/src/core/udp.c **** err_t
1071:Middlewares/Third_Party/LwIP/src/core/udp.c **** udp_connect(struct udp_pcb *pcb, const ip_addr_t *ipaddr, u16_t port)
1072:Middlewares/Third_Party/LwIP/src/core/udp.c **** {
 1468              		.loc 1 1072 0
 1469              		.cfi_startproc
ARM GAS  /tmp/ccfwlTnO.s 			page 48


 1470              		@ args = 0, pretend = 0, frame = 0
 1471              		@ frame_needed = 0, uses_anonymous_args = 0
 1472              	.LVL222:
 1473 0000 70B5     		push	{r4, r5, r6, lr}
 1474              	.LCFI20:
 1475              		.cfi_def_cfa_offset 16
 1476              		.cfi_offset 4, -16
 1477              		.cfi_offset 5, -12
 1478              		.cfi_offset 6, -8
 1479              		.cfi_offset 14, -4
1073:Middlewares/Third_Party/LwIP/src/core/udp.c ****   struct udp_pcb *ipcb;
1074:Middlewares/Third_Party/LwIP/src/core/udp.c **** 
1075:Middlewares/Third_Party/LwIP/src/core/udp.c ****   LWIP_ASSERT_CORE_LOCKED();
1076:Middlewares/Third_Party/LwIP/src/core/udp.c **** 
1077:Middlewares/Third_Party/LwIP/src/core/udp.c ****   LWIP_ERROR("udp_connect: invalid pcb", pcb != NULL, return ERR_ARG);
 1480              		.loc 1 1077 0
 1481 0002 A0B1     		cbz	r0, .L174
 1482 0004 0D46     		mov	r5, r1
 1483 0006 1646     		mov	r6, r2
 1484 0008 0446     		mov	r4, r0
1078:Middlewares/Third_Party/LwIP/src/core/udp.c ****   LWIP_ERROR("udp_connect: invalid ipaddr", ipaddr != NULL, return ERR_ARG);
 1485              		.loc 1 1078 0
 1486 000a D1B1     		cbz	r1, .L175
1079:Middlewares/Third_Party/LwIP/src/core/udp.c **** 
1080:Middlewares/Third_Party/LwIP/src/core/udp.c ****   if (pcb->local_port == 0) {
 1487              		.loc 1 1080 0
 1488 000c 428A     		ldrh	r2, [r0, #18]
 1489              	.LVL223:
 1490 000e 12B3     		cbz	r2, .L176
 1491              	.LVL224:
 1492              	.L169:
1081:Middlewares/Third_Party/LwIP/src/core/udp.c ****     err_t err = udp_bind(pcb, &pcb->local_ip, pcb->local_port);
1082:Middlewares/Third_Party/LwIP/src/core/udp.c ****     if (err != ERR_OK) {
1083:Middlewares/Third_Party/LwIP/src/core/udp.c ****       return err;
1084:Middlewares/Third_Party/LwIP/src/core/udp.c ****     }
1085:Middlewares/Third_Party/LwIP/src/core/udp.c ****   }
1086:Middlewares/Third_Party/LwIP/src/core/udp.c **** 
1087:Middlewares/Third_Party/LwIP/src/core/udp.c ****   ip_addr_set_ipaddr(&pcb->remote_ip, ipaddr);
 1493              		.loc 1 1087 0
 1494 0010 2B68     		ldr	r3, [r5]
 1495 0012 6360     		str	r3, [r4, #4]
1088:Middlewares/Third_Party/LwIP/src/core/udp.c **** #if LWIP_IPV6 && LWIP_IPV6_SCOPES
1089:Middlewares/Third_Party/LwIP/src/core/udp.c ****   /* If the given IP address should have a zone but doesn't, assign one now,
1090:Middlewares/Third_Party/LwIP/src/core/udp.c ****    * using the bound address to make a more informed decision when possible. */
1091:Middlewares/Third_Party/LwIP/src/core/udp.c ****   if (IP_IS_V6(&pcb->remote_ip) &&
1092:Middlewares/Third_Party/LwIP/src/core/udp.c ****       ip6_addr_lacks_zone(ip_2_ip6(&pcb->remote_ip), IP6_UNKNOWN)) {
1093:Middlewares/Third_Party/LwIP/src/core/udp.c ****     ip6_addr_select_zone(ip_2_ip6(&pcb->remote_ip), ip_2_ip6(&pcb->local_ip));
1094:Middlewares/Third_Party/LwIP/src/core/udp.c ****   }
1095:Middlewares/Third_Party/LwIP/src/core/udp.c **** #endif /* LWIP_IPV6 && LWIP_IPV6_SCOPES */
1096:Middlewares/Third_Party/LwIP/src/core/udp.c **** 
1097:Middlewares/Third_Party/LwIP/src/core/udp.c ****   pcb->remote_port = port;
 1496              		.loc 1 1097 0
 1497 0014 A682     		strh	r6, [r4, #20]	@ movhi
1098:Middlewares/Third_Party/LwIP/src/core/udp.c ****   pcb->flags |= UDP_FLAGS_CONNECTED;
 1498              		.loc 1 1098 0
 1499 0016 237C     		ldrb	r3, [r4, #16]	@ zero_extendqisi2
 1500 0018 43F00403 		orr	r3, r3, #4
ARM GAS  /tmp/ccfwlTnO.s 			page 49


 1501 001c 2374     		strb	r3, [r4, #16]
1099:Middlewares/Third_Party/LwIP/src/core/udp.c **** 
1100:Middlewares/Third_Party/LwIP/src/core/udp.c ****   LWIP_DEBUGF(UDP_DEBUG | LWIP_DBG_TRACE | LWIP_DBG_STATE, ("udp_connect: connected to "));
1101:Middlewares/Third_Party/LwIP/src/core/udp.c ****   ip_addr_debug_print_val(UDP_DEBUG | LWIP_DBG_TRACE | LWIP_DBG_STATE,
1102:Middlewares/Third_Party/LwIP/src/core/udp.c ****                           pcb->remote_ip);
1103:Middlewares/Third_Party/LwIP/src/core/udp.c ****   LWIP_DEBUGF(UDP_DEBUG | LWIP_DBG_TRACE | LWIP_DBG_STATE, (", port %"U16_F")\n", pcb->remote_port)
1104:Middlewares/Third_Party/LwIP/src/core/udp.c **** 
1105:Middlewares/Third_Party/LwIP/src/core/udp.c ****   /* Insert UDP PCB into the list of active UDP PCBs. */
1106:Middlewares/Third_Party/LwIP/src/core/udp.c ****   for (ipcb = udp_pcbs; ipcb != NULL; ipcb = ipcb->next) {
 1502              		.loc 1 1106 0
 1503 001e 154B     		ldr	r3, .L178
 1504 0020 1A68     		ldr	r2, [r3]
 1505              	.LVL225:
 1506 0022 1346     		mov	r3, r2
 1507              	.LVL226:
 1508              	.L170:
 1509              		.loc 1 1106 0 is_stmt 0 discriminator 1
 1510 0024 F3B1     		cbz	r3, .L177
1107:Middlewares/Third_Party/LwIP/src/core/udp.c ****     if (pcb == ipcb) {
 1511              		.loc 1 1107 0 is_stmt 1
 1512 0026 A342     		cmp	r3, r4
 1513 0028 22D0     		beq	.L172
1106:Middlewares/Third_Party/LwIP/src/core/udp.c ****     if (pcb == ipcb) {
 1514              		.loc 1 1106 0 discriminator 2
 1515 002a DB68     		ldr	r3, [r3, #12]
 1516              	.LVL227:
 1517 002c FAE7     		b	.L170
 1518              	.LVL228:
 1519              	.L174:
1077:Middlewares/Third_Party/LwIP/src/core/udp.c ****   LWIP_ERROR("udp_connect: invalid ipaddr", ipaddr != NULL, return ERR_ARG);
 1520              		.loc 1 1077 0 discriminator 1
 1521 002e 124B     		ldr	r3, .L178+4
 1522 0030 40F23542 		movw	r2, #1077
 1523              	.LVL229:
 1524 0034 1149     		ldr	r1, .L178+8
 1525              	.LVL230:
 1526 0036 1248     		ldr	r0, .L178+12
 1527              	.LVL231:
 1528 0038 FFF7FEFF 		bl	printf
 1529              	.LVL232:
 1530 003c 6FF00F03 		mvn	r3, #15
 1531 0040 14E0     		b	.L167
 1532              	.LVL233:
 1533              	.L175:
1078:Middlewares/Third_Party/LwIP/src/core/udp.c **** 
 1534              		.loc 1 1078 0 discriminator 1
 1535 0042 0D4B     		ldr	r3, .L178+4
 1536 0044 40F23642 		movw	r2, #1078
 1537              	.LVL234:
 1538 0048 0E49     		ldr	r1, .L178+16
 1539              	.LVL235:
 1540 004a 0D48     		ldr	r0, .L178+12
 1541              	.LVL236:
 1542 004c FFF7FEFF 		bl	printf
 1543              	.LVL237:
 1544 0050 6FF00F03 		mvn	r3, #15
 1545 0054 0AE0     		b	.L167
ARM GAS  /tmp/ccfwlTnO.s 			page 50


 1546              	.LVL238:
 1547              	.L176:
 1548              	.LBB2:
1081:Middlewares/Third_Party/LwIP/src/core/udp.c ****     if (err != ERR_OK) {
 1549              		.loc 1 1081 0
 1550 0056 0146     		mov	r1, r0
 1551              	.LVL239:
 1552 0058 FFF7FEFF 		bl	udp_bind
 1553              	.LVL240:
1082:Middlewares/Third_Party/LwIP/src/core/udp.c ****       return err;
 1554              		.loc 1 1082 0
 1555 005c 0346     		mov	r3, r0
 1556 005e 0028     		cmp	r0, #0
 1557 0060 D6D0     		beq	.L169
 1558 0062 03E0     		b	.L167
 1559              	.LVL241:
 1560              	.L177:
 1561              	.LBE2:
1108:Middlewares/Third_Party/LwIP/src/core/udp.c ****       /* already on the list, just return */
1109:Middlewares/Third_Party/LwIP/src/core/udp.c ****       return ERR_OK;
1110:Middlewares/Third_Party/LwIP/src/core/udp.c ****     }
1111:Middlewares/Third_Party/LwIP/src/core/udp.c ****   }
1112:Middlewares/Third_Party/LwIP/src/core/udp.c ****   /* PCB not yet on the list, add PCB now */
1113:Middlewares/Third_Party/LwIP/src/core/udp.c ****   pcb->next = udp_pcbs;
 1562              		.loc 1 1113 0
 1563 0064 E260     		str	r2, [r4, #12]
1114:Middlewares/Third_Party/LwIP/src/core/udp.c ****   udp_pcbs = pcb;
 1564              		.loc 1 1114 0
 1565 0066 034B     		ldr	r3, .L178
 1566              	.LVL242:
 1567 0068 1C60     		str	r4, [r3]
1115:Middlewares/Third_Party/LwIP/src/core/udp.c ****   return ERR_OK;
 1568              		.loc 1 1115 0
 1569 006a 0023     		movs	r3, #0
 1570              	.LVL243:
 1571              	.L167:
1116:Middlewares/Third_Party/LwIP/src/core/udp.c **** }
 1572              		.loc 1 1116 0
 1573 006c 1846     		mov	r0, r3
 1574 006e 70BD     		pop	{r4, r5, r6, pc}
 1575              	.LVL244:
 1576              	.L172:
1109:Middlewares/Third_Party/LwIP/src/core/udp.c ****     }
 1577              		.loc 1 1109 0
 1578 0070 0023     		movs	r3, #0
 1579              	.LVL245:
 1580 0072 FBE7     		b	.L167
 1581              	.L179:
 1582              		.align	2
 1583              	.L178:
 1584 0074 00000000 		.word	udp_pcbs
 1585 0078 00000000 		.word	.LC0
 1586 007c 00000000 		.word	.LC23
 1587 0080 50000000 		.word	.LC2
 1588 0084 1C000000 		.word	.LC24
 1589              		.cfi_endproc
 1590              	.LFE168:
ARM GAS  /tmp/ccfwlTnO.s 			page 51


 1592              		.section	.text.udp_disconnect,"ax",%progbits
 1593              		.align	1
 1594              		.global	udp_disconnect
 1595              		.syntax unified
 1596              		.thumb
 1597              		.thumb_func
 1598              		.fpu fpv5-d16
 1600              	udp_disconnect:
 1601              	.LFB169:
1117:Middlewares/Third_Party/LwIP/src/core/udp.c **** 
1118:Middlewares/Third_Party/LwIP/src/core/udp.c **** /**
1119:Middlewares/Third_Party/LwIP/src/core/udp.c ****  * @ingroup udp_raw
1120:Middlewares/Third_Party/LwIP/src/core/udp.c ****  * Remove the remote end of the pcb. This function does not generate
1121:Middlewares/Third_Party/LwIP/src/core/udp.c ****  * any network traffic, but only removes the remote address of the pcb.
1122:Middlewares/Third_Party/LwIP/src/core/udp.c ****  *
1123:Middlewares/Third_Party/LwIP/src/core/udp.c ****  * @param pcb the udp pcb to disconnect.
1124:Middlewares/Third_Party/LwIP/src/core/udp.c ****  */
1125:Middlewares/Third_Party/LwIP/src/core/udp.c **** void
1126:Middlewares/Third_Party/LwIP/src/core/udp.c **** udp_disconnect(struct udp_pcb *pcb)
1127:Middlewares/Third_Party/LwIP/src/core/udp.c **** {
 1602              		.loc 1 1127 0
 1603              		.cfi_startproc
 1604              		@ args = 0, pretend = 0, frame = 0
 1605              		@ frame_needed = 0, uses_anonymous_args = 0
 1606              	.LVL246:
 1607 0000 08B5     		push	{r3, lr}
 1608              	.LCFI21:
 1609              		.cfi_def_cfa_offset 8
 1610              		.cfi_offset 3, -8
 1611              		.cfi_offset 14, -4
1128:Middlewares/Third_Party/LwIP/src/core/udp.c ****   LWIP_ASSERT_CORE_LOCKED();
1129:Middlewares/Third_Party/LwIP/src/core/udp.c **** 
1130:Middlewares/Third_Party/LwIP/src/core/udp.c ****   LWIP_ERROR("udp_disconnect: invalid pcb", pcb != NULL, return);
 1612              		.loc 1 1130 0
 1613 0002 40B1     		cbz	r0, .L184
1131:Middlewares/Third_Party/LwIP/src/core/udp.c **** 
1132:Middlewares/Third_Party/LwIP/src/core/udp.c ****   /* reset remote address association */
1133:Middlewares/Third_Party/LwIP/src/core/udp.c **** #if LWIP_IPV4 && LWIP_IPV6
1134:Middlewares/Third_Party/LwIP/src/core/udp.c ****   if (IP_IS_ANY_TYPE_VAL(pcb->local_ip)) {
1135:Middlewares/Third_Party/LwIP/src/core/udp.c ****     ip_addr_copy(pcb->remote_ip, *IP_ANY_TYPE);
1136:Middlewares/Third_Party/LwIP/src/core/udp.c ****   } else {
1137:Middlewares/Third_Party/LwIP/src/core/udp.c **** #endif
1138:Middlewares/Third_Party/LwIP/src/core/udp.c ****     ip_addr_set_any(IP_IS_V6_VAL(pcb->remote_ip), &pcb->remote_ip);
 1614              		.loc 1 1138 0
 1615 0004 0022     		movs	r2, #0
 1616 0006 4260     		str	r2, [r0, #4]
1139:Middlewares/Third_Party/LwIP/src/core/udp.c **** #if LWIP_IPV4 && LWIP_IPV6
1140:Middlewares/Third_Party/LwIP/src/core/udp.c ****   }
1141:Middlewares/Third_Party/LwIP/src/core/udp.c **** #endif
1142:Middlewares/Third_Party/LwIP/src/core/udp.c ****   pcb->remote_port = 0;
 1617              		.loc 1 1142 0
 1618 0008 8282     		strh	r2, [r0, #20]	@ movhi
1143:Middlewares/Third_Party/LwIP/src/core/udp.c ****   pcb->netif_idx = NETIF_NO_INDEX;
 1619              		.loc 1 1143 0
 1620 000a 0272     		strb	r2, [r0, #8]
1144:Middlewares/Third_Party/LwIP/src/core/udp.c ****   /* mark PCB as unconnected */
1145:Middlewares/Third_Party/LwIP/src/core/udp.c ****   udp_clear_flags(pcb, UDP_FLAGS_CONNECTED);
ARM GAS  /tmp/ccfwlTnO.s 			page 52


 1621              		.loc 1 1145 0
 1622 000c 027C     		ldrb	r2, [r0, #16]	@ zero_extendqisi2
 1623 000e 02F0FB02 		and	r2, r2, #251
 1624 0012 0274     		strb	r2, [r0, #16]
 1625 0014 08BD     		pop	{r3, pc}
 1626              	.L184:
1130:Middlewares/Third_Party/LwIP/src/core/udp.c **** 
 1627              		.loc 1 1130 0 discriminator 1
 1628 0016 044B     		ldr	r3, .L185
 1629 0018 40F26A42 		movw	r2, #1130
 1630 001c 0349     		ldr	r1, .L185+4
 1631 001e 0448     		ldr	r0, .L185+8
 1632              	.LVL247:
 1633 0020 FFF7FEFF 		bl	printf
 1634              	.LVL248:
 1635 0024 08BD     		pop	{r3, pc}
 1636              	.L186:
 1637 0026 00BF     		.align	2
 1638              	.L185:
 1639 0028 00000000 		.word	.LC0
 1640 002c 00000000 		.word	.LC25
 1641 0030 50000000 		.word	.LC2
 1642              		.cfi_endproc
 1643              	.LFE169:
 1645              		.section	.text.udp_recv,"ax",%progbits
 1646              		.align	1
 1647              		.global	udp_recv
 1648              		.syntax unified
 1649              		.thumb
 1650              		.thumb_func
 1651              		.fpu fpv5-d16
 1653              	udp_recv:
 1654              	.LFB170:
1146:Middlewares/Third_Party/LwIP/src/core/udp.c **** }
1147:Middlewares/Third_Party/LwIP/src/core/udp.c **** 
1148:Middlewares/Third_Party/LwIP/src/core/udp.c **** /**
1149:Middlewares/Third_Party/LwIP/src/core/udp.c ****  * @ingroup udp_raw
1150:Middlewares/Third_Party/LwIP/src/core/udp.c ****  * Set a receive callback for a UDP PCB.
1151:Middlewares/Third_Party/LwIP/src/core/udp.c ****  * This callback will be called when receiving a datagram for the pcb.
1152:Middlewares/Third_Party/LwIP/src/core/udp.c ****  *
1153:Middlewares/Third_Party/LwIP/src/core/udp.c ****  * @param pcb the pcb for which to set the recv callback
1154:Middlewares/Third_Party/LwIP/src/core/udp.c ****  * @param recv function pointer of the callback function
1155:Middlewares/Third_Party/LwIP/src/core/udp.c ****  * @param recv_arg additional argument to pass to the callback function
1156:Middlewares/Third_Party/LwIP/src/core/udp.c ****  */
1157:Middlewares/Third_Party/LwIP/src/core/udp.c **** void
1158:Middlewares/Third_Party/LwIP/src/core/udp.c **** udp_recv(struct udp_pcb *pcb, udp_recv_fn recv, void *recv_arg)
1159:Middlewares/Third_Party/LwIP/src/core/udp.c **** {
 1655              		.loc 1 1159 0
 1656              		.cfi_startproc
 1657              		@ args = 0, pretend = 0, frame = 0
 1658              		@ frame_needed = 0, uses_anonymous_args = 0
 1659              	.LVL249:
 1660 0000 08B5     		push	{r3, lr}
 1661              	.LCFI22:
 1662              		.cfi_def_cfa_offset 8
 1663              		.cfi_offset 3, -8
 1664              		.cfi_offset 14, -4
ARM GAS  /tmp/ccfwlTnO.s 			page 53


1160:Middlewares/Third_Party/LwIP/src/core/udp.c ****   LWIP_ASSERT_CORE_LOCKED();
1161:Middlewares/Third_Party/LwIP/src/core/udp.c **** 
1162:Middlewares/Third_Party/LwIP/src/core/udp.c ****   LWIP_ERROR("udp_recv: invalid pcb", pcb != NULL, return);
 1665              		.loc 1 1162 0
 1666 0002 10B1     		cbz	r0, .L191
1163:Middlewares/Third_Party/LwIP/src/core/udp.c **** 
1164:Middlewares/Third_Party/LwIP/src/core/udp.c ****   /* remember recv() callback and user data */
1165:Middlewares/Third_Party/LwIP/src/core/udp.c ****   pcb->recv = recv;
 1667              		.loc 1 1165 0
 1668 0004 8161     		str	r1, [r0, #24]
1166:Middlewares/Third_Party/LwIP/src/core/udp.c ****   pcb->recv_arg = recv_arg;
 1669              		.loc 1 1166 0
 1670 0006 C261     		str	r2, [r0, #28]
 1671 0008 08BD     		pop	{r3, pc}
 1672              	.L191:
1162:Middlewares/Third_Party/LwIP/src/core/udp.c **** 
 1673              		.loc 1 1162 0 discriminator 1
 1674 000a 044B     		ldr	r3, .L192
 1675 000c 40F28A42 		movw	r2, #1162
 1676              	.LVL250:
 1677 0010 0349     		ldr	r1, .L192+4
 1678              	.LVL251:
 1679 0012 0448     		ldr	r0, .L192+8
 1680              	.LVL252:
 1681 0014 FFF7FEFF 		bl	printf
 1682              	.LVL253:
 1683 0018 08BD     		pop	{r3, pc}
 1684              	.L193:
 1685 001a 00BF     		.align	2
 1686              	.L192:
 1687 001c 00000000 		.word	.LC0
 1688 0020 00000000 		.word	.LC26
 1689 0024 50000000 		.word	.LC2
 1690              		.cfi_endproc
 1691              	.LFE170:
 1693              		.section	.text.udp_remove,"ax",%progbits
 1694              		.align	1
 1695              		.global	udp_remove
 1696              		.syntax unified
 1697              		.thumb
 1698              		.thumb_func
 1699              		.fpu fpv5-d16
 1701              	udp_remove:
 1702              	.LFB171:
1167:Middlewares/Third_Party/LwIP/src/core/udp.c **** }
1168:Middlewares/Third_Party/LwIP/src/core/udp.c **** 
1169:Middlewares/Third_Party/LwIP/src/core/udp.c **** /**
1170:Middlewares/Third_Party/LwIP/src/core/udp.c ****  * @ingroup udp_raw
1171:Middlewares/Third_Party/LwIP/src/core/udp.c ****  * Removes and deallocates the pcb.  
1172:Middlewares/Third_Party/LwIP/src/core/udp.c ****  * 
1173:Middlewares/Third_Party/LwIP/src/core/udp.c ****  * @param pcb UDP PCB to be removed. The PCB is removed from the list of
1174:Middlewares/Third_Party/LwIP/src/core/udp.c ****  * UDP PCB's and the data structure is freed from memory.
1175:Middlewares/Third_Party/LwIP/src/core/udp.c ****  *
1176:Middlewares/Third_Party/LwIP/src/core/udp.c ****  * @see udp_new()
1177:Middlewares/Third_Party/LwIP/src/core/udp.c ****  */
1178:Middlewares/Third_Party/LwIP/src/core/udp.c **** void
1179:Middlewares/Third_Party/LwIP/src/core/udp.c **** udp_remove(struct udp_pcb *pcb)
ARM GAS  /tmp/ccfwlTnO.s 			page 54


1180:Middlewares/Third_Party/LwIP/src/core/udp.c **** {
 1703              		.loc 1 1180 0
 1704              		.cfi_startproc
 1705              		@ args = 0, pretend = 0, frame = 0
 1706              		@ frame_needed = 0, uses_anonymous_args = 0
 1707              	.LVL254:
 1708 0000 08B5     		push	{r3, lr}
 1709              	.LCFI23:
 1710              		.cfi_def_cfa_offset 8
 1711              		.cfi_offset 3, -8
 1712              		.cfi_offset 14, -4
1181:Middlewares/Third_Party/LwIP/src/core/udp.c ****   struct udp_pcb *pcb2;
1182:Middlewares/Third_Party/LwIP/src/core/udp.c **** 
1183:Middlewares/Third_Party/LwIP/src/core/udp.c ****   LWIP_ASSERT_CORE_LOCKED();
1184:Middlewares/Third_Party/LwIP/src/core/udp.c **** 
1185:Middlewares/Third_Party/LwIP/src/core/udp.c ****   LWIP_ERROR("udp_remove: invalid pcb", pcb != NULL, return);
 1713              		.loc 1 1185 0
 1714 0002 38B1     		cbz	r0, .L203
 1715 0004 0146     		mov	r1, r0
1186:Middlewares/Third_Party/LwIP/src/core/udp.c **** 
1187:Middlewares/Third_Party/LwIP/src/core/udp.c ****   mib2_udp_unbind(pcb);
1188:Middlewares/Third_Party/LwIP/src/core/udp.c ****   /* pcb to be removed is first in list? */
1189:Middlewares/Third_Party/LwIP/src/core/udp.c ****   if (udp_pcbs == pcb) {
 1716              		.loc 1 1189 0
 1717 0006 0F4B     		ldr	r3, .L205
 1718 0008 1A68     		ldr	r2, [r3]
 1719 000a 9042     		cmp	r0, r2
 1720 000c 11D1     		bne	.L197
1190:Middlewares/Third_Party/LwIP/src/core/udp.c ****     /* make list start at 2nd pcb */
1191:Middlewares/Third_Party/LwIP/src/core/udp.c ****     udp_pcbs = udp_pcbs->next;
 1721              		.loc 1 1191 0
 1722 000e D268     		ldr	r2, [r2, #12]
 1723 0010 1A60     		str	r2, [r3]
 1724 0012 09E0     		b	.L198
 1725              	.L203:
1185:Middlewares/Third_Party/LwIP/src/core/udp.c **** 
 1726              		.loc 1 1185 0 discriminator 1
 1727 0014 0C4B     		ldr	r3, .L205+4
 1728 0016 40F2A142 		movw	r2, #1185
 1729 001a 0C49     		ldr	r1, .L205+8
 1730 001c 0C48     		ldr	r0, .L205+12
 1731              	.LVL255:
 1732 001e FFF7FEFF 		bl	printf
 1733              	.LVL256:
 1734 0022 08BD     		pop	{r3, pc}
 1735              	.LVL257:
 1736              	.L204:
1192:Middlewares/Third_Party/LwIP/src/core/udp.c ****     /* pcb not 1st in list */
1193:Middlewares/Third_Party/LwIP/src/core/udp.c ****   } else {
1194:Middlewares/Third_Party/LwIP/src/core/udp.c ****     for (pcb2 = udp_pcbs; pcb2 != NULL; pcb2 = pcb2->next) {
1195:Middlewares/Third_Party/LwIP/src/core/udp.c ****       /* find pcb in udp_pcbs list */
1196:Middlewares/Third_Party/LwIP/src/core/udp.c ****       if (pcb2->next != NULL && pcb2->next == pcb) {
1197:Middlewares/Third_Party/LwIP/src/core/udp.c ****         /* remove pcb from list */
1198:Middlewares/Third_Party/LwIP/src/core/udp.c ****         pcb2->next = pcb->next;
 1737              		.loc 1 1198 0
 1738 0024 CB68     		ldr	r3, [r1, #12]
 1739 0026 D360     		str	r3, [r2, #12]
ARM GAS  /tmp/ccfwlTnO.s 			page 55


 1740              	.LVL258:
 1741              	.L198:
1199:Middlewares/Third_Party/LwIP/src/core/udp.c ****         break;
1200:Middlewares/Third_Party/LwIP/src/core/udp.c ****       }
1201:Middlewares/Third_Party/LwIP/src/core/udp.c ****     }
1202:Middlewares/Third_Party/LwIP/src/core/udp.c ****   }
1203:Middlewares/Third_Party/LwIP/src/core/udp.c ****   memp_free(MEMP_UDP_PCB, pcb);
 1742              		.loc 1 1203 0
 1743 0028 0020     		movs	r0, #0
 1744              	.LVL259:
 1745 002a FFF7FEFF 		bl	memp_free
 1746              	.LVL260:
 1747 002e 08BD     		pop	{r3, pc}
 1748              	.LVL261:
 1749              	.L200:
 1750 0030 1A46     		mov	r2, r3
 1751              	.LVL262:
 1752              	.L197:
1194:Middlewares/Third_Party/LwIP/src/core/udp.c ****       /* find pcb in udp_pcbs list */
 1753              		.loc 1 1194 0 discriminator 1
 1754 0032 002A     		cmp	r2, #0
 1755 0034 F8D0     		beq	.L198
1196:Middlewares/Third_Party/LwIP/src/core/udp.c ****         /* remove pcb from list */
 1756              		.loc 1 1196 0
 1757 0036 D368     		ldr	r3, [r2, #12]
 1758 0038 002B     		cmp	r3, #0
 1759 003a F9D0     		beq	.L200
1196:Middlewares/Third_Party/LwIP/src/core/udp.c ****         /* remove pcb from list */
 1760              		.loc 1 1196 0 is_stmt 0 discriminator 1
 1761 003c 9942     		cmp	r1, r3
 1762 003e F1D0     		beq	.L204
 1763 0040 1A46     		mov	r2, r3
 1764              	.LVL263:
 1765 0042 F6E7     		b	.L197
 1766              	.L206:
 1767              		.align	2
 1768              	.L205:
 1769 0044 00000000 		.word	udp_pcbs
 1770 0048 00000000 		.word	.LC0
 1771 004c 00000000 		.word	.LC27
 1772 0050 50000000 		.word	.LC2
 1773              		.cfi_endproc
 1774              	.LFE171:
 1776              		.section	.text.udp_new,"ax",%progbits
 1777              		.align	1
 1778              		.global	udp_new
 1779              		.syntax unified
 1780              		.thumb
 1781              		.thumb_func
 1782              		.fpu fpv5-d16
 1784              	udp_new:
 1785              	.LFB172:
1204:Middlewares/Third_Party/LwIP/src/core/udp.c **** }
1205:Middlewares/Third_Party/LwIP/src/core/udp.c **** 
1206:Middlewares/Third_Party/LwIP/src/core/udp.c **** /**
1207:Middlewares/Third_Party/LwIP/src/core/udp.c ****  * @ingroup udp_raw
1208:Middlewares/Third_Party/LwIP/src/core/udp.c ****  * Creates a new UDP pcb which can be used for UDP communication. The
ARM GAS  /tmp/ccfwlTnO.s 			page 56


1209:Middlewares/Third_Party/LwIP/src/core/udp.c ****  * pcb is not active until it has either been bound to a local address
1210:Middlewares/Third_Party/LwIP/src/core/udp.c ****  * or connected to a remote address.
1211:Middlewares/Third_Party/LwIP/src/core/udp.c ****  *
1212:Middlewares/Third_Party/LwIP/src/core/udp.c ****  * @return The UDP PCB which was created. NULL if the PCB data structure
1213:Middlewares/Third_Party/LwIP/src/core/udp.c ****  * could not be allocated.
1214:Middlewares/Third_Party/LwIP/src/core/udp.c ****  *
1215:Middlewares/Third_Party/LwIP/src/core/udp.c ****  * @see udp_remove()
1216:Middlewares/Third_Party/LwIP/src/core/udp.c ****  */
1217:Middlewares/Third_Party/LwIP/src/core/udp.c **** struct udp_pcb *
1218:Middlewares/Third_Party/LwIP/src/core/udp.c **** udp_new(void)
1219:Middlewares/Third_Party/LwIP/src/core/udp.c **** {
 1786              		.loc 1 1219 0 is_stmt 1
 1787              		.cfi_startproc
 1788              		@ args = 0, pretend = 0, frame = 0
 1789              		@ frame_needed = 0, uses_anonymous_args = 0
 1790 0000 10B5     		push	{r4, lr}
 1791              	.LCFI24:
 1792              		.cfi_def_cfa_offset 8
 1793              		.cfi_offset 4, -8
 1794              		.cfi_offset 14, -4
1220:Middlewares/Third_Party/LwIP/src/core/udp.c ****   struct udp_pcb *pcb;
1221:Middlewares/Third_Party/LwIP/src/core/udp.c **** 
1222:Middlewares/Third_Party/LwIP/src/core/udp.c ****   LWIP_ASSERT_CORE_LOCKED();
1223:Middlewares/Third_Party/LwIP/src/core/udp.c **** 
1224:Middlewares/Third_Party/LwIP/src/core/udp.c ****   pcb = (struct udp_pcb *)memp_malloc(MEMP_UDP_PCB);
 1795              		.loc 1 1224 0
 1796 0002 0020     		movs	r0, #0
 1797 0004 FFF7FEFF 		bl	memp_malloc
 1798              	.LVL264:
1225:Middlewares/Third_Party/LwIP/src/core/udp.c ****   /* could allocate UDP PCB? */
1226:Middlewares/Third_Party/LwIP/src/core/udp.c ****   if (pcb != NULL) {
 1799              		.loc 1 1226 0
 1800 0008 0446     		mov	r4, r0
 1801 000a 28B1     		cbz	r0, .L207
1227:Middlewares/Third_Party/LwIP/src/core/udp.c ****     /* UDP Lite: by initializing to all zeroes, chksum_len is set to 0
1228:Middlewares/Third_Party/LwIP/src/core/udp.c ****      * which means checksum is generated over the whole datagram per default
1229:Middlewares/Third_Party/LwIP/src/core/udp.c ****      * (recommended as default by RFC 3828). */
1230:Middlewares/Third_Party/LwIP/src/core/udp.c ****     /* initialize PCB to all zeroes */
1231:Middlewares/Third_Party/LwIP/src/core/udp.c ****     memset(pcb, 0, sizeof(struct udp_pcb));
 1802              		.loc 1 1231 0
 1803 000c 2022     		movs	r2, #32
 1804 000e 0021     		movs	r1, #0
 1805 0010 FFF7FEFF 		bl	memset
 1806              	.LVL265:
1232:Middlewares/Third_Party/LwIP/src/core/udp.c ****     pcb->ttl = UDP_TTL;
 1807              		.loc 1 1232 0
 1808 0014 FF23     		movs	r3, #255
 1809 0016 E372     		strb	r3, [r4, #11]
 1810              	.L207:
1233:Middlewares/Third_Party/LwIP/src/core/udp.c **** #if LWIP_MULTICAST_TX_OPTIONS
1234:Middlewares/Third_Party/LwIP/src/core/udp.c ****     udp_set_multicast_ttl(pcb, UDP_TTL);
1235:Middlewares/Third_Party/LwIP/src/core/udp.c **** #endif /* LWIP_MULTICAST_TX_OPTIONS */
1236:Middlewares/Third_Party/LwIP/src/core/udp.c ****   }
1237:Middlewares/Third_Party/LwIP/src/core/udp.c ****   return pcb;
1238:Middlewares/Third_Party/LwIP/src/core/udp.c **** }
 1811              		.loc 1 1238 0
 1812 0018 2046     		mov	r0, r4
ARM GAS  /tmp/ccfwlTnO.s 			page 57


 1813 001a 10BD     		pop	{r4, pc}
 1814              		.cfi_endproc
 1815              	.LFE172:
 1817              		.section	.text.udp_new_ip_type,"ax",%progbits
 1818              		.align	1
 1819              		.global	udp_new_ip_type
 1820              		.syntax unified
 1821              		.thumb
 1822              		.thumb_func
 1823              		.fpu fpv5-d16
 1825              	udp_new_ip_type:
 1826              	.LFB173:
1239:Middlewares/Third_Party/LwIP/src/core/udp.c **** 
1240:Middlewares/Third_Party/LwIP/src/core/udp.c **** /**
1241:Middlewares/Third_Party/LwIP/src/core/udp.c ****  * @ingroup udp_raw
1242:Middlewares/Third_Party/LwIP/src/core/udp.c ****  * Create a UDP PCB for specific IP type.
1243:Middlewares/Third_Party/LwIP/src/core/udp.c ****  * The pcb is not active until it has either been bound to a local address
1244:Middlewares/Third_Party/LwIP/src/core/udp.c ****  * or connected to a remote address.
1245:Middlewares/Third_Party/LwIP/src/core/udp.c ****  * 
1246:Middlewares/Third_Party/LwIP/src/core/udp.c ****  * @param type IP address type, see @ref lwip_ip_addr_type definitions.
1247:Middlewares/Third_Party/LwIP/src/core/udp.c ****  * If you want to listen to IPv4 and IPv6 (dual-stack) packets,
1248:Middlewares/Third_Party/LwIP/src/core/udp.c ****  * supply @ref IPADDR_TYPE_ANY as argument and bind to @ref IP_ANY_TYPE.
1249:Middlewares/Third_Party/LwIP/src/core/udp.c ****  * @return The UDP PCB which was created. NULL if the PCB data structure
1250:Middlewares/Third_Party/LwIP/src/core/udp.c ****  * could not be allocated.
1251:Middlewares/Third_Party/LwIP/src/core/udp.c ****  *
1252:Middlewares/Third_Party/LwIP/src/core/udp.c ****  * @see udp_remove()
1253:Middlewares/Third_Party/LwIP/src/core/udp.c ****  */
1254:Middlewares/Third_Party/LwIP/src/core/udp.c **** struct udp_pcb *
1255:Middlewares/Third_Party/LwIP/src/core/udp.c **** udp_new_ip_type(u8_t type)
1256:Middlewares/Third_Party/LwIP/src/core/udp.c **** {
 1827              		.loc 1 1256 0
 1828              		.cfi_startproc
 1829              		@ args = 0, pretend = 0, frame = 0
 1830              		@ frame_needed = 0, uses_anonymous_args = 0
 1831              	.LVL266:
 1832 0000 08B5     		push	{r3, lr}
 1833              	.LCFI25:
 1834              		.cfi_def_cfa_offset 8
 1835              		.cfi_offset 3, -8
 1836              		.cfi_offset 14, -4
1257:Middlewares/Third_Party/LwIP/src/core/udp.c ****   struct udp_pcb *pcb;
1258:Middlewares/Third_Party/LwIP/src/core/udp.c **** 
1259:Middlewares/Third_Party/LwIP/src/core/udp.c ****   LWIP_ASSERT_CORE_LOCKED();
1260:Middlewares/Third_Party/LwIP/src/core/udp.c **** 
1261:Middlewares/Third_Party/LwIP/src/core/udp.c ****   pcb = udp_new();
 1837              		.loc 1 1261 0
 1838 0002 FFF7FEFF 		bl	udp_new
 1839              	.LVL267:
1262:Middlewares/Third_Party/LwIP/src/core/udp.c **** #if LWIP_IPV4 && LWIP_IPV6
1263:Middlewares/Third_Party/LwIP/src/core/udp.c ****   if (pcb != NULL) {
1264:Middlewares/Third_Party/LwIP/src/core/udp.c ****     IP_SET_TYPE_VAL(pcb->local_ip,  type);
1265:Middlewares/Third_Party/LwIP/src/core/udp.c ****     IP_SET_TYPE_VAL(pcb->remote_ip, type);
1266:Middlewares/Third_Party/LwIP/src/core/udp.c ****   }
1267:Middlewares/Third_Party/LwIP/src/core/udp.c **** #else
1268:Middlewares/Third_Party/LwIP/src/core/udp.c ****   LWIP_UNUSED_ARG(type);
1269:Middlewares/Third_Party/LwIP/src/core/udp.c **** #endif /* LWIP_IPV4 && LWIP_IPV6 */
1270:Middlewares/Third_Party/LwIP/src/core/udp.c ****   return pcb;
ARM GAS  /tmp/ccfwlTnO.s 			page 58


1271:Middlewares/Third_Party/LwIP/src/core/udp.c **** }
 1840              		.loc 1 1271 0
 1841 0006 08BD     		pop	{r3, pc}
 1842              		.cfi_endproc
 1843              	.LFE173:
 1845              		.section	.text.udp_netif_ip_addr_changed,"ax",%progbits
 1846              		.align	1
 1847              		.global	udp_netif_ip_addr_changed
 1848              		.syntax unified
 1849              		.thumb
 1850              		.thumb_func
 1851              		.fpu fpv5-d16
 1853              	udp_netif_ip_addr_changed:
 1854              	.LFB174:
1272:Middlewares/Third_Party/LwIP/src/core/udp.c **** 
1273:Middlewares/Third_Party/LwIP/src/core/udp.c **** /** This function is called from netif.c when address is changed
1274:Middlewares/Third_Party/LwIP/src/core/udp.c ****  *
1275:Middlewares/Third_Party/LwIP/src/core/udp.c ****  * @param old_addr IP address of the netif before change
1276:Middlewares/Third_Party/LwIP/src/core/udp.c ****  * @param new_addr IP address of the netif after change
1277:Middlewares/Third_Party/LwIP/src/core/udp.c ****  */
1278:Middlewares/Third_Party/LwIP/src/core/udp.c **** void udp_netif_ip_addr_changed(const ip_addr_t *old_addr, const ip_addr_t *new_addr)
1279:Middlewares/Third_Party/LwIP/src/core/udp.c **** {
 1855              		.loc 1 1279 0
 1856              		.cfi_startproc
 1857              		@ args = 0, pretend = 0, frame = 0
 1858              		@ frame_needed = 0, uses_anonymous_args = 0
 1859              		@ link register save eliminated.
 1860              	.LVL268:
1280:Middlewares/Third_Party/LwIP/src/core/udp.c ****   struct udp_pcb *upcb;
1281:Middlewares/Third_Party/LwIP/src/core/udp.c **** 
1282:Middlewares/Third_Party/LwIP/src/core/udp.c ****   if (!ip_addr_isany(old_addr) && !ip_addr_isany(new_addr)) {
 1861              		.loc 1 1282 0
 1862 0000 A0B1     		cbz	r0, .L221
1279:Middlewares/Third_Party/LwIP/src/core/udp.c ****   struct udp_pcb *upcb;
 1863              		.loc 1 1279 0 discriminator 1
 1864 0002 10B4     		push	{r4}
 1865              	.LCFI26:
 1866              		.cfi_def_cfa_offset 4
 1867              		.cfi_offset 4, -4
 1868 0004 0446     		mov	r4, r0
 1869              		.loc 1 1282 0 discriminator 1
 1870 0006 0368     		ldr	r3, [r0]
 1871 0008 73B1     		cbz	r3, .L212
 1872              		.loc 1 1282 0 is_stmt 0 discriminator 2
 1873 000a 69B1     		cbz	r1, .L212
 1874              		.loc 1 1282 0 discriminator 3
 1875 000c 0B68     		ldr	r3, [r1]
 1876 000e 5BB1     		cbz	r3, .L212
1283:Middlewares/Third_Party/LwIP/src/core/udp.c ****     for (upcb = udp_pcbs; upcb != NULL; upcb = upcb->next) {
 1877              		.loc 1 1283 0 is_stmt 1
 1878 0010 074B     		ldr	r3, .L222
 1879 0012 1B68     		ldr	r3, [r3]
 1880              	.LVL269:
 1881 0014 00E0     		b	.L214
 1882              	.LVL270:
 1883              	.L215:
 1884              		.loc 1 1283 0 is_stmt 0 discriminator 2
ARM GAS  /tmp/ccfwlTnO.s 			page 59


 1885 0016 DB68     		ldr	r3, [r3, #12]
 1886              	.LVL271:
 1887              	.L214:
 1888              		.loc 1 1283 0 discriminator 1
 1889 0018 33B1     		cbz	r3, .L212
1284:Middlewares/Third_Party/LwIP/src/core/udp.c ****       /* PCB bound to current local interface address? */
1285:Middlewares/Third_Party/LwIP/src/core/udp.c ****       if (ip_addr_cmp(&upcb->local_ip, old_addr)) {
 1890              		.loc 1 1285 0 is_stmt 1
 1891 001a 1868     		ldr	r0, [r3]
 1892 001c 2268     		ldr	r2, [r4]
 1893 001e 9042     		cmp	r0, r2
 1894 0020 F9D1     		bne	.L215
1286:Middlewares/Third_Party/LwIP/src/core/udp.c ****         /* The PCB is bound to the old ipaddr and
1287:Middlewares/Third_Party/LwIP/src/core/udp.c ****          * is set to bound to the new one instead */
1288:Middlewares/Third_Party/LwIP/src/core/udp.c ****         ip_addr_copy(upcb->local_ip, *new_addr);
 1895              		.loc 1 1288 0
 1896 0022 0A68     		ldr	r2, [r1]
 1897 0024 1A60     		str	r2, [r3]
 1898 0026 F6E7     		b	.L215
 1899              	.LVL272:
 1900              	.L212:
1289:Middlewares/Third_Party/LwIP/src/core/udp.c ****       }
1290:Middlewares/Third_Party/LwIP/src/core/udp.c ****     }
1291:Middlewares/Third_Party/LwIP/src/core/udp.c ****   }
1292:Middlewares/Third_Party/LwIP/src/core/udp.c **** }
 1901              		.loc 1 1292 0
 1902 0028 5DF8044B 		ldr	r4, [sp], #4
 1903              	.LCFI27:
 1904              		.cfi_restore 4
 1905              		.cfi_def_cfa_offset 0
 1906              	.LVL273:
 1907              	.L221:
 1908 002c 7047     		bx	lr
 1909              	.L223:
 1910 002e 00BF     		.align	2
 1911              	.L222:
 1912 0030 00000000 		.word	udp_pcbs
 1913              		.cfi_endproc
 1914              	.LFE174:
 1916              		.comm	udp_pcbs,4,4
 1917              		.section	.data.udp_port,"aw",%progbits
 1918              		.align	1
 1919              		.set	.LANCHOR0,. + 0
 1922              	udp_port:
 1923 0000 00C0     		.short	-16384
 1924              		.section	.rodata.udp_bind.str1.4,"aMS",%progbits,1
 1925              		.align	2
 1926              	.LC7:
 1927 0000 7564705F 		.ascii	"udp_bind: invalid pcb\000"
 1927      62696E64 
 1927      3A20696E 
 1927      76616C69 
 1927      64207063 
 1928              		.section	.rodata.udp_connect.str1.4,"aMS",%progbits,1
 1929              		.align	2
 1930              	.LC23:
 1931 0000 7564705F 		.ascii	"udp_connect: invalid pcb\000"
ARM GAS  /tmp/ccfwlTnO.s 			page 60


 1931      636F6E6E 
 1931      6563743A 
 1931      20696E76 
 1931      616C6964 
 1932 0019 000000   		.space	3
 1933              	.LC24:
 1934 001c 7564705F 		.ascii	"udp_connect: invalid ipaddr\000"
 1934      636F6E6E 
 1934      6563743A 
 1934      20696E76 
 1934      616C6964 
 1935              		.section	.rodata.udp_disconnect.str1.4,"aMS",%progbits,1
 1936              		.align	2
 1937              	.LC25:
 1938 0000 7564705F 		.ascii	"udp_disconnect: invalid pcb\000"
 1938      64697363 
 1938      6F6E6E65 
 1938      63743A20 
 1938      696E7661 
 1939              		.section	.rodata.udp_input.str1.4,"aMS",%progbits,1
 1940              		.align	2
 1941              	.LC4:
 1942 0000 7564705F 		.ascii	"udp_input: invalid pbuf\000"
 1942      696E7075 
 1942      743A2069 
 1942      6E76616C 
 1942      69642070 
 1943              	.LC5:
 1944 0018 7564705F 		.ascii	"udp_input: invalid netif\000"
 1944      696E7075 
 1944      743A2069 
 1944      6E76616C 
 1944      6964206E 
 1945 0031 000000   		.space	3
 1946              	.LC6:
 1947 0034 70627566 		.ascii	"pbuf_remove_header failed\012\000"
 1947      5F72656D 
 1947      6F76655F 
 1947      68656164 
 1947      65722066 
 1948              		.section	.rodata.udp_input_local_match.str1.4,"aMS",%progbits,1
 1949              		.align	2
 1950              	.LC0:
 1951 0000 4D696464 		.ascii	"Middlewares/Third_Party/LwIP/src/core/udp.c\000"
 1951      6C657761 
 1951      7265732F 
 1951      54686972 
 1951      645F5061 
 1952              	.LC1:
 1953 002c 7564705F 		.ascii	"udp_input_local_match: invalid pcb\000"
 1953      696E7075 
 1953      745F6C6F 
 1953      63616C5F 
 1953      6D617463 
 1954 004f 00       		.space	1
 1955              	.LC2:
 1956 0050 41737365 		.ascii	"Assertion \"%s\" failed at line %d in %s\012\000"
ARM GAS  /tmp/ccfwlTnO.s 			page 61


 1956      7274696F 
 1956      6E202225 
 1956      73222066 
 1956      61696C65 
 1957              	.LC3:
 1958 0078 7564705F 		.ascii	"udp_input_local_match: invalid netif\000"
 1958      696E7075 
 1958      745F6C6F 
 1958      63616C5F 
 1958      6D617463 
 1959              		.section	.rodata.udp_recv.str1.4,"aMS",%progbits,1
 1960              		.align	2
 1961              	.LC26:
 1962 0000 7564705F 		.ascii	"udp_recv: invalid pcb\000"
 1962      72656376 
 1962      3A20696E 
 1962      76616C69 
 1962      64207063 
 1963              		.section	.rodata.udp_remove.str1.4,"aMS",%progbits,1
 1964              		.align	2
 1965              	.LC27:
 1966 0000 7564705F 		.ascii	"udp_remove: invalid pcb\000"
 1966      72656D6F 
 1966      76653A20 
 1966      696E7661 
 1966      6C696420 
 1967              		.section	.rodata.udp_send.str1.4,"aMS",%progbits,1
 1968              		.align	2
 1969              	.LC21:
 1970 0000 7564705F 		.ascii	"udp_send: invalid pcb\000"
 1970      73656E64 
 1970      3A20696E 
 1970      76616C69 
 1970      64207063 
 1971 0016 0000     		.space	2
 1972              	.LC22:
 1973 0018 7564705F 		.ascii	"udp_send: invalid pbuf\000"
 1973      73656E64 
 1973      3A20696E 
 1973      76616C69 
 1973      64207062 
 1974              		.section	.rodata.udp_sendto.str1.4,"aMS",%progbits,1
 1975              		.align	2
 1976              	.LC18:
 1977 0000 7564705F 		.ascii	"udp_sendto: invalid pcb\000"
 1977      73656E64 
 1977      746F3A20 
 1977      696E7661 
 1977      6C696420 
 1978              	.LC19:
 1979 0018 7564705F 		.ascii	"udp_sendto: invalid pbuf\000"
 1979      73656E64 
 1979      746F3A20 
 1979      696E7661 
 1979      6C696420 
 1980 0031 000000   		.space	3
 1981              	.LC20:
ARM GAS  /tmp/ccfwlTnO.s 			page 62


 1982 0034 7564705F 		.ascii	"udp_sendto: invalid dst_ip\000"
 1982      73656E64 
 1982      746F3A20 
 1982      696E7661 
 1982      6C696420 
 1983              		.section	.rodata.udp_sendto_if.str1.4,"aMS",%progbits,1
 1984              		.align	2
 1985              	.LC14:
 1986 0000 7564705F 		.ascii	"udp_sendto_if: invalid pcb\000"
 1986      73656E64 
 1986      746F5F69 
 1986      663A2069 
 1986      6E76616C 
 1987 001b 00       		.space	1
 1988              	.LC15:
 1989 001c 7564705F 		.ascii	"udp_sendto_if: invalid pbuf\000"
 1989      73656E64 
 1989      746F5F69 
 1989      663A2069 
 1989      6E76616C 
 1990              	.LC16:
 1991 0038 7564705F 		.ascii	"udp_sendto_if: invalid dst_ip\000"
 1991      73656E64 
 1991      746F5F69 
 1991      663A2069 
 1991      6E76616C 
 1992 0056 0000     		.space	2
 1993              	.LC17:
 1994 0058 7564705F 		.ascii	"udp_sendto_if: invalid netif\000"
 1994      73656E64 
 1994      746F5F69 
 1994      663A2069 
 1994      6E76616C 
 1995              		.section	.rodata.udp_sendto_if_src.str1.4,"aMS",%progbits,1
 1996              		.align	2
 1997              	.LC8:
 1998 0000 7564705F 		.ascii	"udp_sendto_if_src: invalid pcb\000"
 1998      73656E64 
 1998      746F5F69 
 1998      665F7372 
 1998      633A2069 
 1999 001f 00       		.space	1
 2000              	.LC9:
 2001 0020 7564705F 		.ascii	"udp_sendto_if_src: invalid pbuf\000"
 2001      73656E64 
 2001      746F5F69 
 2001      665F7372 
 2001      633A2069 
 2002              	.LC10:
 2003 0040 7564705F 		.ascii	"udp_sendto_if_src: invalid dst_ip\000"
 2003      73656E64 
 2003      746F5F69 
 2003      665F7372 
 2003      633A2069 
 2004 0062 0000     		.space	2
 2005              	.LC11:
 2006 0064 7564705F 		.ascii	"udp_sendto_if_src: invalid src_ip\000"
ARM GAS  /tmp/ccfwlTnO.s 			page 63


 2006      73656E64 
 2006      746F5F69 
 2006      665F7372 
 2006      633A2069 
 2007 0086 0000     		.space	2
 2008              	.LC12:
 2009 0088 7564705F 		.ascii	"udp_sendto_if_src: invalid netif\000"
 2009      73656E64 
 2009      746F5F69 
 2009      665F7372 
 2009      633A2069 
 2010 00a9 000000   		.space	3
 2011              	.LC13:
 2012 00ac 63686563 		.ascii	"check that first pbuf can hold struct udp_hdr\000"
 2012      6B207468 
 2012      61742066 
 2012      69727374 
 2012      20706275 
 2013              		.text
 2014              	.Letext0:
 2015              		.file 2 "/usr/include/newlib/machine/_default_types.h"
 2016              		.file 3 "/usr/include/newlib/sys/_stdint.h"
 2017              		.file 4 "Drivers/CMSIS/Include/core_cm7.h"
 2018              		.file 5 "Drivers/CMSIS/Device/ST/STM32F7xx/Include/system_stm32f7xx.h"
 2019              		.file 6 "Drivers/STM32F7xx_HAL_Driver/Inc/stm32f7xx_hal.h"
 2020              		.file 7 "/usr/include/newlib/sys/lock.h"
 2021              		.file 8 "/usr/include/newlib/sys/_types.h"
 2022              		.file 9 "/usr/lib/gcc/arm-none-eabi/6.3.1/include/stddef.h"
 2023              		.file 10 "/usr/include/newlib/sys/reent.h"
 2024              		.file 11 "/usr/include/newlib/stdlib.h"
 2025              		.file 12 "/usr/include/newlib/time.h"
 2026              		.file 13 "Middlewares/Third_Party/LwIP/src/include/lwip/arch.h"
 2027              		.file 14 "/usr/include/newlib/ctype.h"
 2028              		.file 15 "Middlewares/Third_Party/LwIP/src/include/lwip/err.h"
 2029              		.file 16 "Middlewares/Third_Party/LwIP/src/include/lwip/pbuf.h"
 2030              		.file 17 "Middlewares/Third_Party/LwIP/src/include/lwip/ip4_addr.h"
 2031              		.file 18 "Middlewares/Third_Party/LwIP/src/include/lwip/ip_addr.h"
 2032              		.file 19 "Middlewares/Third_Party/LwIP/src/include/lwip/memp.h"
 2033              		.file 20 "Middlewares/Third_Party/LwIP/src/include/lwip/priv/memp_priv.h"
 2034              		.file 21 "Middlewares/Third_Party/LwIP/src/include/lwip/netif.h"
 2035              		.file 22 "Middlewares/Third_Party/LwIP/src/include/lwip/prot/ip4.h"
 2036              		.file 23 "Middlewares/Third_Party/LwIP/src/include/lwip/ip.h"
 2037              		.file 24 "Middlewares/Third_Party/LwIP/src/include/lwip/prot/udp.h"
 2038              		.file 25 "Middlewares/Third_Party/LwIP/src/include/lwip/udp.h"
 2039              		.file 26 "Middlewares/Third_Party/LwIP/src/include/lwip/icmp.h"
 2040              		.file 27 "/usr/include/newlib/stdio.h"
 2041              		.file 28 "Middlewares/Third_Party/LwIP/src/include/lwip/def.h"
 2042              		.file 29 "Middlewares/Third_Party/LwIP/src/include/lwip/ip4.h"
ARM GAS  /tmp/ccfwlTnO.s 			page 64

